

Microchip Technology PIC18 LITE Macro Assembler V1.34 build -361300703 
                                                                                               Wed Jul 29 15:18:21 2015

Microchip Technology Omniscient Code Generator (Lite mode) build 201502162209
     1                           	processor	18F25K50
     2                           	fnconf	rparam,??,?,0
     3                           	opt	pw 120
     4                           	opt	lm
     5                           	psect	idataBANK0,global,class=CODE,delta=1
     6                           	psect	idataBANK1,global,class=CODE,delta=1
     7                           	psect	mediumconst,global,reloc=2,class=MEDIUMCONST,delta=1
     8                           	psect	cinit,global,reloc=2,class=CODE,delta=1
     9                           	psect	bssCOMRAM,global,class=COMRAM,space=1,delta=1
    10                           	psect	bssBANK0,global,class=BANK0,space=1,delta=1
    11                           	psect	dataBANK0,global,class=BANK0,space=1,delta=1
    12                           	psect	bssBANK1,global,class=BANK1,space=1,delta=1
    13                           	psect	dataBANK1,global,class=BANK1,space=1,delta=1
    14                           	psect	cstackBANK0,global,class=BANK0,space=1,delta=1
    15                           	psect	cstackCOMRAM,global,class=COMRAM,space=1,delta=1
    16                           	psect	text0,global,reloc=2,class=CODE,delta=1
    17                           	psect	text1,global,reloc=2,class=CODE,delta=1
    18                           	psect	text2,global,reloc=2,class=CODE,delta=1
    19                           	psect	text3,global,reloc=2,class=CODE,delta=1
    20                           	psect	text4,global,reloc=2,class=CODE,delta=1
    21                           	psect	text5,global,reloc=2,class=CODE,delta=1
    22                           	psect	text6,global,reloc=2,class=CODE,delta=1
    23                           	psect	text7,global,reloc=2,class=CODE,delta=1
    24                           	psect	text8,global,reloc=2,class=CODE,delta=1
    25                           	psect	text9,global,reloc=2,class=CODE,delta=1
    26                           	psect	text10,global,reloc=2,class=CODE,delta=1
    27                           	psect	text11,global,reloc=2,class=CODE,delta=1
    28                           	psect	text12,global,reloc=2,class=CODE,delta=1
    29                           	psect	text13,global,reloc=2,class=CODE,delta=1
    30                           	psect	text14,global,reloc=2,class=CODE,delta=1
    31                           	psect	text15,global,reloc=2,class=CODE,delta=1
    32                           	psect	text16,global,reloc=2,class=CODE,delta=1
    33                           	psect	text17,global,reloc=2,class=CODE,delta=1
    34                           	psect	text18,global,reloc=2,class=CODE,delta=1
    35                           	psect	text19,global,reloc=2,class=CODE,delta=1
    36                           	psect	text20,global,reloc=2,class=CODE,delta=1
    37                           	psect	text21,global,reloc=2,class=CODE,delta=1
    38                           	psect	text22,global,reloc=2,class=CODE,delta=1
    39                           	psect	intcode,global,reloc=2,class=CODE,delta=1
    40                           	psect	text24,global,reloc=2,class=CODE,delta=1
    41                           	psect	text25,global,reloc=2,class=CODE,delta=1
    42                           	psect	text26,global,reloc=2,class=CODE,delta=1
    43                           	psect	text27,global,reloc=2,class=CODE,delta=1
    44                           	psect	text28,global,reloc=2,class=CODE,delta=1
    45                           	psect	text29,global,reloc=2,class=CODE,delta=1
    46                           	psect	text30,global,reloc=2,class=CODE,delta=1
    47                           	psect	text31,global,reloc=2,class=CODE,delta=1
    48                           	psect	text32,global,reloc=2,class=CODE,delta=1
    49                           	psect	text33,global,reloc=2,class=CODE,delta=1
    50                           	psect	text34,global,reloc=2,class=CODE,delta=1
    51                           	psect	text35,global,reloc=2,class=CODE,delta=1
    52                           	psect	text36,global,reloc=2,class=CODE,delta=1
    53                           	psect	text37,global,reloc=2,class=CODE,delta=1
    54                           	psect	text38,global,reloc=2,class=CODE,delta=1
    55                           	psect	text39,global,reloc=2,class=CODE,delta=1
    56                           	psect	text40,global,reloc=2,class=CODE,delta=1
    57                           	psect	text41,global,reloc=2,class=CODE,delta=1
    58                           	psect	text42,global,reloc=2,class=CODE,delta=1
    59                           	psect	text43,global,reloc=2,class=CODE,delta=1
    60                           	psect	text44,global,reloc=2,class=CODE,delta=1
    61                           	psect	text45,global,reloc=2,class=CODE,delta=1
    62                           	psect	text46,global,reloc=2,class=CODE,delta=1
    63                           	psect	text47,global,reloc=2,class=CODE,delta=1
    64                           	psect	text48,global,reloc=2,class=CODE,delta=1
    65                           	psect	text49,global,reloc=2,class=CODE,delta=1
    66                           	psect	text50,global,reloc=2,class=CODE,delta=1
    67                           	psect	text51,global,reloc=2,class=CODE,delta=1
    68                           	psect	text52,global,reloc=2,class=CODE,delta=1
    69                           	psect	text53,global,reloc=2,class=CODE,delta=1
    70                           	psect	text54,global,reloc=2,class=CODE,delta=1
    71                           	psect	text55,global,reloc=2,class=CODE,delta=1
    72                           	psect	text56,global,reloc=2,class=CODE,delta=1
    73                           	psect	text57,global,reloc=2,class=CODE,delta=1
    74                           	psect	text58,global,reloc=2,class=CODE,delta=1
    75                           	psect	text59,global,reloc=2,class=CODE,delta=1
    76                           	psect	text60,global,reloc=2,class=CODE,delta=1
    77                           	psect	text61,global,reloc=2,class=CODE,delta=1
    78                           	psect	text62,global,reloc=2,class=CODE,delta=1
    79                           	psect	text63,global,reloc=2,class=CODE,delta=1
    80                           	psect	text64,global,reloc=2,class=CODE,delta=1
    81                           	psect	text65,global,reloc=2,class=CODE,delta=1
    82                           	psect	text66,global,reloc=2,class=CODE,delta=1
    83                           	psect	text67,global,reloc=2,class=CODE,delta=1
    84                           	psect	text68,global,reloc=2,class=CODE,delta=1
    85                           	psect	intsave_regs,global,class=BIGRAM,space=1,delta=1
    86                           	psect	text69,global,reloc=2,class=CODE,delta=1
    87                           	psect	rparam,global,class=COMRAM,space=1,delta=1
    88                           	dabs	1,0x400,24,_bds
    89                           	dabs	1,0x500,155,_ep_buffers
    90  0000                     
    91                           	psect	idataBANK0
    92  004A32                     __pidataBANK0:
    93                           	opt stack 0
    94                           
    95                           ;initializer for _ep0_buf
    96  004A32  00                 	db	0
    97  004A33  05                 	db	5
    98  004A34  08                 	db	8
    99  004A35  05                 	db	5
   100  004A36  00                 	db	0
   101                           
   102                           	psect	idataBANK1
   103  00496A                     __pidataBANK1:
   104                           	opt stack 0
   105                           
   106                           ;initializer for _ep_buf
   107  00496A  00                 	db	0
   108  00496B  00                 	db	0
   109  00496C  00                 	db	0
   110  00496D  00                 	db	0
   111  00496E  00                 	db	0
   112  00496F  00                 	db	0
   113  004970  00                 	db	0
   114  004971  10                 	db	16
   115  004972  05                 	db	5
   116  004973  11                 	db	17
   117  004974  05                 	db	5
   118  004975  01                 	db	1
   119  004976  0A                 	db	10
   120  004977  00                 	db	0
   121  004978  1B                 	db	27
   122  004979  05                 	db	5
   123  00497A  5B                 	db	91
   124  00497B  05                 	db	5
   125  00497C  40                 	db	64
   126  00497D  40                 	db	64
   127  00497E  00                 	db	0
   128                           
   129                           ;initializer for _usb_application_config_descs
   130  00497F  77                 	db	low _configuration_1
   131  004980  21                 	db	high _configuration_1
   132                           
   133                           	psect	mediumconst
   134  002090                     __pmediumconst:
   135                           	opt stack 0
   136  002090  00                 	db	0
   137  002091                     main@F7738:
   138                           	opt stack 0
   139  002091  003E               	dw	62
   140  002093  0041               	dw	65
   141  002095  0041               	dw	65
   142  002097  003E               	dw	62
   143  002099  0000               	dw	0
   144  00209B  0044               	dw	68
   145  00209D  0042               	dw	66
   146  00209F  007F               	dw	127
   147  0020A1  0040               	dw	64
   148  0020A3  0040               	dw	64
   149  0020A5  0046               	dw	70
   150  0020A7  0061               	dw	97
   151  0020A9  0051               	dw	81
   152  0020AB  004E               	dw	78
   153  0020AD  0000               	dw	0
   154  0020AF  0022               	dw	34
   155  0020B1  0049               	dw	73
   156  0020B3  0049               	dw	73
   157  0020B5  0036               	dw	54
   158  0020B7  0000               	dw	0
   159  0020B9  0018               	dw	24
   160  0020BB  0014               	dw	20
   161  0020BD  0012               	dw	18
   162  0020BF  007F               	dw	127
   163  0020C1  0010               	dw	16
   164  0020C3  002F               	dw	47
   165  0020C5  0045               	dw	69
   166  0020C7  0045               	dw	69
   167  0020C9  0039               	dw	57
   168  0020CB  0000               	dw	0
   169  0020CD  003E               	dw	62
   170  0020CF  0049               	dw	73
   171  0020D1  0049               	dw	73
   172  0020D3  0032               	dw	50
   173  0020D5  0000               	dw	0
   174  0020D7  0001               	dw	1
   175  0020D9  0071               	dw	113
   176  0020DB  000D               	dw	13
   177  0020DD  0003               	dw	3
   178  0020DF  0000               	dw	0
   179  0020E1  0036               	dw	54
   180  0020E3  0049               	dw	73
   181  0020E5  0049               	dw	73
   182  0020E7  0036               	dw	54
   183  0020E9  0000               	dw	0
   184  0020EB  0026               	dw	38
   185  0020ED  0049               	dw	73
   186  0020EF  0049               	dw	73
   187  0020F1  003E               	dw	62
   188  0020F3  0000               	dw	0
   189  0020F5                     __end_ofmain@F7738:
   190                           	opt stack 0
   191  0020F5                     _dpowers:
   192                           	opt stack 0
   193  0020F5  0001               	dw	1
   194  0020F7  000A               	dw	10
   195  0020F9  0064               	dw	100
   196  0020FB  03E8               	dw	1000
   197  0020FD  2710               	dw	10000
   198  0020FF                     __end_of_dpowers:
   199                           	opt stack 0
   200  0020FF                     _fake_serial_num:
   201                           	opt stack 0
   202  0020FF  78                 	db	120
   203  002100  03                 	db	3
   204  002101  0046               	dw	70
   205  002103  0041               	dw	65
   206  002105  004B               	dw	75
   207  002107  0045               	dw	69
   208  002109  0020               	dw	32
   209  00210B  0053               	dw	83
   210  00210D  0065               	dw	101
   211  00210F  0072               	dw	114
   212  002111  0069               	dw	105
   213  002113  0061               	dw	97
   214  002115  006C               	dw	108
   215  002117  0020               	dw	32
   216  002119  004E               	dw	78
   217  00211B  0075               	dw	117
   218  00211D  006D               	dw	109
   219  00211F  0062               	dw	98
   220  002121  0065               	dw	101
   221  002123  0072               	dw	114
   222  002125  003A               	dw	58
   223  002127  0020               	dw	32
   224  002129  0044               	dw	68
   225  00212B  006F               	dw	111
   226  00212D  006E               	dw	110
   227  00212F  0027               	dw	39
   228  002131  0074               	dw	116
   229  002133  0020               	dw	32
   230  002135  0073               	dw	115
   231  002137  0068               	dw	104
   232  002139  0069               	dw	105
   233  00213B  0070               	dw	112
   234  00213D  0020               	dw	32
   235  00213F  0061               	dw	97
   236  002141  0020               	dw	32
   237  002143  0070               	dw	112
   238  002145  0072               	dw	114
   239  002147  006F               	dw	111
   240  002149  0064               	dw	100
   241  00214B  0075               	dw	117
   242  00214D  0063               	dw	99
   243  00214F  0074               	dw	116
   244  002151  0020               	dw	32
   245  002153  006C               	dw	108
   246  002155  0069               	dw	105
   247  002157  006B               	dw	107
   248  002159  0065               	dw	101
   249  00215B  0020               	dw	32
   250  00215D  0074               	dw	116
   251  00215F  0068               	dw	104
   252  002161  0069               	dw	105
   253  002163  0073               	dw	115
   254  002165  002E               	dw	46
   255  002167  0020               	dw	32
   256  002169  0050               	dw	80
   257  00216B  004C               	dw	76
   258  00216D  0045               	dw	69
   259  00216F  0041               	dw	65
   260  002171  0053               	dw	83
   261  002173  0045               	dw	69
   262  002175  0021               	dw	33
   263  002177                     __end_of_fake_serial_num:
   264                           	opt stack 0
   265  002177                     _configuration_1:
   266                           	opt stack 0
   267  002177  09                 	db	9
   268  002178  02                 	db	2
   269  002179  0046               	dw	70
   270  00217B  02                 	db	2
   271  00217C  01                 	db	1
   272  00217D  02                 	db	2
   273  00217E  80                 	db	128
   274  00217F  32                 	db	50
   275  002180  08                 	db	8
   276  002181  0B                 	db	11
   277  002182  00                 	db	0
   278  002183  02                 	db	2
   279  002184  02                 	db	2
   280  002185  02                 	db	2
   281  002186  00                 	db	0
   282  002187  02                 	db	2
   283  002188  09                 	db	9
   284  002189  04                 	db	4
   285  00218A  00                 	db	0
   286  00218B  00                 	db	0
   287  00218C  01                 	db	1
   288  00218D  02                 	db	2
   289  00218E  02                 	db	2
   290  00218F  00                 	db	0
   291  002190  03                 	db	3
   292  002191  05                 	db	5
   293  002192  24                 	db	36
   294  002193  00                 	db	0
   295  002194  0110               	dw	272
   296  002196  04                 	db	4
   297  002197  24                 	db	36
   298  002198  02                 	db	2
   299  002199  06                 	db	6
   300  00219A  05                 	db	5
   301  00219B  24                 	db	36
   302  00219C  06                 	db	6
   303  00219D  00                 	db	0
   304  00219E  01                 	db	1
   305  00219F  07                 	db	7
   306  0021A0  05                 	db	5
   307  0021A1  81                 	db	129
   308  0021A2  03                 	db	3
   309  0021A3  000A               	dw	10
   310  0021A5  01                 	db	1
   311  0021A6  09                 	db	9
   312  0021A7  04                 	db	4
   313  0021A8  01                 	db	1
   314  0021A9  00                 	db	0
   315  0021AA  02                 	db	2
   316  0021AB  0A                 	db	10
   317  0021AC  00                 	db	0
   318  0021AD  00                 	db	0
   319  0021AE  04                 	db	4
   320  0021AF  07                 	db	7
   321  0021B0  05                 	db	5
   322  0021B1  82                 	db	130
   323  0021B2  02                 	db	2
   324  0021B3  0040               	dw	64
   325  0021B5  01                 	db	1
   326  0021B6  07                 	db	7
   327  0021B7  05                 	db	5
   328  0021B8  02                 	db	2
   329  0021B9  02                 	db	2
   330  0021BA  0040               	dw	64
   331  0021BC  01                 	db	1
   332  0021BD                     __end_of_configuration_1:
   333                           	opt stack 0
   334  0021BD                     _vendor_string:
   335                           	opt stack 0
   336  0021BD  30                 	db	48
   337  0021BE  03                 	db	3
   338  0021BF  0053               	dw	83
   339  0021C1  0069               	dw	105
   340  0021C3  0067               	dw	103
   341  0021C5  006E               	dw	110
   342  0021C7  0061               	dw	97
   343  0021C9  006C               	dw	108
   344  0021CB  0020               	dw	32
   345  0021CD  0031               	dw	49
   346  0021CF  0031               	dw	49
   347  0021D1  0020               	dw	32
   348  0021D3  0053               	dw	83
   349  0021D5  006F               	dw	111
   350  0021D7  0066               	dw	102
   351  0021D9  0074               	dw	116
   352  0021DB  0077               	dw	119
   353  0021DD  0061               	dw	97
   354  0021DF  0072               	dw	114
   355  0021E1  0065               	dw	101
   356  0021E3  0020               	dw	32
   357  0021E5  004C               	dw	76
   358  0021E7  004C               	dw	76
   359  0021E9  0043               	dw	67
   360  0021EB  002E               	dw	46
   361  0021ED                     __end_of_vendor_string:
   362                           	opt stack 0
   363  0021ED                     _cdc_data_string:
   364                           	opt stack 0
   365  0021ED  26                 	db	38
   366  0021EE  03                 	db	3
   367  0021EF  0043               	dw	67
   368  0021F1  0044               	dw	68
   369  0021F3  0043               	dw	67
   370  0021F5  0020               	dw	32
   371  0021F7  0044               	dw	68
   372  0021F9  0061               	dw	97
   373  0021FB  0074               	dw	116
   374  0021FD  0061               	dw	97
   375  0021FF  0020               	dw	32
   376  002201  0049               	dw	73
   377  002203  006E               	dw	110
   378  002205  0074               	dw	116
   379  002207  0065               	dw	101
   380  002209  0072               	dw	114
   381  00220B  0066               	dw	102
   382  00220D  0061               	dw	97
   383  00220F  0063               	dw	99
   384  002211  0065               	dw	101
   385  002213                     __end_of_cdc_data_string:
   386                           	opt stack 0
   387  002213                     _cdc_interface_string:
   388                           	opt stack 0
   389  002213  1C                 	db	28
   390  002214  03                 	db	3
   391  002215  0043               	dw	67
   392  002217  0044               	dw	68
   393  002219  0043               	dw	67
   394  00221B  0020               	dw	32
   395  00221D  0049               	dw	73
   396  00221F  006E               	dw	110
   397  002221  0074               	dw	116
   398  002223  0065               	dw	101
   399  002225  0072               	dw	114
   400  002227  0066               	dw	102
   401  002229  0061               	dw	97
   402  00222B  0063               	dw	99
   403  00222D  0065               	dw	101
   404  00222F                     __end_of_cdc_interface_string:
   405                           	opt stack 0
   406  00222F                     _product_string:
   407                           	opt stack 0
   408  00222F  1A                 	db	26
   409  002230  03                 	db	3
   410  002231  0055               	dw	85
   411  002233  0053               	dw	83
   412  002235  0042               	dw	66
   413  002237  0020               	dw	32
   414  002239  0043               	dw	67
   415  00223B  0044               	dw	68
   416  00223D  0043               	dw	67
   417  00223F  0020               	dw	32
   418  002241  0054               	dw	84
   419  002243  0065               	dw	101
   420  002245  0073               	dw	115
   421  002247  0074               	dw	116
   422  002249                     __end_of_product_string:
   423                           	opt stack 0
   424  002249                     _this_device_descriptor:
   425                           	opt stack 0
   426  002249  12                 	db	18
   427  00224A  01                 	db	1
   428  00224B  0200               	dw	512
   429  00224D  EF                 	db	239
   430  00224E  02                 	db	2
   431  00224F  01                 	db	1
   432  002250  08                 	db	8
   433  002251  A0A0               	dw	41120
   434  002253  0004               	dw	4
   435  002255  0001               	dw	1
   436  002257  01                 	db	1
   437  002258  02                 	db	2
   438  002259  05                 	db	5
   439  00225A  01                 	db	1
   440  00225B                     __end_of_this_device_descriptor:
   441                           	opt stack 0
   442  00225B                     _str00:
   443                           	opt stack 0
   444  00225B  04                 	db	4
   445  00225C  03                 	db	3
   446  00225D  0409               	dw	1033
   447  00225F                     __end_of_str00:
   448                           	opt stack 0
   449  0000                     _ANSELBbits	set	3932
   450  0000                     _INTCONbits	set	4082
   451  0000                     _PIE1bits	set	3997
   452  0000                     _PIR1bits	set	3998
   453  0000                     _PORTBbits	set	3969
   454  0000                     _T1CON	set	4045
   455  0000                     _T1CONbits	set	4045
   456  0000                     _TMR1H	set	4047
   457  0000                     _TMR1L	set	4046
   458  0000                     _TRISBbits	set	3987
   459  0000                     _UADDR	set	3939
   460  0000                     _UCFGbits	set	3938
   461  0000                     _UCONbits	set	3936
   462  0000                     _UEIE	set	3942
   463  0000                     _UIE	set	3940
   464  0000                     _UIEbits	set	3940
   465  0000                     _UIR	set	3941
   466  0000                     _UIRbits	set	3941
   467  0000                     _USTATbits	set	3937
   468  0000                     _UEP0	set	3946
   469  0000                     _USBIE	set	32026
   470  0000                     _USBIF	set	32034
   471  00225F                     STR_8:
   472  00225F  6C                 	db	108	;'l'
   473  002260  6F                 	db	111	;'o'
   474  002261  6F                 	db	111	;'o'
   475  002262  70                 	db	112	;'p'
   476  002263  62                 	db	98	;'b'
   477  002264  61                 	db	97	;'a'
   478  002265  63                 	db	99	;'c'
   479  002266  6B                 	db	107	;'k'
   480  002267  20                 	db	32
   481  002268  65                 	db	101	;'e'
   482  002269  6E                 	db	110	;'n'
   483  00226A  61                 	db	97	;'a'
   484  00226B  62                 	db	98	;'b'
   485  00226C  6C                 	db	108	;'l'
   486  00226D  65                 	db	101	;'e'
   487  00226E  64                 	db	100	;'d'
   488  00226F  3B                 	db	59	;';'
   489  002270  20                 	db	32
   490  002271  70                 	db	112	;'p'
   491  002272  72                 	db	114	;'r'
   492  002273  65                 	db	101	;'e'
   493  002274  73                 	db	115	;'s'
   494  002275  73                 	db	115	;'s'
   495  002276  20                 	db	32
   496  002277  7E                 	db	126
   497  002278  20                 	db	32
   498  002279  74                 	db	116	;'t'
   499  00227A  6F                 	db	111	;'o'
   500  00227B  20                 	db	32
   501  00227C  64                 	db	100	;'d'
   502  00227D  69                 	db	105	;'i'
   503  00227E  73                 	db	115	;'s'
   504  00227F  61                 	db	97	;'a'
   505  002280  62                 	db	98	;'b'
   506  002281  6C                 	db	108	;'l'
   507  002282  65                 	db	101	;'e'
   508  002283  0D                 	db	13
   509  002284  0A                 	db	10
   510  002285  00                 	db	0
   511  002286                     STR_6:
   512  002286  0D                 	db	13
   513  002287  0A                 	db	10
   514  002288  48                 	db	72	;'H'
   515  002289  65                 	db	101	;'e'
   516  00228A  6C                 	db	108	;'l'
   517  00228B  70                 	db	112	;'p'
   518  00228C  3A                 	db	58	;':'
   519  00228D  0D                 	db	13
   520  00228E  0A                 	db	10
   521  00228F  09                 	db	9
   522  002290  73                 	db	115	;'s'
   523  002291  3A                 	db	58	;':'
   524  002292  20                 	db	32
   525  002293  73                 	db	115	;'s'
   526  002294  65                 	db	101	;'e'
   527  002295  6E                 	db	110	;'n'
   528  002296  64                 	db	100	;'d'
   529  002297  20                 	db	32
   530  002298  64                 	db	100	;'d'
   531  002299  61                 	db	97	;'a'
   532  00229A  74                 	db	116	;'t'
   533  00229B  61                 	db	97	;'a'
   534  00229C  0D                 	db	13
   535  00229D  0A                 	db	10
   536  00229E  09                 	db	9
   537  00229F  6C                 	db	108	;'l'
   538  0022A0  3A                 	db	58	;':'
   539  0022A1  20                 	db	32
   540  0022A2  6C                 	db	108	;'l'
   541  0022A3  6F                 	db	111	;'o'
   542  0022A4  6F                 	db	111	;'o'
   543  0022A5  70                 	db	112	;'p'
   544  0022A6  62                 	db	98	;'b'
   545  0022A7  61                 	db	97	;'a'
   546  0022A8  63                 	db	99	;'c'
   547  0022A9  6B                 	db	107	;'k'
   548  0022AA  0D                 	db	13
   549  0022AB  0A                 	db	10
   550  0022AC  00                 	db	0
   551  0022AD                     STR_7:
   552  0022AD  09                 	db	9
   553  0022AE  6E                 	db	110	;'n'
   554  0022AF  3A                 	db	58	;':'
   555  0022B0  20                 	db	32
   556  0022B1  73                 	db	115	;'s'
   557  0022B2  65                 	db	101	;'e'
   558  0022B3  6E                 	db	110	;'n'
   559  0022B4  64                 	db	100	;'d'
   560  0022B5  20                 	db	32
   561  0022B6  6E                 	db	110	;'n'
   562  0022B7  6F                 	db	111	;'o'
   563  0022B8  74                 	db	116	;'t'
   564  0022B9  69                 	db	105	;'i'
   565  0022BA  66                 	db	102	;'f'
   566  0022BB  69                 	db	105	;'i'
   567  0022BC  63                 	db	99	;'c'
   568  0022BD  61                 	db	97	;'a'
   569  0022BE  74                 	db	116	;'t'
   570  0022BF  69                 	db	105	;'i'
   571  0022C0  6F                 	db	111	;'o'
   572  0022C1  6E                 	db	110	;'n'
   573  0022C2  0D                 	db	13
   574  0022C3  0A                 	db	10
   575  0022C4  09                 	db	9
   576  0022C5  68                 	db	104	;'h'
   577  0022C6  3A                 	db	58	;':'
   578  0022C7  20                 	db	32
   579  0022C8  68                 	db	104	;'h'
   580  0022C9  65                 	db	101	;'e'
   581  0022CA  6C                 	db	108	;'l'
   582  0022CB  70                 	db	112	;'p'
   583  0022CC  0D                 	db	13
   584  0022CD  0A                 	db	10
   585  0022CE  00                 	db	0
   586  0022CF                     STR_5:
   587  0022CF  0D                 	db	13
   588  0022D0  0A                 	db	10
   589  0022D1  4C                 	db	76	;'L'
   590  0022D2  6F                 	db	111	;'o'
   591  0022D3  6F                 	db	111	;'o'
   592  0022D4  70                 	db	112	;'p'
   593  0022D5  62                 	db	98	;'b'
   594  0022D6  61                 	db	97	;'a'
   595  0022D7  63                 	db	99	;'c'
   596  0022D8  6B                 	db	107	;'k'
   597  0022D9  20                 	db	32
   598  0022DA  6F                 	db	111	;'o'
   599  0022DB  66                 	db	102	;'f'
   600  0022DC  66                 	db	102	;'f'
   601  0022DD  20                 	db	32
   602  0022DE  28                 	db	40
   603  0022DF  27                 	db	39
   604  0022E0  68                 	db	104	;'h'
   605  0022E1  27                 	db	39
   606  0022E2  20                 	db	32
   607  0022E3  66                 	db	102	;'f'
   608  0022E4  6F                 	db	111	;'o'
   609  0022E5  72                 	db	114	;'r'
   610  0022E6  20                 	db	32
   611  0022E7  68                 	db	104	;'h'
   612  0022E8  65                 	db	101	;'e'
   613  0022E9  6C                 	db	108	;'l'
   614  0022EA  70                 	db	112	;'p'
   615  0022EB  29                 	db	41
   616  0022EC  0D                 	db	13
   617  0022ED  0A                 	db	10
   618  0022EE  00                 	db	0
   619  0022EF                     STR_4:
   620  0022EF  44                 	db	68	;'D'
   621  0022F0  61                 	db	97	;'a'
   622  0022F1  74                 	db	116	;'t'
   623  0022F2  61                 	db	97	;'a'
   624  0022F3  20                 	db	32
   625  0022F4  73                 	db	115	;'s'
   626  0022F5  65                 	db	101	;'e'
   627  0022F6  6E                 	db	110	;'n'
   628  0022F7  64                 	db	100	;'d'
   629  0022F8  20                 	db	32
   630  0022F9  6F                 	db	111	;'o'
   631  0022FA  66                 	db	102	;'f'
   632  0022FB  66                 	db	102	;'f'
   633  0022FC  20                 	db	32
   634  0022FD  28                 	db	40
   635  0022FE  27                 	db	39
   636  0022FF  68                 	db	104	;'h'
   637  002300  27                 	db	39
   638  002301  20                 	db	32
   639  002302  66                 	db	102	;'f'
   640  002303  6F                 	db	111	;'o'
   641  002304  72                 	db	114	;'r'
   642  002305  20                 	db	32
   643  002306  68                 	db	104	;'h'
   644  002307  65                 	db	101	;'e'
   645  002308  6C                 	db	108	;'l'
   646  002309  70                 	db	112	;'p'
   647  00230A  29                 	db	41
   648  00230B  0D                 	db	13
   649  00230C  0A                 	db	10
   650  00230D  00                 	db	0
   651  00230E                     STR_9:
   652  00230E  4E                 	db	78	;'N'
   653  00230F  6F                 	db	111	;'o'
   654  002310  74                 	db	116	;'t'
   655  002311  69                 	db	105	;'i'
   656  002312  66                 	db	102	;'f'
   657  002313  69                 	db	105	;'i'
   658  002314  63                 	db	99	;'c'
   659  002315  61                 	db	97	;'a'
   660  002316  74                 	db	116	;'t'
   661  002317  69                 	db	105	;'i'
   662  002318  6F                 	db	111	;'o'
   663  002319  6E                 	db	110	;'n'
   664  00231A  20                 	db	32
   665  00231B  53                 	db	83	;'S'
   666  00231C  65                 	db	101	;'e'
   667  00231D  6E                 	db	110	;'n'
   668  00231E  74                 	db	116	;'t'
   669  00231F  0D                 	db	13
   670  002320  0A                 	db	10
   671  002321  00                 	db	0
   672  002322                     STR_1:
   673  002322  2D                 	db	45
   674  002323  2D                 	db	45
   675  002324  00                 	db	0
   676  002325                     STR_2:
   677  002325  2E                 	db	46
   678  002326  2E                 	db	46
   679  002327  00                 	db	0
   680  002328                     STR_3:
   681  002328  25                 	db	37
   682  002329  64                 	db	100	;'d'
   683  00232A  00                 	db	0
   684                           
   685                           ; #config settings
   686  00232B  00                 	db	0	; dummy byte at the end
   687  0000                     
   688                           	psect	cinit
   689  004346                     __pcinit:
   690                           	opt stack 0
   691  004346                     start_initialization:
   692                           	opt stack 0
   693  004346                     __initialization:
   694                           	opt stack 0
   695                           
   696                           ; Clear objects allocated to BANK1 (14 bytes)
   697  004346  EE01  F017         	lfsr	0,__pbssBANK1
   698  00434A  0E0E               	movlw	14
   699  00434C                     clear_0:
   700  00434C  6AEE               	clrf	postinc0,c
   701  00434E  06E8               	decf	wreg,f,c
   702  004350  E1FD               	bnz	clear_0
   703                           
   704                           ; Clear objects allocated to BANK0 (11 bytes)
   705  004352  EE00  F0F0         	lfsr	0,__pbssBANK0
   706  004356  0E0B               	movlw	11
   707  004358                     clear_1:
   708  004358  6AEE               	clrf	postinc0,c
   709  00435A  06E8               	decf	wreg,f,c
   710  00435C  E1FD               	bnz	clear_1
   711                           
   712                           ; Clear objects allocated to COMRAM (5 bytes)
   713  00435E  6A5F               	clrf	(__pbssCOMRAM+4)& (0+255),c
   714  004360  6A5E               	clrf	(__pbssCOMRAM+3)& (0+255),c
   715  004362  6A5D               	clrf	(__pbssCOMRAM+2)& (0+255),c
   716  004364  6A5C               	clrf	(__pbssCOMRAM+1)& (0+255),c
   717  004366  6A5B               	clrf	__pbssCOMRAM& (0+255),c
   718                           
   719                           ; Initialize objects allocated to BANK1 (23 bytes)
   720                           ; load TBLPTR registers with __pidataBANK1
   721  004368  0E6A               	movlw	low __pidataBANK1
   722  00436A  6EF6               	movwf	tblptrl,c
   723  00436C  0E49               	movlw	high __pidataBANK1
   724  00436E  6EF7               	movwf	tblptrh,c
   725  004370  0E00               	movlw	low (__pidataBANK1 shr (0+16))
   726  004372  6EF8               	movwf	tblptru,c
   727  004374  EE01  F000         	lfsr	0,__pdataBANK1
   728  004378  EE10 F017          	lfsr	1,23
   729  00437C                     copy_data0:
   730  00437C  0009               	tblrd		*+
   731  00437E  CFF5 FFEE          	movff	tablat,postinc0
   732  004382  50E5               	movf	postdec1,w,c
   733  004384  50E1               	movf	fsr1l,w,c
   734  004386  E1FA               	bnz	copy_data0
   735                           
   736                           ; Initialize objects allocated to BANK0 (5 bytes)
   737                           ; load TBLPTR registers with __pidataBANK0
   738  004388  0E32               	movlw	low __pidataBANK0
   739  00438A  6EF6               	movwf	tblptrl,c
   740  00438C  0E4A               	movlw	high __pidataBANK0
   741  00438E  6EF7               	movwf	tblptrh,c
   742  004390  0E00               	movlw	low (__pidataBANK0 shr (0+16))
   743  004392  6EF8               	movwf	tblptru,c
   744  004394  EE00  F0FB         	lfsr	0,__pdataBANK0
   745  004398  EE10 F005          	lfsr	1,5
   746  00439C                     copy_data1:
   747  00439C  0009               	tblrd		*+
   748  00439E  CFF5 FFEE          	movff	tablat,postinc0
   749  0043A2  50E5               	movf	postdec1,w,c
   750  0043A4  50E1               	movf	fsr1l,w,c
   751  0043A6  E1FA               	bnz	copy_data1
   752  0043A8                     end_of_initialization:
   753                           	opt stack 0
   754  0043A8                     __end_of__initialization:
   755                           	opt stack 0
   756  0043A8  0E00               	movlw	low (__Lmediumconst shr (0+16))
   757  0043AA  6EF8               	movwf	tblptru,c
   758  0043AC  0100               	movlb	0
   759  0043AE  EF69  F017         	goto	_main	;jump to C main() function
   760                           tblptru	equ	0xFF8
   761                           tblptrh	equ	0xFF7
   762                           tblptrl	equ	0xFF6
   763                           tablat	equ	0xFF5
   764                           postinc0	equ	0xFEE
   765                           wreg	equ	0xFE8
   766                           postdec1	equ	0xFE5
   767                           fsr1l	equ	0xFE1
   768                           
   769                           	psect	bssCOMRAM
   770  00005B                     __pbssCOMRAM:
   771                           	opt stack 0
   772  00005B                     _ep0_data_stage_buf_remaining:
   773                           	opt stack 0
   774  00005B                     	ds	2
   775  00005D                     _ep0_data_stage_callback:
   776                           	opt stack 0
   777  00005D                     	ds	2
   778  00005F                     _g_configuration:
   779                           	opt stack 0
   780  00005F                     	ds	1
   781                           tblptru	equ	0xFF8
   782                           tblptrh	equ	0xFF7
   783                           tblptrl	equ	0xFF6
   784                           tablat	equ	0xFF5
   785                           postinc0	equ	0xFEE
   786                           wreg	equ	0xFE8
   787                           postdec1	equ	0xFE5
   788                           fsr1l	equ	0xFE1
   789                           
   790                           	psect	bssBANK0
   791  0000F0                     __pbssBANK0:
   792                           	opt stack 0
   793  0000F0                     _ep0_data_stage_context:
   794                           	opt stack 0
   795  0000F0                     	ds	2
   796  0000F2                     _addr:
   797                           	opt stack 0
   798  0000F2                     	ds	1
   799  0000F3                     _addr_pending:
   800                           	opt stack 0
   801  0000F3                     	ds	1
   802  0000F4                     _control_need_zlp:
   803                           	opt stack 0
   804  0000F4                     	ds	1
   805  0000F5                     _cpm:
   806                           	opt stack 0
   807  0000F5                     	ds	1
   808  0000F6                     _ep0_data_stage_direc:
   809                           	opt stack 0
   810  0000F6                     	ds	1
   811  0000F7                     _returning_short:
   812                           	opt stack 0
   813  0000F7                     	ds	1
   814  0000F8                     _sendDataToPC:
   815                           	opt stack 0
   816  0000F8                     	ds	1
   817  0000F9                     _set_or_clear_request:
   818                           	opt stack 0
   819  0000F9                     	ds	1
   820  0000FA                     _transfer_interface:
   821                           	opt stack 0
   822  0000FA                     	ds	1
   823                           tblptru	equ	0xFF8
   824                           tblptrh	equ	0xFF7
   825                           tblptrl	equ	0xFF6
   826                           tablat	equ	0xFF5
   827                           postinc0	equ	0xFEE
   828                           wreg	equ	0xFE8
   829                           postdec1	equ	0xFE5
   830                           fsr1l	equ	0xFE1
   831                           
   832                           	psect	dataBANK0
   833  0000FB                     __pdataBANK0:
   834                           	opt stack 0
   835  0000FB                     _ep0_buf:
   836                           	opt stack 0
   837  0000FB                     	ds	5
   838                           tblptru	equ	0xFF8
   839                           tblptrh	equ	0xFF7
   840                           tblptrl	equ	0xFF6
   841                           tablat	equ	0xFF5
   842                           postinc0	equ	0xFEE
   843                           wreg	equ	0xFE8
   844                           postdec1	equ	0xFE5
   845                           fsr1l	equ	0xFE1
   846                           
   847                           	psect	bssBANK1
   848  000117                     __pbssBANK1:
   849                           	opt stack 0
   850  000117                     _ep0_data_stage_in_buffer:
   851                           	opt stack 0
   852  000117                     	ds	2
   853  000119                     _ep0_data_stage_out_buffer:
   854                           	opt stack 0
   855  000119                     	ds	2
   856  00011B                     _ledState:
   857                           	opt stack 0
   858  00011B                     	ds	2
   859  00011D                     	ds	1
   860  00011E                     _transfer_data:
   861                           	opt stack 0
   862  00011E                     	ds	7
   863                           tblptru	equ	0xFF8
   864                           tblptrh	equ	0xFF7
   865                           tblptrl	equ	0xFF6
   866                           tablat	equ	0xFF5
   867                           postinc0	equ	0xFEE
   868                           wreg	equ	0xFE8
   869                           postdec1	equ	0xFE5
   870                           fsr1l	equ	0xFE1
   871                           
   872                           	psect	dataBANK1
   873  000100                     __pdataBANK1:
   874                           	opt stack 0
   875  000100                     _ep_buf:
   876                           	opt stack 0
   877  000100                     	ds	21
   878  000115                     _usb_application_config_descs:
   879                           	opt stack 0
   880  000115                     	ds	2
   881                           tblptru	equ	0xFF8
   882                           tblptrh	equ	0xFF7
   883                           tblptrl	equ	0xFF6
   884                           tablat	equ	0xFF5
   885                           postinc0	equ	0xFEE
   886                           wreg	equ	0xFE8
   887                           postdec1	equ	0xFE5
   888                           fsr1l	equ	0xFE1
   889                           
   890                           	psect	cstackBANK0
   891  000060                     __pcstackBANK0:
   892                           	opt stack 0
   893  000060                     ??_usb_in_endpoint_busy:
   894  000060                     ?_strlen:
   895                           	opt stack 0
   896  000060                     ?_measure_data:
   897                           	opt stack 0
   898  000060                     ?_usb_get_in_buffer:
   899                           	opt stack 0
   900  000060                     ?___lwdiv:
   901                           	opt stack 0
   902  000060                     usb_in_endpoint_halted@endpoint:
   903                           	opt stack 0
   904  000060                     usb_out_endpoint_has_data@endpoint:
   905                           	opt stack 0
   906  000060                     usb_arm_out_endpoint@pid:
   907                           	opt stack 0
   908  000060                     usb_out_endpoint_halted@endpoint:
   909                           	opt stack 0
   910  000060                     usb_get_out_buffer@buf:
   911                           	opt stack 0
   912  000060                     ___lwdiv@dividend:
   913                           	opt stack 0
   914  000060                     memset@p1:
   915                           	opt stack 0
   916  000060                     strcpy@to:
   917                           	opt stack 0
   918  000060                     strlen@s:
   919                           	opt stack 0
   920                           
   921                           ; 2 bytes @ 0x0
   922  000060                     	ds	1
   923  000061                     usb_arm_out_endpoint@endpoint:
   924                           	opt stack 0
   925                           
   926                           ; 1 bytes @ 0x1
   927  000061                     	ds	1
   928  000062                     ??_strlen:
   929  000062                     usb_get_in_buffer@endpoint:
   930                           	opt stack 0
   931  000062                     usb_in_endpoint_busy@endpoint:
   932                           	opt stack 0
   933  000062                     usb_get_out_buffer@endpoint:
   934                           	opt stack 0
   935  000062                     ___lwdiv@divisor:
   936                           	opt stack 0
   937  000062                     memset@c:
   938                           	opt stack 0
   939  000062                     strcpy@from:
   940                           	opt stack 0
   941                           
   942                           ; 2 bytes @ 0x2
   943  000062                     	ds	1
   944  000063                     memcpy@d1:
   945                           	opt stack 0
   946                           
   947                           ; 2 bytes @ 0x3
   948  000063                     	ds	1
   949  000064                     ___lwdiv@quotient:
   950                           	opt stack 0
   951  000064                     memset@n:
   952                           	opt stack 0
   953  000064                     strcpy@cp:
   954                           	opt stack 0
   955  000064                     strlen@cp:
   956                           	opt stack 0
   957                           
   958                           ; 2 bytes @ 0x4
   959  000064                     	ds	1
   960  000065                     memcpy@s1:
   961                           	opt stack 0
   962                           
   963                           ; 2 bytes @ 0x5
   964  000065                     	ds	1
   965  000066                     ___lwdiv@counter:
   966                           	opt stack 0
   967  000066                     usb_send_in_buffer@len:
   968                           	opt stack 0
   969  000066                     memset@p:
   970                           	opt stack 0
   971                           
   972                           ; 2 bytes @ 0x6
   973  000066                     	ds	1
   974  000067                     ?___lwmod:
   975                           	opt stack 0
   976  000067                     ___lwmod@dividend:
   977                           	opt stack 0
   978  000067                     memcpy@n:
   979                           	opt stack 0
   980                           
   981                           ; 2 bytes @ 0x7
   982  000067                     	ds	1
   983  000068                     ??_usb_init:
   984  000068                     ??_usb_send_in_buffer:
   985                           
   986                           ; 0 bytes @ 0x8
   987  000068                     	ds	1
   988  000069                     ___lwmod@divisor:
   989                           	opt stack 0
   990  000069                     memcpy@d:
   991                           	opt stack 0
   992                           
   993                           ; 2 bytes @ 0x9
   994  000069                     	ds	1
   995  00006A                     usb_send_in_buffer@pid:
   996                           	opt stack 0
   997  00006A                     usb_init@ep:
   998                           	opt stack 0
   999                           
  1000                           ; 2 bytes @ 0xA
  1001  00006A                     	ds	1
  1002  00006B                     usb_send_in_buffer@endpoint:
  1003                           	opt stack 0
  1004  00006B                     ___lwmod@counter:
  1005                           	opt stack 0
  1006  00006B                     memcpy@s:
  1007                           	opt stack 0
  1008                           
  1009                           ; 2 bytes @ 0xB
  1010  00006B                     	ds	1
  1011  00006C                     ?_sprintf:
  1012                           	opt stack 0
  1013  00006C                     usb_init@i:
  1014                           	opt stack 0
  1015  00006C                     usb_send_in_buffer@bd:
  1016                           	opt stack 0
  1017  00006C                     sprintf@sp:
  1018                           	opt stack 0
  1019                           
  1020                           ; 2 bytes @ 0xC
  1021  00006C                     	ds	2
  1022  00006E                     send_string_sync@str:
  1023                           	opt stack 0
  1024  00006E                     sprintf@f:
  1025                           	opt stack 0
  1026                           
  1027                           ; 2 bytes @ 0xE
  1028  00006E                     	ds	2
  1029  000070                     send_string_sync@in_buf:
  1030                           	opt stack 0
  1031                           
  1032                           ; 2 bytes @ 0x10
  1033  000070                     	ds	2
  1034  000072                     ??_sprintf:
  1035  000072                     send_string_sync@endpoint:
  1036                           	opt stack 0
  1037                           
  1038                           ; 1 bytes @ 0x12
  1039  000072                     	ds	1
  1040  000073                     sprintf@ap:
  1041                           	opt stack 0
  1042                           
  1043                           ; 2 bytes @ 0x13
  1044  000073                     	ds	2
  1045  000075                     sprintf@flag:
  1046                           	opt stack 0
  1047                           
  1048                           ; 1 bytes @ 0x15
  1049  000075                     	ds	1
  1050  000076                     sprintf@prec:
  1051                           	opt stack 0
  1052                           
  1053                           ; 1 bytes @ 0x16
  1054  000076                     	ds	1
  1055  000077                     sprintf@val:
  1056                           	opt stack 0
  1057                           
  1058                           ; 2 bytes @ 0x17
  1059  000077                     	ds	2
  1060  000079                     sprintf@c:
  1061                           	opt stack 0
  1062                           
  1063                           ; 1 bytes @ 0x19
  1064  000079                     	ds	1
  1065  00007A                     ??_main:
  1066                           
  1067                           ; 0 bytes @ 0x1A
  1068  00007A                     	ds	1
  1069  00007B                     main@Franklin_Gothic_Medium5x7:
  1070                           	opt stack 0
  1071                           
  1072                           ; 100 bytes @ 0x1B
  1073  00007B                     	ds	100
  1074  0000DF                     _main$1191:
  1075                           	opt stack 0
  1076                           
  1077                           ; 2 bytes @ 0x7F
  1078  0000DF                     	ds	2
  1079  0000E1                     main@char_to_send:
  1080                           	opt stack 0
  1081                           
  1082                           ; 1 bytes @ 0x81
  1083  0000E1                     	ds	1
  1084  0000E2                     main@loopback:
  1085                           	opt stack 0
  1086                           
  1087                           ; 1 bytes @ 0x82
  1088  0000E2                     	ds	1
  1089  0000E3                     main@i_1197:
  1090                           	opt stack 0
  1091                           
  1092                           ; 2 bytes @ 0x83
  1093  0000E3                     	ds	2
  1094  0000E5                     main@send:
  1095                           	opt stack 0
  1096                           
  1097                           ; 1 bytes @ 0x85
  1098  0000E5                     	ds	1
  1099  0000E6                     main@buf:
  1100                           	opt stack 0
  1101                           
  1102                           ; 2 bytes @ 0x86
  1103  0000E6                     	ds	2
  1104  0000E8                     main@out_buf_len:
  1105                           	opt stack 0
  1106                           
  1107                           ; 2 bytes @ 0x88
  1108  0000E8                     	ds	2
  1109  0000EA                     main@i:
  1110                           	opt stack 0
  1111                           
  1112                           ; 2 bytes @ 0x8A
  1113  0000EA                     	ds	2
  1114  0000EC                     main@out_buf:
  1115                           	opt stack 0
  1116                           
  1117                           ; 2 bytes @ 0x8C
  1118  0000EC                     	ds	2
  1119  0000EE                     main@n:
  1120                           	opt stack 0
  1121                           
  1122                           ; 2 bytes @ 0x8E
  1123  0000EE                     	ds	2
  1124                           tblptru	equ	0xFF8
  1125                           tblptrh	equ	0xFF7
  1126                           tblptrl	equ	0xFF6
  1127                           tablat	equ	0xFF5
  1128                           postinc0	equ	0xFEE
  1129                           wreg	equ	0xFE8
  1130                           postdec1	equ	0xFE5
  1131                           fsr1l	equ	0xFE1
  1132                           
  1133                           	psect	cstackCOMRAM
  1134  000001                     __pcstackCOMRAM:
  1135                           	opt stack 0
  1136  000001                     ??_stall_ep_in:
  1137  000001                     ?_usb_application_get_string:
  1138                           	opt stack 0
  1139  000001                     ?_app_unknown_get_descriptor_callback:
  1140                           	opt stack 0
  1141  000001                     ?_app_get_device_status_callback:
  1142                           	opt stack 0
  1143  000001                     ?_app_get_encapsulated_response:
  1144                           	opt stack 0
  1145  000001                     stall_ep_out@ep:
  1146                           	opt stack 0
  1147  000001                     app_endpoint_halt_callback@halted:
  1148                           	opt stack 0
  1149  000001                     app_set_interface_callback@alt_setting:
  1150                           	opt stack 0
  1151  000001                     app_set_comm_feature_callback@idle_setting:
  1152                           	opt stack 0
  1153  000001                     app_clear_comm_feature_callback@idle_setting:
  1154                           	opt stack 0
  1155  000001                     app_set_control_line_state_callback@dtr:
  1156                           	opt stack 0
  1157  000001                     i2usb_in_endpoint_halted@endpoint:
  1158                           	opt stack 0
  1159  000001                     usb_start_receive_ep0_data_stage@buffer:
  1160                           	opt stack 0
  1161  000001                     app_unknown_get_descriptor_callback@pkt:
  1162                           	opt stack 0
  1163  000001                     app_send_encapsulated_command@length:
  1164                           	opt stack 0
  1165  000001                     app_get_encapsulated_response@length:
  1166                           	opt stack 0
  1167  000001                     app_get_comm_feature_callback@idle_setting:
  1168                           	opt stack 0
  1169  000001                     app_set_line_coding_callback@coding:
  1170                           	opt stack 0
  1171  000001                     app_get_line_coding_callback@coding:
  1172                           	opt stack 0
  1173  000001                     app_send_break_callback@duration:
  1174                           	opt stack 0
  1175  000001                     usb_application_get_string@ptr:
  1176                           	opt stack 0
  1177  000001                     i2memcpy@d1:
  1178                           	opt stack 0
  1179  000001                     i2memset@p1:
  1180                           	opt stack 0
  1181                           
  1182                           ; 2 bytes @ 0x0
  1183  000001                     	ds	1
  1184  000002                     app_set_comm_feature_callback@data_multiplexed_state:
  1185                           	opt stack 0
  1186  000002                     app_clear_comm_feature_callback@data_multiplexed_state:
  1187                           	opt stack 0
  1188  000002                     app_set_control_line_state_callback@dts:
  1189                           	opt stack 0
  1190  000002                     usb_send_in_buffer_0@len:
  1191                           	opt stack 0
  1192                           
  1193                           ; 2 bytes @ 0x1
  1194  000002                     	ds	1
  1195  000003                     stall_ep_in@ep:
  1196                           	opt stack 0
  1197  000003                     usb_application_get_string@string_number:
  1198                           	opt stack 0
  1199  000003                     usb_start_receive_ep0_data_stage@len:
  1200                           	opt stack 0
  1201  000003                     set_line_coding@context:
  1202                           	opt stack 0
  1203  000003                     app_unknown_get_descriptor_callback@descriptor:
  1204                           	opt stack 0
  1205  000003                     app_get_encapsulated_response@report:
  1206                           	opt stack 0
  1207  000003                     app_get_comm_feature_callback@data_multiplexed_state:
  1208                           	opt stack 0
  1209  000003                     i2memcpy@s1:
  1210                           	opt stack 0
  1211  000003                     i2memset@c:
  1212                           	opt stack 0
  1213                           
  1214                           ; 2 bytes @ 0x2
  1215  000003                     	ds	1
  1216  000004                     usb_send_in_buffer_0@pid:
  1217                           	opt stack 0
  1218                           
  1219                           ; 1 bytes @ 0x3
  1220  000004                     	ds	1
  1221  000005                     set_or_clear_comm_feature_callback@transfer_ok:
  1222                           	opt stack 0
  1223  000005                     set_line_coding@transfer_ok:
  1224                           	opt stack 0
  1225  000005                     usb_start_receive_ep0_data_stage@callback:
  1226                           	opt stack 0
  1227  000005                     app_get_encapsulated_response@callback:
  1228                           	opt stack 0
  1229  000005                     i2memcpy@n:
  1230                           	opt stack 0
  1231  000005                     i2memset@n:
  1232                           	opt stack 0
  1233                           
  1234                           ; 2 bytes @ 0x4
  1235  000005                     	ds	1
  1236  000006                     set_or_clear_comm_feature_callback@idle_setting:
  1237                           	opt stack 0
  1238                           
  1239                           ; 1 bytes @ 0x5
  1240  000006                     	ds	1
  1241  000007                     set_or_clear_comm_feature_callback@data_multiplexed_state:
  1242                           	opt stack 0
  1243  000007                     usb_start_receive_ep0_data_stage@context:
  1244                           	opt stack 0
  1245  000007                     app_get_encapsulated_response@context:
  1246                           	opt stack 0
  1247  000007                     i2memcpy@d:
  1248                           	opt stack 0
  1249  000007                     i2memset@p:
  1250                           	opt stack 0
  1251                           
  1252                           ; 2 bytes @ 0x6
  1253  000007                     	ds	2
  1254  000009                     ??i2_usb_init:
  1255  000009                     i2memcpy@s:
  1256                           	opt stack 0
  1257                           
  1258                           ; 2 bytes @ 0x8
  1259  000009                     	ds	2
  1260  00000B                     ??_handle_ep0_out:
  1261  00000B                     start_control_return@ptr:
  1262                           	opt stack 0
  1263  00000B                     _handle_ep0_in$626:
  1264                           	opt stack 0
  1265  00000B                     i2usb_init@ep:
  1266                           	opt stack 0
  1267                           
  1268                           ; 2 bytes @ 0xA
  1269  00000B                     	ds	2
  1270  00000D                     handle_ep0_in@bytes_to_send:
  1271                           	opt stack 0
  1272  00000D                     i2usb_init@i:
  1273                           	opt stack 0
  1274  00000D                     start_control_return@len:
  1275                           	opt stack 0
  1276  00000D                     _handle_ep0_out$622:
  1277                           	opt stack 0
  1278                           
  1279                           ; 2 bytes @ 0xC
  1280  00000D                     	ds	2
  1281  00000F                     handle_ep0_out@pkt_len:
  1282                           	opt stack 0
  1283  00000F                     start_control_return@bytes_asked_for:
  1284                           	opt stack 0
  1285                           
  1286                           ; 2 bytes @ 0xE
  1287  00000F                     	ds	1
  1288  000010                     handle_ep0_out@bytes_to_copy:
  1289                           	opt stack 0
  1290                           
  1291                           ; 1 bytes @ 0xF
  1292  000010                     	ds	1
  1293  000011                     ??_start_control_return:
  1294                           
  1295                           ; 0 bytes @ 0x10
  1296  000011                     	ds	2
  1297  000013                     _start_control_return$547:
  1298                           	opt stack 0
  1299                           
  1300                           ; 2 bytes @ 0x12
  1301  000013                     	ds	2
  1302  000015                     _start_control_return$548:
  1303                           	opt stack 0
  1304                           
  1305                           ; 2 bytes @ 0x14
  1306  000015                     	ds	2
  1307  000017                     _start_control_return$549:
  1308                           	opt stack 0
  1309                           
  1310                           ; 2 bytes @ 0x16
  1311  000017                     	ds	2
  1312  000019                     start_control_return@bytes_to_send:
  1313                           	opt stack 0
  1314                           
  1315                           ; 1 bytes @ 0x18
  1316  000019                     	ds	1
  1317  00001A                     ??_handle_standard_control_request:
  1318  00001A                     usb_send_data_stage@buffer:
  1319                           	opt stack 0
  1320                           
  1321                           ; 2 bytes @ 0x19
  1322  00001A                     	ds	2
  1323  00001C                     _handle_standard_control_request$591:
  1324                           	opt stack 0
  1325  00001C                     usb_send_data_stage@len:
  1326                           	opt stack 0
  1327                           
  1328                           ; 2 bytes @ 0x1B
  1329  00001C                     	ds	2
  1330  00001E                     handle_standard_control_request@res_592:
  1331                           	opt stack 0
  1332  00001E                     usb_send_data_stage@callback:
  1333                           	opt stack 0
  1334                           
  1335                           ; 2 bytes @ 0x1D
  1336  00001E                     	ds	1
  1337  00001F                     handle_standard_control_request@ret_590:
  1338                           	opt stack 0
  1339                           
  1340                           ; 2 bytes @ 0x1E
  1341  00001F                     	ds	1
  1342  000020                     usb_send_data_stage@context:
  1343                           	opt stack 0
  1344                           
  1345                           ; 2 bytes @ 0x1F
  1346  000020                     	ds	1
  1347  000021                     handle_standard_control_request@ret:
  1348                           	opt stack 0
  1349                           
  1350                           ; 2 bytes @ 0x20
  1351  000021                     	ds	1
  1352  000022                     process_cdc_setup_request@setup:
  1353                           	opt stack 0
  1354                           
  1355                           ; 2 bytes @ 0x21
  1356  000022                     	ds	1
  1357  000023                     handle_standard_control_request@res:
  1358                           	opt stack 0
  1359                           
  1360                           ; 1 bytes @ 0x22
  1361  000023                     	ds	1
  1362  000024                     ??_process_cdc_setup_request:
  1363  000024                     handle_standard_control_request@stall:
  1364                           	opt stack 0
  1365                           
  1366                           ; 1 bytes @ 0x23
  1367  000024                     	ds	1
  1368  000025                     handle_standard_control_request@desc_581:
  1369                           	opt stack 0
  1370                           
  1371                           ; 2 bytes @ 0x24
  1372  000025                     	ds	2
  1373  000027                     handle_standard_control_request@desc:
  1374                           	opt stack 0
  1375                           
  1376                           ; 2 bytes @ 0x26
  1377  000027                     	ds	1
  1378  000028                     _process_cdc_setup_request$851:
  1379                           	opt stack 0
  1380                           
  1381                           ; 2 bytes @ 0x27
  1382  000028                     	ds	1
  1383  000029                     handle_standard_control_request@len:
  1384                           	opt stack 0
  1385                           
  1386                           ; 2 bytes @ 0x28
  1387  000029                     	ds	1
  1388  00002A                     _process_cdc_setup_request$856:
  1389                           	opt stack 0
  1390                           
  1391                           ; 2 bytes @ 0x29
  1392  00002A                     	ds	1
  1393  00002B                     handle_standard_control_request@len_580:
  1394                           	opt stack 0
  1395                           
  1396                           ; 2 bytes @ 0x2A
  1397  00002B                     	ds	1
  1398  00002C                     _process_cdc_setup_request$857:
  1399                           	opt stack 0
  1400                           
  1401                           ; 2 bytes @ 0x2B
  1402  00002C                     	ds	1
  1403  00002D                     handle_standard_control_request@req:
  1404                           	opt stack 0
  1405                           
  1406                           ; 1 bytes @ 0x2C
  1407  00002D                     	ds	1
  1408  00002E                     handle_standard_control_request@ep_num:
  1409                           	opt stack 0
  1410  00002E                     _process_cdc_setup_request$859:
  1411                           	opt stack 0
  1412                           
  1413                           ; 2 bytes @ 0x2D
  1414  00002E                     	ds	1
  1415  00002F                     handle_standard_control_request@flags:
  1416                           	opt stack 0
  1417                           
  1418                           ; 1 bytes @ 0x2E
  1419  00002F                     	ds	1
  1420  000030                     handle_standard_control_request@ep_dir:
  1421                           	opt stack 0
  1422  000030                     process_cdc_setup_request@res:
  1423                           	opt stack 0
  1424                           
  1425                           ; 1 bytes @ 0x2F
  1426  000030                     	ds	1
  1427  000031                     handle_standard_control_request@ret_593:
  1428                           	opt stack 0
  1429  000031                     process_cdc_setup_request@res_855:
  1430                           	opt stack 0
  1431                           
  1432                           ; 1 bytes @ 0x30
  1433  000031                     	ds	1
  1434  000032                     handle_standard_control_request@descriptor:
  1435                           	opt stack 0
  1436  000032                     process_cdc_setup_request@res_858:
  1437                           	opt stack 0
  1438                           
  1439                           ; 1 bytes @ 0x31
  1440  000032                     	ds	1
  1441  000033                     handle_standard_control_request@descriptor_index:
  1442                           	opt stack 0
  1443  000033                     process_cdc_setup_request@res_860:
  1444                           	opt stack 0
  1445                           
  1446                           ; 1 bytes @ 0x32
  1447  000033                     	ds	1
  1448  000034                     process_cdc_setup_request@dtr:
  1449                           	opt stack 0
  1450  000034                     handle_standard_control_request@desc_578:
  1451                           	opt stack 0
  1452                           
  1453                           ; 2 bytes @ 0x33
  1454  000034                     	ds	1
  1455  000035                     process_cdc_setup_request@rts:
  1456                           	opt stack 0
  1457                           
  1458                           ; 1 bytes @ 0x34
  1459  000035                     	ds	1
  1460  000036                     handle_standard_control_request@ep_num_595:
  1461                           	opt stack 0
  1462  000036                     process_cdc_setup_request@res_863:
  1463                           	opt stack 0
  1464                           
  1465                           ; 1 bytes @ 0x35
  1466  000036                     	ds	1
  1467  000037                     handle_standard_control_request@setup:
  1468                           	opt stack 0
  1469  000037                     process_cdc_setup_request@response:
  1470                           	opt stack 0
  1471                           
  1472                           ; 2 bytes @ 0x36
  1473  000037                     	ds	2
  1474  000039                     process_cdc_setup_request@callback:
  1475                           	opt stack 0
  1476                           
  1477                           ; 2 bytes @ 0x38
  1478  000039                     	ds	2
  1479  00003B                     process_cdc_setup_request@context:
  1480                           	opt stack 0
  1481                           
  1482                           ; 2 bytes @ 0x3A
  1483  00003B                     	ds	2
  1484  00003D                     process_cdc_setup_request@idle_setting:
  1485                           	opt stack 0
  1486                           
  1487                           ; 1 bytes @ 0x3C
  1488  00003D                     	ds	1
  1489  00003E                     process_cdc_setup_request@data_multiplexed_state:
  1490                           	opt stack 0
  1491                           
  1492                           ; 1 bytes @ 0x3D
  1493  00003E                     	ds	1
  1494  00003F                     process_cdc_setup_request@len:
  1495                           	opt stack 0
  1496                           
  1497                           ; 2 bytes @ 0x3E
  1498  00003F                     	ds	2
  1499  000041                     process_cdc_setup_request@interface:
  1500                           	opt stack 0
  1501                           
  1502                           ; 1 bytes @ 0x40
  1503  000041                     	ds	1
  1504  000042                     app_unknown_setup_request_callback@setup:
  1505                           	opt stack 0
  1506                           
  1507                           ; 2 bytes @ 0x41
  1508  000042                     	ds	2
  1509  000044                     handle_ep0_setup@res:
  1510                           	opt stack 0
  1511                           
  1512                           ; 1 bytes @ 0x43
  1513  000044                     	ds	1
  1514  000045                     handle_ep0_setup@setup:
  1515                           	opt stack 0
  1516                           
  1517                           ; 2 bytes @ 0x44
  1518  000045                     	ds	2
  1519  000047                     ??_usb_service:
  1520                           
  1521                           ; 0 bytes @ 0x46
  1522  000047                     	ds	1
  1523  000048                     usb_service@ep:
  1524                           	opt stack 0
  1525                           
  1526                           ; 2 bytes @ 0x47
  1527  000048                     	ds	2
  1528  00004A                     usb_service@i:
  1529                           	opt stack 0
  1530                           
  1531                           ; 2 bytes @ 0x49
  1532  00004A                     	ds	2
  1533  00004C                     usb_service@pid:
  1534                           	opt stack 0
  1535                           
  1536                           ; 1 bytes @ 0x4B
  1537  00004C                     	ds	1
  1538  00004D                     ??_isr:
  1539                           
  1540                           ; 0 bytes @ 0x4C
  1541  00004D                     	ds	14
  1542                           tblptru	equ	0xFF8
  1543                           tblptrh	equ	0xFF7
  1544                           tblptrl	equ	0xFF6
  1545                           tablat	equ	0xFF5
  1546                           postinc0	equ	0xFEE
  1547                           wreg	equ	0xFE8
  1548                           postdec1	equ	0xFE5
  1549                           fsr1l	equ	0xFE1
  1550                           
  1551 ;;
  1552 ;;Main: autosize = 0, tempsize = 1, incstack = 0, save=0
  1553 ;;
  1554 ;; *************** function _main *****************
  1555 ;; Defined at:
  1556 ;;		line 42 in file "main.c"
  1557 ;; Parameters:    Size  Location     Type
  1558 ;;		None
  1559 ;; Auto vars:     Size  Location     Type
  1560 ;;  n               2  142[BANK0 ] PTR struct cdc_serial_st
  1561 ;;		 -> NULL(0), ep_buffers(155), 
  1562 ;;  out_buf         2  140[BANK0 ] PTR const unsigned char 
  1563 ;;		 -> NULL(0), ep_buffers(155), 
  1564 ;;  out_buf_len     2  136[BANK0 ] unsigned int 
  1565 ;;  i               2  131[BANK0 ] int 
  1566 ;;  i               2  138[BANK0 ] int 
  1567 ;;  buf             2  134[BANK0 ] PTR unsigned char 
  1568 ;;		 -> NULL(0), ep_buffers(155), 
  1569 ;;  Franklin_Got  100   27[BANK0 ] const unsigned short [50
  1570 ;;  send            1  133[BANK0 ] unsigned char 
  1571 ;;  loopback        1  130[BANK0 ] unsigned char 
  1572 ;;  char_to_send    1  129[BANK0 ] unsigned char 
  1573 ;; Return value:  Size  Location     Type
  1574 ;;                  2  479[None  ] int 
  1575 ;; Registers used:
  1576 ;;		wreg, fsr1l, fsr1h, fsr2l, fsr2h, status,2, status,0, tblptrl, tblptrh, tblptru, prodl, prodh, cstack
  1577 ;; Tracked objects:
  1578 ;;		On entry : 0/0
  1579 ;;		On exit  : 0/0
  1580 ;;		Unchanged: 0/0
  1581 ;; Data sizes:     COMRAM   BANK0   BANK1   BANK2   BANK3   BANK4   BANK5   BANK6   BANK7
  1582 ;;      Params:         0       0       0       0       0       0       0       0       0
  1583 ;;      Locals:         0     117       0       0       0       0       0       0       0
  1584 ;;      Temps:          0       1       0       0       0       0       0       0       0
  1585 ;;      Totals:         0     118       0       0       0       0       0       0       0
  1586 ;;Total ram usage:      118 bytes
  1587 ;; Hardware stack levels required when called:   12
  1588 ;; This function calls:
  1589 ;;		_measure_data
  1590 ;;		_memcpy
  1591 ;;		_send_string_sync
  1592 ;;		_sensor_init
  1593 ;;		_sprintf
  1594 ;;		_strcpy
  1595 ;;		_timers_init
  1596 ;;		_usb_arm_out_endpoint
  1597 ;;		_usb_get_configuration
  1598 ;;		_usb_get_in_buffer
  1599 ;;		_usb_get_out_buffer
  1600 ;;		_usb_in_endpoint_busy
  1601 ;;		_usb_in_endpoint_halted
  1602 ;;		_usb_init
  1603 ;;		_usb_out_endpoint_halted
  1604 ;;		_usb_out_endpoint_has_data
  1605 ;;		_usb_send_in_buffer
  1606 ;; This function is called by:
  1607 ;;		Startup code after reset
  1608 ;; This function uses a non-reentrant model
  1609 ;;
  1610                           
  1611                           	psect	text0
  1612  002ED2                     __ptext0:
  1613                           	opt stack 0
  1614  002ED2                     _main:
  1615                           	opt stack 19
  1616                           
  1617                           ;main.c: 45: INTCONbits.PEIE = 1;
  1618                           
  1619                           ;incstack = 0
  1620  002ED2  8CF2               	bsf	intcon,6,c	;volatile
  1621                           
  1622                           ;main.c: 46: INTCONbits.GIE = 1;
  1623  002ED4  8EF2               	bsf	intcon,7,c	;volatile
  1624                           
  1625                           ;main.c: 49: usb_init();
  1626  002ED6  ECBD  F019         	call	_usb_init	;wreg free
  1627                           
  1628                           ;main.c: 50: timers_init();
  1629  002EDA  ECC5  F023         	call	_timers_init	;wreg free
  1630                           
  1631                           ;main.c: 51: sensor_init();
  1632  002EDE  ECF7  F024         	call	_sensor_init	;wreg free
  1633                           
  1634                           ;main.c: 53: uint8_t char_to_send = 'A';
  1635  002EE2  0E41               	movlw	65
  1636  002EE4  0100               	movlb	0	; () banked
  1637  002EE6  6FE1               	movwf	main@char_to_send& (0+255),b
  1638                           
  1639                           ; BSR set to: 0
  1640                           ;main.c: 54: bool send = 1;
  1641  002EE8  0E01               	movlw	1
  1642  002EEA  0100               	movlb	0	; () banked
  1643  002EEC  6FE5               	movwf	main@send& (0+255),b
  1644                           
  1645                           ; BSR set to: 0
  1646                           ;main.c: 55: bool loopback = 0;
  1647  002EEE  0E00               	movlw	0
  1648  002EF0  0100               	movlb	0	; () banked
  1649  002EF2  6FE2               	movwf	main@loopback& (0+255),b
  1650                           
  1651                           ; BSR set to: 0
  1652                           ;main.c: 57: const unsigned short Franklin_Gothic_Medium5x7[] = {
  1653                           ;main.c: 58: 0x3E, 0x41, 0x41, 0x3E, 0x00,
  1654                           ;main.c: 59: 0x44, 0x42, 0x7F, 0x40, 0x40,
  1655                           ;main.c: 60: 0x46, 0x61, 0x51, 0x4E, 0x00,
  1656                           ;main.c: 61: 0x22, 0x49, 0x49, 0x36, 0x00,
  1657                           ;main.c: 62: 0x18, 0x14, 0x12, 0x7F, 0x10,
  1658                           ;main.c: 63: 0x2F, 0x45, 0x45, 0x39, 0x00,
  1659                           ;main.c: 64: 0x3E, 0x49, 0x49, 0x32, 0x00,
  1660                           ;main.c: 65: 0x01, 0x71, 0x0D, 0x03, 0x00,
  1661                           ;main.c: 66: 0x36, 0x49, 0x49, 0x36, 0x00,
  1662                           ;main.c: 67: 0x26, 0x49, 0x49, 0x3E, 0x00
  1663                           ;main.c: 68: };
  1664  002EF4  0E91               	movlw	low main@F7738
  1665  002EF6  6EF6               	movwf	tblptrl,c
  1666  002EF8                     	if	1	;There is more than 1 active tblptr byte
  1667  002EF8  0E20               	movlw	high main@F7738
  1668  002EFA  6EF7               	movwf	tblptrh,c
  1669  002EFC                     	endif
  1670  002EFC                     	if	0	;There are less than 3 active tblptr bytes
  1671  002EFC                     	endif
  1672  002EFC  EE20  F07B         	lfsr	2,main@Franklin_Gothic_Medium5x7
  1673  002F00  0E63               	movlw	99
  1674  002F02                     u3930:
  1675  002F02  0009               	tblrd		*+
  1676  002F04  CFF5 FFDE          	movff	tablat,postinc2
  1677  002F08  06E8               	decf	wreg,f,c
  1678  002F0A  E2FB               	bc	u3930
  1679  002F0C  D000               	goto	l3966
  1680  002F0E                     l3966:
  1681                           
  1682                           ;main.c: 80: if ((usb_get_configuration() != 0) &&
  1683                           ;main.c: 81: !usb_in_endpoint_halted(2) &&
  1684                           ;main.c: 82: !usb_in_endpoint_busy(2) && send && sendDataToPC) {
  1685  002F0E  ECFB  F024         	call	_usb_get_configuration	;wreg free
  1686  002F12  0900               	iorlw	0
  1687  002F14  B4D8               	btfsc	status,2,c
  1688  002F16  D09C               	goto	l4014
  1689  002F18  0E02               	movlw	2
  1690  002F1A  EC6F  F024         	call	_usb_in_endpoint_halted
  1691  002F1E  0900               	iorlw	0
  1692  002F20  A4D8               	btfss	status,2,c
  1693  002F22  D096               	goto	l4014
  1694  002F24  0E02               	movlw	2
  1695  002F26  ECC3  F022         	call	_usb_in_endpoint_busy
  1696  002F2A  0900               	iorlw	0
  1697  002F2C  A4D8               	btfss	status,2,c
  1698  002F2E  D090               	goto	l4014
  1699  002F30  0100               	movlb	0	; () banked
  1700  002F32  51E5               	movf	main@send& (0+255),w,b
  1701  002F34  0100               	movlb	0	; () banked
  1702  002F36  B4D8               	btfsc	status,2,c
  1703  002F38  D08B               	goto	l4014
  1704                           
  1705                           ; BSR set to: 0
  1706  002F3A  0100               	movlb	0	; () banked
  1707  002F3C  51F8               	movf	_sendDataToPC& (0+255),w,b
  1708  002F3E  B4D8               	btfsc	status,2,c
  1709  002F40  D087               	goto	l4014
  1710                           
  1711                           ; BSR set to: 0
  1712                           ;main.c: 84: int i;
  1713                           ;main.c: 85: unsigned char *buf = usb_get_in_buffer(2);
  1714  002F42  0E02               	movlw	2
  1715  002F44  EC1F  F024         	call	_usb_get_in_buffer
  1716  002F48  C060  F0E6         	movff	?_usb_get_in_buffer,main@buf
  1717  002F4C  C061  F0E7         	movff	?_usb_get_in_buffer+1,main@buf+1
  1718                           
  1719                           ;main.c: 87: for (i = 0; i < 16; i++) {
  1720  002F50  0E00               	movlw	0
  1721  002F52  0100               	movlb	0	; () banked
  1722  002F54  6FEB               	movwf	(main@i+1)& (0+255),b
  1723  002F56  0E00               	movlw	0
  1724  002F58  6FEA               	movwf	main@i& (0+255),b
  1725                           
  1726                           ; BSR set to: 0
  1727  002F5A  0100               	movlb	0	; () banked
  1728  002F5C  BFEB               	btfsc	(main@i+1)& (0+255),7,b
  1729  002F5E  D00A               	goto	l3984
  1730  002F60  0100               	movlb	0	; () banked
  1731  002F62  51EB               	movf	(main@i+1)& (0+255),w,b
  1732  002F64  E122               	bnz	l485
  1733  002F66  0E10               	movlw	16
  1734  002F68  0100               	movlb	0	; () banked
  1735  002F6A  5DEA               	subwf	main@i& (0+255),w,b
  1736  002F6C  B0D8               	btfsc	status,0,c
  1737  002F6E  D01D               	goto	l485
  1738  002F70  D001               	goto	l3984
  1739                           
  1740                           ; BSR set to: 0
  1741  002F72  D01B               	goto	l485
  1742  002F74                     l3984:
  1743                           
  1744                           ; BSR set to: 0
  1745                           ;main.c: 88: buf[i] = char_to_send++;
  1746  002F74  0100               	movlb	0	; () banked
  1747  002F76  51EA               	movf	main@i& (0+255),w,b
  1748  002F78  0100               	movlb	0	; () banked
  1749  002F7A  25E6               	addwf	main@buf& (0+255),w,b
  1750  002F7C  6ED9               	movwf	fsr2l,c
  1751  002F7E  0100               	movlb	0	; () banked
  1752  002F80  51EB               	movf	(main@i+1)& (0+255),w,b
  1753  002F82  0100               	movlb	0	; () banked
  1754  002F84  21E7               	addwfc	(main@buf+1)& (0+255),w,b
  1755  002F86  6EDA               	movwf	fsr2h,c
  1756  002F88  C0E1  FFDF         	movff	main@char_to_send,indf2
  1757                           
  1758                           ; BSR set to: 0
  1759  002F8C  0100               	movlb	0	; () banked
  1760  002F8E  2BE1               	incf	main@char_to_send& (0+255),f,b
  1761                           
  1762                           ; BSR set to: 0
  1763                           ;main.c: 90: char_to_send = 'A';
  1764  002F90  0E41               	movlw	65
  1765  002F92  0100               	movlb	0	; () banked
  1766  002F94  6FE1               	movwf	main@char_to_send& (0+255),b
  1767                           
  1768                           ; BSR set to: 0
  1769  002F96  0100               	movlb	0	; () banked
  1770  002F98  4BEA               	infsnz	main@i& (0+255),f,b
  1771  002F9A  2BEB               	incf	(main@i+1)& (0+255),f,b
  1772                           
  1773                           ; BSR set to: 0
  1774  002F9C  0100               	movlb	0	; () banked
  1775  002F9E  BFEB               	btfsc	(main@i+1)& (0+255),7,b
  1776  002FA0  D7E9               	goto	l3984
  1777  002FA2  0100               	movlb	0	; () banked
  1778  002FA4  51EB               	movf	(main@i+1)& (0+255),w,b
  1779  002FA6  E101               	bnz	u4000
  1780  002FA8  D7DE               	goto	L1
  1781  002FAA                     u4000:
  1782  002FAA                     l485:
  1783                           
  1784                           ; BSR set to: 0
  1785                           ;main.c: 91: }
  1786                           ;main.c: 92: strcpy(buf, (PORTBbits.RB0 ) ?"--":"..");
  1787  002FAA  B081               	btfsc	3969,0,c	;volatile
  1788  002FAC  D005               	goto	l3996
  1789                           
  1790                           ; BSR set to: 0
  1791  002FAE  0E25               	movlw	low STR_2
  1792  002FB0  0100               	movlb	0	; () banked
  1793  002FB2  6FDF               	movwf	_main$1191& (0+255),b
  1794  002FB4  0E23               	movlw	high STR_2
  1795  002FB6  D004               	goto	L2
  1796  002FB8                     l3996:
  1797                           
  1798                           ; BSR set to: 0
  1799  002FB8  0E22               	movlw	low STR_1
  1800  002FBA  0100               	movlb	0	; () banked
  1801  002FBC  6FDF               	movwf	_main$1191& (0+255),b
  1802  002FBE  0E23               	movlw	high STR_1
  1803  002FC0                     L2:
  1804  002FC0  0100               	movlb	0	; () banked
  1805  002FC2  6FE0               	movwf	(_main$1191+1)& (0+255),b
  1806  002FC4  D000               	goto	l3998
  1807  002FC6                     l3998:
  1808                           
  1809                           ; BSR set to: 0
  1810  002FC6  C0E6  F060         	movff	main@buf,strcpy@to
  1811  002FCA  C0E7  F061         	movff	main@buf+1,strcpy@to+1
  1812  002FCE  C0DF  F062         	movff	_main$1191,strcpy@from
  1813  002FD2  C0E0  F063         	movff	_main$1191+1,strcpy@from+1
  1814  002FD6  EC8F  F023         	call	_strcpy	;wreg free
  1815                           
  1816                           ;main.c: 93: sprintf(&buf[0], "%d", measure_data());
  1817  002FDA  C0E6  F06C         	movff	main@buf,sprintf@sp
  1818  002FDE  C0E7  F06D         	movff	main@buf+1,sprintf@sp+1
  1819  002FE2  0E28               	movlw	low STR_3
  1820  002FE4  0100               	movlb	0	; () banked
  1821  002FE6  6F6E               	movwf	sprintf@f& (0+255),b
  1822  002FE8  0E23               	movlw	high STR_3
  1823  002FEA  0100               	movlb	0	; () banked
  1824  002FEC  6F6F               	movwf	(sprintf@f+1)& (0+255),b
  1825  002FEE  ECF2  F024         	call	_measure_data	;wreg free
  1826  002FF2  C060  F070         	movff	?_measure_data,?_sprintf+4
  1827  002FF6  C061  F071         	movff	?_measure_data+1,?_sprintf+5
  1828  002FFA  EC7E  F01C         	call	_sprintf	;wreg free
  1829                           
  1830                           ;main.c: 96: sendDataToPC = 0;
  1831  002FFE  0E00               	movlw	0
  1832  003000  0100               	movlb	0	; () banked
  1833  003002  6FF8               	movwf	_sendDataToPC& (0+255),b
  1834                           
  1835                           ; BSR set to: 0
  1836                           ;main.c: 101: buf[i++] = '\r';
  1837  003004  0100               	movlb	0	; () banked
  1838  003006  51EA               	movf	main@i& (0+255),w,b
  1839  003008  0100               	movlb	0	; () banked
  1840  00300A  25E6               	addwf	main@buf& (0+255),w,b
  1841  00300C  6ED9               	movwf	fsr2l,c
  1842  00300E  0100               	movlb	0	; () banked
  1843  003010  51EB               	movf	(main@i+1)& (0+255),w,b
  1844  003012  0100               	movlb	0	; () banked
  1845  003014  21E7               	addwfc	(main@buf+1)& (0+255),w,b
  1846  003016  6EDA               	movwf	fsr2h,c
  1847  003018  0E0D               	movlw	13
  1848  00301A  6EDF               	movwf	indf2,c
  1849                           
  1850                           ; BSR set to: 0
  1851  00301C  0100               	movlb	0	; () banked
  1852  00301E  4BEA               	infsnz	main@i& (0+255),f,b
  1853  003020  2BEB               	incf	(main@i+1)& (0+255),f,b
  1854                           
  1855                           ; BSR set to: 0
  1856                           ;main.c: 102: buf[i++] = '\n';
  1857  003022  0100               	movlb	0	; () banked
  1858  003024  51EA               	movf	main@i& (0+255),w,b
  1859  003026  0100               	movlb	0	; () banked
  1860  003028  25E6               	addwf	main@buf& (0+255),w,b
  1861  00302A  6ED9               	movwf	fsr2l,c
  1862  00302C  0100               	movlb	0	; () banked
  1863  00302E  51EB               	movf	(main@i+1)& (0+255),w,b
  1864  003030  0100               	movlb	0	; () banked
  1865  003032  21E7               	addwfc	(main@buf+1)& (0+255),w,b
  1866  003034  6EDA               	movwf	fsr2h,c
  1867  003036  0E0A               	movlw	10
  1868  003038  6EDF               	movwf	indf2,c
  1869                           
  1870                           ; BSR set to: 0
  1871  00303A  0100               	movlb	0	; () banked
  1872  00303C  4BEA               	infsnz	main@i& (0+255),f,b
  1873  00303E  2BEB               	incf	(main@i+1)& (0+255),f,b
  1874                           
  1875                           ; BSR set to: 0
  1876                           ;main.c: 103: usb_send_in_buffer(2, i);
  1877  003040  C0EA  F066         	movff	main@i,usb_send_in_buffer@len
  1878  003044  C0EB  F067         	movff	main@i+1,usb_send_in_buffer@len+1
  1879  003048  0E02               	movlw	2
  1880  00304A  EC0E  F01E         	call	_usb_send_in_buffer
  1881  00304E  D000               	goto	l4014
  1882  003050                     l4014:
  1883                           
  1884                           ;main.c: 104: }
  1885                           ;main.c: 117: if ((usb_get_configuration() != 0) &&
  1886                           ;main.c: 118: !usb_out_endpoint_halted(2) &&
  1887                           ;main.c: 119: usb_out_endpoint_has_data(2)) {
  1888  003050  ECFB  F024         	call	_usb_get_configuration	;wreg free
  1889  003054  0900               	iorlw	0
  1890  003056  B4D8               	btfsc	status,2,c
  1891  003058  D75A               	goto	l3966
  1892  00305A  0E02               	movlw	2
  1893  00305C  EC5C  F024         	call	_usb_out_endpoint_halted
  1894  003060  0900               	iorlw	0
  1895  003062  A4D8               	btfss	status,2,c
  1896  003064  D754               	goto	l3966
  1897  003066  0E02               	movlw	2
  1898  003068  EC49  F024         	call	_usb_out_endpoint_has_data
  1899  00306C  0900               	iorlw	0
  1900  00306E  B4D8               	btfsc	status,2,c
  1901  003070  D74E               	goto	l3966
  1902                           
  1903                           ;main.c: 120: const unsigned char *out_buf;
  1904                           ;main.c: 121: size_t out_buf_len;
  1905                           ;main.c: 122: int i;
  1906                           ;main.c: 125: out_buf_len = usb_get_out_buffer(2, &out_buf);
  1907  003072  0EEC               	movlw	low main@out_buf
  1908  003074  0100               	movlb	0	; () banked
  1909  003076  6F60               	movwf	usb_get_out_buffer@buf& (0+255),b
  1910  003078  0E00               	movlw	high main@out_buf
  1911  00307A  0100               	movlb	0	; () banked
  1912  00307C  6F61               	movwf	(usb_get_out_buffer@buf+1)& (0+255),b
  1913  00307E  0E02               	movlw	2
  1914  003080  EC12  F023         	call	_usb_get_out_buffer
  1915  003084  0100               	movlb	0	; () banked
  1916  003086  6F7A               	movwf	??_main& (0+255),b
  1917  003088  0100               	movlb	0	; () banked
  1918  00308A  517A               	movf	??_main& (0+255),w,b
  1919  00308C  0100               	movlb	0	; () banked
  1920  00308E  6FE8               	movwf	main@out_buf_len& (0+255),b
  1921  003090  6BE9               	clrf	(main@out_buf_len+1)& (0+255),b
  1922                           
  1923                           ; BSR set to: 0
  1924                           ;main.c: 126: if (out_buf_len <= 0)
  1925  003092  0100               	movlb	0	; () banked
  1926  003094  51E8               	movf	main@out_buf_len& (0+255),w,b
  1927  003096  0100               	movlb	0	; () banked
  1928  003098  11E9               	iorwf	(main@out_buf_len+1)& (0+255),w,b
  1929  00309A  B4D8               	btfsc	status,2,c
  1930  00309C  D168               	goto	l4114
  1931  00309E  D001               	goto	l4026
  1932                           
  1933                           ; BSR set to: 0
  1934                           ;main.c: 127: goto empty;
  1935  0030A0  D166               	goto	l4114
  1936  0030A2                     l4026:
  1937                           
  1938                           ; BSR set to: 0
  1939                           ;main.c: 129: if (send) {
  1940  0030A2  0100               	movlb	0	; () banked
  1941  0030A4  51E5               	movf	main@send& (0+255),w,b
  1942  0030A6  0100               	movlb	0	; () banked
  1943  0030A8  B4D8               	btfsc	status,2,c
  1944  0030AA  D00D               	goto	l4032
  1945                           
  1946                           ; BSR set to: 0
  1947                           ;main.c: 131: send = 0;
  1948  0030AC  0E00               	movlw	0
  1949  0030AE  0100               	movlb	0	; () banked
  1950  0030B0  6FE5               	movwf	main@send& (0+255),b
  1951                           
  1952                           ; BSR set to: 0
  1953                           ;main.c: 132: send_string_sync(2, "Data send off ('h' for help)\r\n");
  1954  0030B2  0EEF               	movlw	low STR_4
  1955  0030B4  0100               	movlb	0	; () banked
  1956  0030B6  6F6E               	movwf	send_string_sync@str& (0+255),b
  1957  0030B8  0E22               	movlw	high STR_4
  1958  0030BA  0100               	movlb	0	; () banked
  1959  0030BC  6F6F               	movwf	(send_string_sync@str+1)& (0+255),b
  1960  0030BE  0E02               	movlw	2
  1961  0030C0  EC98  F022         	call	_send_string_sync
  1962                           
  1963                           ;main.c: 133: }
  1964  0030C4  D154               	goto	l4114
  1965  0030C6                     l4032:
  1966                           
  1967                           ;main.c: 134: else if (loopback) {
  1968  0030C6  0100               	movlb	0	; () banked
  1969  0030C8  51E2               	movf	main@loopback& (0+255),w,b
  1970  0030CA  0100               	movlb	0	; () banked
  1971  0030CC  A4D8               	btfss	status,2,c
  1972  0030CE  D002               	goto	l4036
  1973  0030D0  D068               	goto	l4062
  1974                           
  1975                           ; BSR set to: 0
  1976                           
  1977                           ; BSR set to: 0
  1978                           ;main.c: 138: while (usb_in_endpoint_busy(2))
  1979  0030D2  D000               	goto	l4036
  1980  0030D4                     l4036:
  1981  0030D4  0E02               	movlw	2
  1982  0030D6  ECC3  F022         	call	_usb_in_endpoint_busy
  1983  0030DA  0900               	iorlw	0
  1984  0030DC  A4D8               	btfss	status,2,c
  1985  0030DE  D7FA               	goto	l4036
  1986                           
  1987                           ;main.c: 143: memcpy(usb_get_in_buffer(2), out_buf, out_buf_len);
  1988  0030E0  0E02               	movlw	2
  1989  0030E2  EC1F  F024         	call	_usb_get_in_buffer
  1990  0030E6  C060  F063         	movff	?_usb_get_in_buffer,memcpy@d1
  1991  0030EA  C061  F064         	movff	?_usb_get_in_buffer+1,memcpy@d1+1
  1992  0030EE  C0EC  F065         	movff	main@out_buf,memcpy@s1
  1993  0030F2  C0ED  F066         	movff	main@out_buf+1,memcpy@s1+1
  1994  0030F6  C0E8  F067         	movff	main@out_buf_len,memcpy@n
  1995  0030FA  C0E9  F068         	movff	main@out_buf_len+1,memcpy@n+1
  1996  0030FE  EC0F  F022         	call	_memcpy	;wreg free
  1997                           
  1998                           ;main.c: 144: usb_send_in_buffer(2, out_buf_len);
  1999  003102  C0E8  F066         	movff	main@out_buf_len,usb_send_in_buffer@len
  2000  003106  C0E9  F067         	movff	main@out_buf_len+1,usb_send_in_buffer@len+1
  2001  00310A  0E02               	movlw	2
  2002  00310C  EC0E  F01E         	call	_usb_send_in_buffer
  2003                           
  2004                           ;main.c: 152: if (out_buf_len == 64) {
  2005  003110  0E40               	movlw	64
  2006  003112  0100               	movlb	0	; () banked
  2007  003114  19E8               	xorwf	main@out_buf_len& (0+255),w,b
  2008  003116  0100               	movlb	0	; () banked
  2009  003118  11E9               	iorwf	(main@out_buf_len+1)& (0+255),w,b
  2010  00311A  B4D8               	btfsc	status,2,c
  2011  00311C  D002               	goto	l4046
  2012  00311E  D010               	goto	l4050
  2013                           
  2014                           ; BSR set to: 0
  2015                           
  2016                           ; BSR set to: 0
  2017                           ;main.c: 154: while (usb_in_endpoint_busy(2))
  2018  003120  D000               	goto	l4046
  2019  003122                     l4046:
  2020  003122  0E02               	movlw	2
  2021  003124  ECC3  F022         	call	_usb_in_endpoint_busy
  2022  003128  0900               	iorlw	0
  2023  00312A  A4D8               	btfss	status,2,c
  2024  00312C  D7FA               	goto	l4046
  2025                           
  2026                           ;main.c: 156: usb_send_in_buffer(2, 0);
  2027  00312E  0E00               	movlw	0
  2028  003130  0100               	movlb	0	; () banked
  2029  003132  6F67               	movwf	(usb_send_in_buffer@len+1)& (0+255),b
  2030  003134  0E00               	movlw	0
  2031  003136  6F66               	movwf	usb_send_in_buffer@len& (0+255),b
  2032  003138  0E02               	movlw	2
  2033  00313A  EC0E  F01E         	call	_usb_send_in_buffer
  2034  00313E  D000               	goto	l4050
  2035  003140                     l4050:
  2036                           
  2037                           ;main.c: 157: }
  2038                           ;main.c: 160: for (i = 0; i < out_buf_len; i++) {
  2039  003140  0E00               	movlw	0
  2040  003142  0100               	movlb	0	; () banked
  2041  003144  6FE4               	movwf	(main@i_1197+1)& (0+255),b
  2042  003146  0E00               	movlw	0
  2043  003148  6FE3               	movwf	main@i_1197& (0+255),b
  2044  00314A  D01F               	goto	l4060
  2045  00314C                     l4052:
  2046                           
  2047                           ; BSR set to: 0
  2048                           ;main.c: 161: if (out_buf[i] == '~') {
  2049  00314C  0100               	movlb	0	; () banked
  2050  00314E  51E3               	movf	main@i_1197& (0+255),w,b
  2051  003150  0100               	movlb	0	; () banked
  2052  003152  25EC               	addwf	main@out_buf& (0+255),w,b
  2053  003154  6ED9               	movwf	fsr2l,c
  2054  003156  0100               	movlb	0	; () banked
  2055  003158  51E4               	movf	(main@i_1197+1)& (0+255),w,b
  2056  00315A  0100               	movlb	0	; () banked
  2057  00315C  21ED               	addwfc	(main@out_buf+1)& (0+255),w,b
  2058  00315E  6EDA               	movwf	fsr2h,c
  2059  003160  0E7E               	movlw	126
  2060  003162  18DE               	xorwf	postinc2,w,c
  2061  003164  A4D8               	btfss	status,2,c
  2062  003166  D00D               	goto	l4058
  2063                           
  2064                           ; BSR set to: 0
  2065                           ;main.c: 162: loopback = 0;
  2066  003168  0E00               	movlw	0
  2067  00316A  0100               	movlb	0	; () banked
  2068  00316C  6FE2               	movwf	main@loopback& (0+255),b
  2069                           
  2070                           ; BSR set to: 0
  2071                           ;main.c: 163: send_string_sync(2, "\r\nLoopback off ('h' for help)\r\n");
  2072  00316E  0ECF               	movlw	low STR_5
  2073  003170  0100               	movlb	0	; () banked
  2074  003172  6F6E               	movwf	send_string_sync@str& (0+255),b
  2075  003174  0E22               	movlw	high STR_5
  2076  003176  0100               	movlb	0	; () banked
  2077  003178  6F6F               	movwf	(send_string_sync@str+1)& (0+255),b
  2078  00317A  0E02               	movlw	2
  2079  00317C  EC98  F022         	call	_send_string_sync
  2080                           
  2081                           ;main.c: 164: break;
  2082  003180  D0F6               	goto	l4114
  2083  003182                     l4058:
  2084  003182  0100               	movlb	0	; () banked
  2085  003184  4BE3               	infsnz	main@i_1197& (0+255),f,b
  2086  003186  2BE4               	incf	(main@i_1197+1)& (0+255),f,b
  2087  003188  D000               	goto	l4060
  2088  00318A                     l4060:
  2089                           
  2090                           ; BSR set to: 0
  2091  00318A  0100               	movlb	0	; () banked
  2092  00318C  51E8               	movf	main@out_buf_len& (0+255),w,b
  2093  00318E  0100               	movlb	0	; () banked
  2094  003190  5DE3               	subwf	main@i_1197& (0+255),w,b
  2095  003192  0100               	movlb	0	; () banked
  2096  003194  51E9               	movf	(main@out_buf_len+1)& (0+255),w,b
  2097  003196  0100               	movlb	0	; () banked
  2098  003198  59E4               	subwfb	(main@i_1197+1)& (0+255),w,b
  2099  00319A  B0D8               	btfsc	status,0,c
  2100  00319C  D0E8               	goto	l4114
  2101  00319E  D7D6               	goto	l4052
  2102                           
  2103                           ; BSR set to: 0
  2104                           ;main.c: 165: }
  2105                           ;main.c: 166: }
  2106                           ;main.c: 167: }
  2107  0031A0  D0E6               	goto	l4114
  2108  0031A2                     l4062:
  2109                           
  2110                           ; BSR set to: 0
  2111                           ;main.c: 168: else {
  2112                           ;main.c: 178: if (out_buf[0] == 'h' || out_buf[0] == '?') {
  2113  0031A2  C0EC  FFD9         	movff	main@out_buf,fsr2l
  2114  0031A6  C0ED  FFDA         	movff	main@out_buf+1,fsr2h
  2115  0031AA  0E68               	movlw	104
  2116  0031AC  18DE               	xorwf	postinc2,w,c
  2117  0031AE  B4D8               	btfsc	status,2,c
  2118  0031B0  D008               	goto	l4066
  2119                           
  2120                           ; BSR set to: 0
  2121  0031B2  C0EC  FFD9         	movff	main@out_buf,fsr2l
  2122  0031B6  C0ED  FFDA         	movff	main@out_buf+1,fsr2h
  2123  0031BA  0E3F               	movlw	63
  2124  0031BC  18DE               	xorwf	postinc2,w,c
  2125  0031BE  A4D8               	btfss	status,2,c
  2126  0031C0  D013               	goto	l4068
  2127  0031C2                     l4066:
  2128                           
  2129                           ; BSR set to: 0
  2130                           ;main.c: 183: send_string_sync(2,
  2131                           ;main.c: 184: "\r\nHelp:\r\n"
  2132                           ;main.c: 185: "\ts: send data\r\n"
  2133                           ;main.c: 186: "\tl: loopback\r\n");
  2134  0031C2  0E86               	movlw	low STR_6
  2135  0031C4  0100               	movlb	0	; () banked
  2136  0031C6  6F6E               	movwf	send_string_sync@str& (0+255),b
  2137  0031C8  0E22               	movlw	high STR_6
  2138  0031CA  0100               	movlb	0	; () banked
  2139  0031CC  6F6F               	movwf	(send_string_sync@str+1)& (0+255),b
  2140  0031CE  0E02               	movlw	2
  2141  0031D0  EC98  F022         	call	_send_string_sync
  2142                           
  2143                           ;main.c: 187: send_string_sync(2,
  2144                           ;main.c: 188: "\tn: send notification\r\n"
  2145                           ;main.c: 189: "\th: help\r\n");
  2146  0031D4  0EAD               	movlw	low STR_7
  2147  0031D6  0100               	movlb	0	; () banked
  2148  0031D8  6F6E               	movwf	send_string_sync@str& (0+255),b
  2149  0031DA  0E22               	movlw	high STR_7
  2150  0031DC  0100               	movlb	0	; () banked
  2151  0031DE  6F6F               	movwf	(send_string_sync@str+1)& (0+255),b
  2152  0031E0  0E02               	movlw	2
  2153  0031E2  EC98  F022         	call	_send_string_sync
  2154                           
  2155                           ;main.c: 190: }
  2156  0031E6  D0C3               	goto	l4114
  2157  0031E8                     l4068:
  2158                           
  2159                           ;main.c: 191: else if (out_buf[0] == 's')
  2160  0031E8  C0EC  FFD9         	movff	main@out_buf,fsr2l
  2161  0031EC  C0ED  FFDA         	movff	main@out_buf+1,fsr2h
  2162  0031F0  0E73               	movlw	115
  2163  0031F2  18DE               	xorwf	postinc2,w,c
  2164  0031F4  A4D8               	btfss	status,2,c
  2165  0031F6  D004               	goto	l4072
  2166                           
  2167                           ;main.c: 192: send = 1;
  2168  0031F8  0E01               	movlw	1
  2169  0031FA  0100               	movlb	0	; () banked
  2170  0031FC  6FE5               	movwf	main@send& (0+255),b
  2171  0031FE  D0B7               	goto	l4114
  2172  003200                     l4072:
  2173                           
  2174                           ;main.c: 193: else if (out_buf[0] == 'l') {
  2175  003200  C0EC  FFD9         	movff	main@out_buf,fsr2l
  2176  003204  C0ED  FFDA         	movff	main@out_buf+1,fsr2h
  2177  003208  0E6C               	movlw	108
  2178  00320A  18DE               	xorwf	postinc2,w,c
  2179  00320C  A4D8               	btfss	status,2,c
  2180  00320E  D00D               	goto	l4078
  2181                           
  2182                           ;main.c: 194: loopback = 1;
  2183  003210  0E01               	movlw	1
  2184  003212  0100               	movlb	0	; () banked
  2185  003214  6FE2               	movwf	main@loopback& (0+255),b
  2186                           
  2187                           ; BSR set to: 0
  2188                           ;main.c: 195: send_string_sync(2, "loopback enabled; press ~ to disable\r\n");
  2189  003216  0E5F               	movlw	low STR_8
  2190  003218  0100               	movlb	0	; () banked
  2191  00321A  6F6E               	movwf	send_string_sync@str& (0+255),b
  2192  00321C  0E22               	movlw	high STR_8
  2193  00321E  0100               	movlb	0	; () banked
  2194  003220  6F6F               	movwf	(send_string_sync@str+1)& (0+255),b
  2195  003222  0E02               	movlw	2
  2196  003224  EC98  F022         	call	_send_string_sync
  2197                           
  2198                           ;main.c: 196: }
  2199  003228  D0A2               	goto	l4114
  2200  00322A                     l4078:
  2201                           
  2202                           ;main.c: 197: else if (out_buf[0] == 'n') {
  2203  00322A  C0EC  FFD9         	movff	main@out_buf,fsr2l
  2204  00322E  C0ED  FFDA         	movff	main@out_buf+1,fsr2h
  2205  003232  0E6E               	movlw	110
  2206  003234  18DE               	xorwf	postinc2,w,c
  2207  003236  A4D8               	btfss	status,2,c
  2208  003238  D09A               	goto	l4114
  2209                           
  2210                           ;main.c: 199: struct cdc_serial_state_notification *n =
  2211                           ;main.c: 200: (struct cdc_serial_state_notification *)
  2212                           ;main.c: 201: usb_get_in_buffer(1);
  2213  00323A  0E01               	movlw	1
  2214  00323C  EC1F  F024         	call	_usb_get_in_buffer
  2215  003240  C060  F0EE         	movff	?_usb_get_in_buffer,main@n
  2216  003244  C061  F0EF         	movff	?_usb_get_in_buffer+1,main@n+1
  2217                           
  2218                           ;main.c: 203: n->header.REQUEST.bmRequestType = 0xa1;
  2219  003248  C0EE  FFD9         	movff	main@n,fsr2l
  2220  00324C  C0EF  FFDA         	movff	main@n+1,fsr2h
  2221  003250  0EA1               	movlw	161
  2222  003252  6EDF               	movwf	indf2,c
  2223                           
  2224                           ;main.c: 204: n->header.bNotification = CDC_SERIAL_STATE;
  2225  003254  0100               	movlb	0	; () banked
  2226  003256  EE20 F001          	lfsr	2,1
  2227  00325A  51EE               	movf	main@n& (0+255),w,b
  2228  00325C  26D9               	addwf	fsr2l,f,c
  2229  00325E  51EF               	movf	(main@n+1)& (0+255),w,b
  2230  003260  22DA               	addwfc	fsr2h,f,c
  2231  003262  0E20               	movlw	32
  2232  003264  6EDF               	movwf	indf2,c
  2233                           
  2234                           ; BSR set to: 0
  2235                           ;main.c: 205: n->header.wValue = 0;
  2236  003266  0100               	movlb	0	; () banked
  2237  003268  EE20 F002          	lfsr	2,2
  2238  00326C  51EE               	movf	main@n& (0+255),w,b
  2239  00326E  26D9               	addwf	fsr2l,f,c
  2240  003270  51EF               	movf	(main@n+1)& (0+255),w,b
  2241  003272  22DA               	addwfc	fsr2h,f,c
  2242  003274  0E00               	movlw	0
  2243  003276  6EDE               	movwf	postinc2,c
  2244  003278  0E00               	movlw	0
  2245  00327A  6EDD               	movwf	postdec2,c
  2246                           
  2247                           ; BSR set to: 0
  2248                           ;main.c: 206: n->header.wIndex = 1;
  2249  00327C  0100               	movlb	0	; () banked
  2250  00327E  EE20 F004          	lfsr	2,4
  2251  003282  51EE               	movf	main@n& (0+255),w,b
  2252  003284  26D9               	addwf	fsr2l,f,c
  2253  003286  51EF               	movf	(main@n+1)& (0+255),w,b
  2254  003288  22DA               	addwfc	fsr2h,f,c
  2255  00328A  0E01               	movlw	1
  2256  00328C  6EDE               	movwf	postinc2,c
  2257  00328E  0E00               	movlw	0
  2258  003290  6EDD               	movwf	postdec2,c
  2259                           
  2260                           ; BSR set to: 0
  2261                           ;main.c: 207: n->header.wLength = 2;
  2262  003292  0100               	movlb	0	; () banked
  2263  003294  EE20 F006          	lfsr	2,6
  2264  003298  51EE               	movf	main@n& (0+255),w,b
  2265  00329A  26D9               	addwf	fsr2l,f,c
  2266  00329C  51EF               	movf	(main@n+1)& (0+255),w,b
  2267  00329E  22DA               	addwfc	fsr2h,f,c
  2268  0032A0  0E02               	movlw	2
  2269  0032A2  6EDE               	movwf	postinc2,c
  2270  0032A4  0E00               	movlw	0
  2271  0032A6  6EDD               	movwf	postdec2,c
  2272                           
  2273                           ; BSR set to: 0
  2274                           ;main.c: 208: n->data.serial_state = 0;
  2275  0032A8  0100               	movlb	0	; () banked
  2276  0032AA  EE20 F008          	lfsr	2,8
  2277  0032AE  51EE               	movf	main@n& (0+255),w,b
  2278  0032B0  26D9               	addwf	fsr2l,f,c
  2279  0032B2  51EF               	movf	(main@n+1)& (0+255),w,b
  2280  0032B4  22DA               	addwfc	fsr2h,f,c
  2281  0032B6  0E00               	movlw	0
  2282  0032B8  6EDE               	movwf	postinc2,c
  2283  0032BA  0E00               	movlw	0
  2284  0032BC  6EDD               	movwf	postdec2,c
  2285                           
  2286                           ; BSR set to: 0
  2287                           ;main.c: 209: n->data.bits.bRxCarrier = 1;
  2288  0032BE  0100               	movlb	0	; () banked
  2289  0032C0  EE20 F008          	lfsr	2,8
  2290  0032C4  51EE               	movf	main@n& (0+255),w,b
  2291  0032C6  26D9               	addwf	fsr2l,f,c
  2292  0032C8  51EF               	movf	(main@n+1)& (0+255),w,b
  2293  0032CA  22DA               	addwfc	fsr2h,f,c
  2294  0032CC  0100               	movlb	0	; () banked
  2295  0032CE  80DF               	bsf	indf2,0,c
  2296                           
  2297                           ; BSR set to: 0
  2298                           ;main.c: 210: n->data.bits.bTxCarrier = 1;
  2299  0032D0  0100               	movlb	0	; () banked
  2300  0032D2  EE20 F008          	lfsr	2,8
  2301  0032D6  51EE               	movf	main@n& (0+255),w,b
  2302  0032D8  26D9               	addwf	fsr2l,f,c
  2303  0032DA  51EF               	movf	(main@n+1)& (0+255),w,b
  2304  0032DC  22DA               	addwfc	fsr2h,f,c
  2305  0032DE  0100               	movlb	0	; () banked
  2306  0032E0  82DF               	bsf	indf2,1,c
  2307                           
  2308                           ; BSR set to: 0
  2309                           ;main.c: 211: n->data.bits.bBreak = 0;
  2310  0032E2  0100               	movlb	0	; () banked
  2311  0032E4  EE20 F008          	lfsr	2,8
  2312  0032E8  51EE               	movf	main@n& (0+255),w,b
  2313  0032EA  26D9               	addwf	fsr2l,f,c
  2314  0032EC  51EF               	movf	(main@n+1)& (0+255),w,b
  2315  0032EE  22DA               	addwfc	fsr2h,f,c
  2316  0032F0  0100               	movlb	0	; () banked
  2317  0032F2  94DF               	bcf	indf2,2,c
  2318                           
  2319                           ; BSR set to: 0
  2320                           ;main.c: 212: n->data.bits.bRingSignal = 0;
  2321  0032F4  0100               	movlb	0	; () banked
  2322  0032F6  EE20 F008          	lfsr	2,8
  2323  0032FA  51EE               	movf	main@n& (0+255),w,b
  2324  0032FC  26D9               	addwf	fsr2l,f,c
  2325  0032FE  51EF               	movf	(main@n+1)& (0+255),w,b
  2326  003300  22DA               	addwfc	fsr2h,f,c
  2327  003302  0100               	movlb	0	; () banked
  2328  003304  96DF               	bcf	indf2,3,c
  2329                           
  2330                           ; BSR set to: 0
  2331                           ;main.c: 213: n->data.bits.bFraming = 0;
  2332  003306  0100               	movlb	0	; () banked
  2333  003308  EE20 F008          	lfsr	2,8
  2334  00330C  51EE               	movf	main@n& (0+255),w,b
  2335  00330E  26D9               	addwf	fsr2l,f,c
  2336  003310  51EF               	movf	(main@n+1)& (0+255),w,b
  2337  003312  22DA               	addwfc	fsr2h,f,c
  2338  003314  0100               	movlb	0	; () banked
  2339  003316  98DF               	bcf	indf2,4,c
  2340                           
  2341                           ; BSR set to: 0
  2342                           ;main.c: 214: n->data.bits.bParity = 0;
  2343  003318  0100               	movlb	0	; () banked
  2344  00331A  EE20 F008          	lfsr	2,8
  2345  00331E  51EE               	movf	main@n& (0+255),w,b
  2346  003320  26D9               	addwf	fsr2l,f,c
  2347  003322  51EF               	movf	(main@n+1)& (0+255),w,b
  2348  003324  22DA               	addwfc	fsr2h,f,c
  2349  003326  0100               	movlb	0	; () banked
  2350  003328  9ADF               	bcf	indf2,5,c
  2351                           
  2352                           ; BSR set to: 0
  2353                           ;main.c: 215: n->data.bits.bOverrun = 0;
  2354  00332A  0100               	movlb	0	; () banked
  2355  00332C  EE20 F008          	lfsr	2,8
  2356  003330  51EE               	movf	main@n& (0+255),w,b
  2357  003332  26D9               	addwf	fsr2l,f,c
  2358  003334  51EF               	movf	(main@n+1)& (0+255),w,b
  2359  003336  22DA               	addwfc	fsr2h,f,c
  2360  003338  0100               	movlb	0	; () banked
  2361  00333A  9CDF               	bcf	indf2,6,c
  2362                           
  2363                           ; BSR set to: 0
  2364                           
  2365                           ;main.c: 218: while (usb_in_endpoint_busy(1))
  2366  00333C  D000               	goto	l4108
  2367  00333E                     l4108:
  2368  00333E  0E01               	movlw	1
  2369  003340  ECC3  F022         	call	_usb_in_endpoint_busy
  2370  003344  0900               	iorlw	0
  2371  003346  A4D8               	btfss	status,2,c
  2372  003348  D7FA               	goto	l4108
  2373                           
  2374                           ;main.c: 222: usb_send_in_buffer(1, sizeof(*n));
  2375  00334A  0E00               	movlw	0
  2376  00334C  0100               	movlb	0	; () banked
  2377  00334E  6F67               	movwf	(usb_send_in_buffer@len+1)& (0+255),b
  2378  003350  0E0A               	movlw	10
  2379  003352  6F66               	movwf	usb_send_in_buffer@len& (0+255),b
  2380  003354  0E01               	movlw	1
  2381  003356  EC0E  F01E         	call	_usb_send_in_buffer
  2382                           
  2383                           ;main.c: 224: send_string_sync(2, "Notification Sent\r\n");
  2384  00335A  0E0E               	movlw	low STR_9
  2385  00335C  0100               	movlb	0	; () banked
  2386  00335E  6F6E               	movwf	send_string_sync@str& (0+255),b
  2387  003360  0E23               	movlw	high STR_9
  2388  003362  0100               	movlb	0	; () banked
  2389  003364  6F6F               	movwf	(send_string_sync@str+1)& (0+255),b
  2390  003366  0E02               	movlw	2
  2391  003368  EC98  F022         	call	_send_string_sync
  2392  00336C  D000               	goto	l4114
  2393  00336E                     l4114:
  2394                           
  2395                           ;main.c: 228: usb_arm_out_endpoint(2);
  2396  00336E  0E02               	movlw	2
  2397  003370  EC8C  F01E         	call	_usb_arm_out_endpoint
  2398  003374  D5CC               	goto	l3966
  2399                           
  2400                           ;main.c: 229: }
  2401                           ;main.c: 242: }
  2402                           ;main.c: 244: return 0;
  2403                           ;	Return value of _main is never used
  2404  003376  EF46  F010         	goto	start
  2405  00337A                     __end_of_main:
  2406                           	opt stack 0
  2407                           tblptru	equ	0xFF8
  2408                           tblptrh	equ	0xFF7
  2409                           tblptrl	equ	0xFF6
  2410                           tablat	equ	0xFF5
  2411                           intcon	equ	0xFF2
  2412                           postinc0	equ	0xFEE
  2413                           wreg	equ	0xFE8
  2414                           postdec1	equ	0xFE5
  2415                           fsr1l	equ	0xFE1
  2416                           indf2	equ	0xFDF
  2417                           postinc2	equ	0xFDE
  2418                           postdec2	equ	0xFDD
  2419                           fsr2h	equ	0xFDA
  2420                           fsr2l	equ	0xFD9
  2421                           status	equ	0xFD8
  2422                           
  2423 ;; *************** function _usb_out_endpoint_has_data *****************
  2424 ;; Defined at:
  2425 ;;		line 1518 in file "usb.c"
  2426 ;; Parameters:    Size  Location     Type
  2427 ;;  endpoint        1    wreg     unsigned char 
  2428 ;; Auto vars:     Size  Location     Type
  2429 ;;  endpoint        1    0[BANK0 ] unsigned char 
  2430 ;; Return value:  Size  Location     Type
  2431 ;;                  1    wreg      unsigned char 
  2432 ;; Registers used:
  2433 ;;		wreg, fsr2l, fsr2h, status,2, status,0, prodl, prodh
  2434 ;; Tracked objects:
  2435 ;;		On entry : 0/0
  2436 ;;		On exit  : 0/0
  2437 ;;		Unchanged: 0/0
  2438 ;; Data sizes:     COMRAM   BANK0   BANK1   BANK2   BANK3   BANK4   BANK5   BANK6   BANK7
  2439 ;;      Params:         0       0       0       0       0       0       0       0       0
  2440 ;;      Locals:         0       1       0       0       0       0       0       0       0
  2441 ;;      Temps:          0       0       0       0       0       0       0       0       0
  2442 ;;      Totals:         0       1       0       0       0       0       0       0       0
  2443 ;;Total ram usage:        1 bytes
  2444 ;; Hardware stack levels used:    1
  2445 ;; Hardware stack levels required when called:    9
  2446 ;; This function calls:
  2447 ;;		Nothing
  2448 ;; This function is called by:
  2449 ;;		_main
  2450 ;; This function uses a non-reentrant model
  2451 ;;
  2452                           
  2453                           	psect	text1
  2454  004892                     __ptext1:
  2455                           	opt stack 0
  2456  004892                     _usb_out_endpoint_has_data:
  2457                           	opt stack 21
  2458                           
  2459                           ;incstack = 0
  2460                           ;usb_out_endpoint_has_data@endpoint stored from wreg
  2461  004892  0100               	movlb	0	; () banked
  2462  004894  6F60               	movwf	usb_out_endpoint_has_data@endpoint& (0+255),b
  2463                           
  2464                           ; BSR set to: 0
  2465                           ;usb.c: 1524: return !bds[(endpoint) * 2].STAT.UOWN;
  2466  004896  0100               	movlb	0	; () banked
  2467  004898  5160               	movf	usb_out_endpoint_has_data@endpoint& (0+255),w,b
  2468  00489A  0D08               	mullw	8
  2469  00489C  0E00               	movlw	0
  2470  00489E  24F3               	addwf	prodl,w,c
  2471  0048A0  6ED9               	movwf	fsr2l,c
  2472  0048A2  0E04               	movlw	4
  2473  0048A4  20F4               	addwfc	prodh,w,c
  2474  0048A6  6EDA               	movwf	fsr2h,c
  2475  0048A8  0104               	movlb	4	; () banked
  2476  0048AA  BEDF               	btfsc	indf2,7,c
  2477  0048AC  D002               	goto	u3780
  2478  0048AE  0E01               	movlw	1
  2479  0048B0  0012               	return	
  2480  0048B2                     u3780:
  2481  0048B2  0E00               	movlw	0
  2482  0048B4  0012               	return	
  2483                           
  2484                           ; BSR set to: 4
  2485                           
  2486                           ; BSR set to: 4
  2487  0048B6  0012               	return		;funcret
  2488  0048B8                     __end_of_usb_out_endpoint_has_data:
  2489                           	opt stack 0
  2490                           tblptru	equ	0xFF8
  2491                           tblptrh	equ	0xFF7
  2492                           tblptrl	equ	0xFF6
  2493                           tablat	equ	0xFF5
  2494                           prodh	equ	0xFF4
  2495                           prodl	equ	0xFF3
  2496                           intcon	equ	0xFF2
  2497                           postinc0	equ	0xFEE
  2498                           wreg	equ	0xFE8
  2499                           postdec1	equ	0xFE5
  2500                           fsr1l	equ	0xFE1
  2501                           indf2	equ	0xFDF
  2502                           postinc2	equ	0xFDE
  2503                           postdec2	equ	0xFDD
  2504                           fsr2h	equ	0xFDA
  2505                           fsr2l	equ	0xFD9
  2506                           status	equ	0xFD8
  2507                           
  2508 ;; *************** function _usb_out_endpoint_halted *****************
  2509 ;; Defined at:
  2510 ;;		line 1563 in file "usb.c"
  2511 ;; Parameters:    Size  Location     Type
  2512 ;;  endpoint        1    wreg     unsigned char 
  2513 ;; Auto vars:     Size  Location     Type
  2514 ;;  endpoint        1    0[BANK0 ] unsigned char 
  2515 ;; Return value:  Size  Location     Type
  2516 ;;                  1    wreg      unsigned char 
  2517 ;; Registers used:
  2518 ;;		wreg, fsr2l, fsr2h, status,2, status,0, prodl, prodh
  2519 ;; Tracked objects:
  2520 ;;		On entry : 0/0
  2521 ;;		On exit  : 0/0
  2522 ;;		Unchanged: 0/0
  2523 ;; Data sizes:     COMRAM   BANK0   BANK1   BANK2   BANK3   BANK4   BANK5   BANK6   BANK7
  2524 ;;      Params:         0       0       0       0       0       0       0       0       0
  2525 ;;      Locals:         0       1       0       0       0       0       0       0       0
  2526 ;;      Temps:          0       0       0       0       0       0       0       0       0
  2527 ;;      Totals:         0       1       0       0       0       0       0       0       0
  2528 ;;Total ram usage:        1 bytes
  2529 ;; Hardware stack levels used:    1
  2530 ;; Hardware stack levels required when called:    9
  2531 ;; This function calls:
  2532 ;;		Nothing
  2533 ;; This function is called by:
  2534 ;;		_main
  2535 ;; This function uses a non-reentrant model
  2536 ;;
  2537                           
  2538                           	psect	text2
  2539  0048B8                     __ptext2:
  2540                           	opt stack 0
  2541  0048B8                     _usb_out_endpoint_halted:
  2542                           	opt stack 21
  2543                           
  2544                           ; BSR set to: 4
  2545                           ;incstack = 0
  2546                           ;usb_out_endpoint_halted@endpoint stored from wreg
  2547  0048B8  0100               	movlb	0	; () banked
  2548  0048BA  6F60               	movwf	usb_out_endpoint_halted@endpoint& (0+255),b
  2549                           
  2550                           ; BSR set to: 0
  2551                           ;usb.c: 1565: return ep_buf[endpoint].flags & 0x1;
  2552  0048BC  0100               	movlb	0	; () banked
  2553  0048BE  5160               	movf	usb_out_endpoint_halted@endpoint& (0+255),w,b
  2554  0048C0  0D07               	mullw	7
  2555  0048C2  0E06               	movlw	6
  2556  0048C4  26F3               	addwf	prodl,f,c
  2557  0048C6  0E00               	movlw	0
  2558  0048C8  22F4               	addwfc	prodh,f,c
  2559  0048CA  0E00               	movlw	low _ep_buf
  2560  0048CC  24F3               	addwf	prodl,w,c
  2561  0048CE  6ED9               	movwf	fsr2l,c
  2562  0048D0  0E01               	movlw	high _ep_buf
  2563  0048D2  20F4               	addwfc	prodh,w,c
  2564  0048D4  6EDA               	movwf	fsr2h,c
  2565  0048D6  50DF               	movf	indf2,w,c
  2566  0048D8  0B01               	andlw	1
  2567  0048DA  0012               	return	
  2568                           
  2569                           ; BSR set to: 0
  2570                           
  2571                           ; BSR set to: 0
  2572  0048DC  0012               	return		;funcret
  2573  0048DE                     __end_of_usb_out_endpoint_halted:
  2574                           	opt stack 0
  2575                           tblptru	equ	0xFF8
  2576                           tblptrh	equ	0xFF7
  2577                           tblptrl	equ	0xFF6
  2578                           tablat	equ	0xFF5
  2579                           prodh	equ	0xFF4
  2580                           prodl	equ	0xFF3
  2581                           intcon	equ	0xFF2
  2582                           postinc0	equ	0xFEE
  2583                           wreg	equ	0xFE8
  2584                           postdec1	equ	0xFE5
  2585                           fsr1l	equ	0xFE1
  2586                           indf2	equ	0xFDF
  2587                           postinc2	equ	0xFDE
  2588                           postdec2	equ	0xFDD
  2589                           fsr2h	equ	0xFDA
  2590                           fsr2l	equ	0xFD9
  2591                           status	equ	0xFD8
  2592                           
  2593 ;; *************** function _usb_init *****************
  2594 ;; Defined at:
  2595 ;;		line 487 in file "usb.c"
  2596 ;; Parameters:    Size  Location     Type
  2597 ;;		None
  2598 ;; Auto vars:     Size  Location     Type
  2599 ;;  ep              2   10[BANK0 ] PTR volatile struct .
  2600 ;;		 -> UEP0(1), 
  2601 ;;  i               1   12[BANK0 ] unsigned char 
  2602 ;; Return value:  Size  Location     Type
  2603 ;;		None               void
  2604 ;; Registers used:
  2605 ;;		wreg, fsr1l, fsr1h, fsr2l, fsr2h, status,2, status,0, prodl, prodh, cstack
  2606 ;; Tracked objects:
  2607 ;;		On entry : 0/0
  2608 ;;		On exit  : 0/0
  2609 ;;		Unchanged: 0/0
  2610 ;; Data sizes:     COMRAM   BANK0   BANK1   BANK2   BANK3   BANK4   BANK5   BANK6   BANK7
  2611 ;;      Params:         0       0       0       0       0       0       0       0       0
  2612 ;;      Locals:         0       3       0       0       0       0       0       0       0
  2613 ;;      Temps:          0       2       0       0       0       0       0       0       0
  2614 ;;      Totals:         0       5       0       0       0       0       0       0       0
  2615 ;;Total ram usage:        5 bytes
  2616 ;; Hardware stack levels used:    1
  2617 ;; Hardware stack levels required when called:   10
  2618 ;; This function calls:
  2619 ;;		_memset
  2620 ;;		_reset_ep0_data_stage
  2621 ;; This function is called by:
  2622 ;;		_main
  2623 ;; This function uses a non-reentrant model
  2624 ;;
  2625                           
  2626                           	psect	text3
  2627  00337A                     __ptext3:
  2628                           	opt stack 0
  2629  00337A                     _usb_init:
  2630                           	opt stack 20
  2631                           
  2632                           ; BSR set to: 0
  2633                           ;incstack = 0
  2634                           ;usb.c: 489: uint8_t i;
  2635                           ;usb.c: 493: do { UCFGbits.PPB0 = 0 & 1; UCFGbits.PPB1 = (0 & 2)? 1: 0; } while (0);
  2636  00337A  9062               	bcf	3938,0,c	;volatile
  2637  00337C  9262               	bcf	3938,1,c	;volatile
  2638  00337E  D000               	goto	l3620
  2639  003380                     l3620:
  2640                           
  2641                           ;usb.c: 499: UIE = 0x0;
  2642  003380  0E00               	movlw	0
  2643  003382  6E64               	movwf	3940,c	;volatile
  2644                           
  2645                           ;usb.c: 500: UEIE = 0x0;
  2646  003384  0E00               	movlw	0
  2647  003386  6E66               	movwf	3942,c	;volatile
  2648                           
  2649                           ;usb.c: 502: UCONbits.USBEN = 1;
  2650  003388  8660               	bsf	3936,3,c	;volatile
  2651                           
  2652                           ;usb.c: 510: UCFGbits.UPUEN = 1;
  2653  00338A  8862               	bsf	3938,4,c	;volatile
  2654                           
  2655                           ;usb.c: 514: UCFGbits.UTRDIS = 0;
  2656  00338C  9662               	bcf	3938,3,c	;volatile
  2657                           
  2658                           ;usb.c: 518: UCFGbits.FSEN = 1;
  2659  00338E  8462               	bsf	3938,2,c	;volatile
  2660                           
  2661                           ;usb.c: 521: UIRbits.TRNIF = 0;
  2662  003390  9665               	bcf	3941,3,c	;volatile
  2663                           
  2664                           ;usb.c: 522: UIRbits.TRNIF = 0;
  2665  003392  9665               	bcf	3941,3,c	;volatile
  2666                           
  2667                           ;usb.c: 523: UIRbits.TRNIF = 0;
  2668  003394  9665               	bcf	3941,3,c	;volatile
  2669                           
  2670                           ;usb.c: 524: UIRbits.TRNIF = 0;
  2671  003396  9665               	bcf	3941,3,c	;volatile
  2672                           
  2673                           ;usb.c: 526: UIR = 0;
  2674  003398  0E00               	movlw	0
  2675  00339A  6E65               	movwf	3941,c	;volatile
  2676                           
  2677                           ;usb.c: 529: UIEbits.TRNIE = 1;
  2678  00339C  8664               	bsf	3940,3,c	;volatile
  2679                           
  2680                           ;usb.c: 530: UIEbits.STALLIE = 1;
  2681  00339E  8A64               	bsf	3940,5,c	;volatile
  2682                           
  2683                           ;usb.c: 531: UIEbits.URSTIE = 1;
  2684  0033A0  8064               	bsf	3940,0,c	;volatile
  2685                           
  2686                           ;usb.c: 533: UIEbits.SOFIE = 1;
  2687  0033A2  8C64               	bsf	3940,6,c	;volatile
  2688                           
  2689                           ;usb.c: 576: memset(((UEP1bits_t*) (&UEP0 + 1 * (0))), 0x0, sizeof(*((UEP1bits_t*) (&UEP
      +                          0 + 1 * (0)))) * 16);
  2690  0033A4  0E6A               	movlw	106
  2691  0033A6  0100               	movlb	0	; () banked
  2692  0033A8  6F60               	movwf	memset@p1& (0+255),b
  2693  0033AA  0E0F               	movlw	15
  2694  0033AC  0100               	movlb	0	; () banked
  2695  0033AE  6F61               	movwf	(memset@p1+1)& (0+255),b
  2696  0033B0  0E00               	movlw	0
  2697  0033B2  0100               	movlb	0	; () banked
  2698  0033B4  6F63               	movwf	(memset@c+1)& (0+255),b
  2699  0033B6  0E00               	movlw	0
  2700  0033B8  6F62               	movwf	memset@c& (0+255),b
  2701  0033BA  0E00               	movlw	0
  2702  0033BC  0100               	movlb	0	; () banked
  2703  0033BE  6F65               	movwf	(memset@n+1)& (0+255),b
  2704  0033C0  0E10               	movlw	16
  2705  0033C2  6F64               	movwf	memset@n& (0+255),b
  2706  0033C4  EC74  F023         	call	_memset	;wreg free
  2707                           
  2708                           ;usb.c: 579: ((UEP1bits_t*) (&UEP0 + 1 * (0)))->EPHSHK = 1;
  2709  0033C8  886A               	bsf	3946,4,c
  2710                           
  2711                           ;usb.c: 580: ((UEP1bits_t*) (&UEP0 + 1 * (0)))->EPCONDIS = 0;
  2712  0033CA  966A               	bcf	3946,3,c
  2713                           
  2714                           ;usb.c: 581: ((UEP1bits_t*) (&UEP0 + 1 * (0)))->EPOUTEN = 1;
  2715  0033CC  846A               	bsf	3946,2,c
  2716                           
  2717                           ;usb.c: 582: ((UEP1bits_t*) (&UEP0 + 1 * (0)))->EPINEN = 1;
  2718  0033CE  826A               	bsf	3946,1,c
  2719                           
  2720                           ;usb.c: 583: ((UEP1bits_t*) (&UEP0 + 1 * (0)))->EPSTALL = 0;
  2721  0033D0  906A               	bcf	3946,0,c
  2722                           
  2723                           ;usb.c: 585: for (i = 1; i <= 2; i++) {
  2724  0033D2  0E01               	movlw	1
  2725  0033D4  0100               	movlb	0	; () banked
  2726  0033D6  6F6C               	movwf	usb_init@i& (0+255),b
  2727  0033D8                     l3660:
  2728                           
  2729                           ; BSR set to: 0
  2730  0033D8  0E02               	movlw	2
  2731  0033DA  0100               	movlb	0	; () banked
  2732  0033DC  656C               	cpfsgt	usb_init@i& (0+255),b
  2733  0033DE  D001               	goto	l3664
  2734                           
  2735                           ; BSR set to: 0
  2736  0033E0  D02C               	goto	l3680
  2737  0033E2                     l3664:
  2738                           
  2739                           ; BSR set to: 0
  2740                           ;usb.c: 586: volatile UEP1bits_t *ep = ((UEP1bits_t*) (&UEP0 + 1 * (i)));
  2741  0033E2  0100               	movlb	0	; () banked
  2742  0033E4  516C               	movf	usb_init@i& (0+255),w,b
  2743  0033E6  0D01               	mullw	1
  2744  0033E8  0E6A               	movlw	106
  2745  0033EA  24F3               	addwf	prodl,w,c
  2746  0033EC  0100               	movlb	0	; () banked
  2747  0033EE  6F6A               	movwf	usb_init@ep& (0+255),b
  2748  0033F0  0E0F               	movlw	15
  2749  0033F2  20F4               	addwfc	prodh,w,c
  2750  0033F4  0100               	movlb	0	; () banked
  2751  0033F6  6F6B               	movwf	(usb_init@ep+1)& (0+255),b
  2752                           
  2753                           ; BSR set to: 0
  2754                           ;usb.c: 587: ep->EPHSHK = 1;
  2755  0033F8  C06A  FFD9         	movff	usb_init@ep,fsr2l
  2756  0033FC  C06B  FFDA         	movff	usb_init@ep+1,fsr2h
  2757  003400  0100               	movlb	0	; () banked
  2758  003402  88DF               	bsf	indf2,4,c
  2759                           
  2760                           ; BSR set to: 0
  2761                           ;usb.c: 588: ep->EPCONDIS = 1;
  2762  003404  C06A  FFD9         	movff	usb_init@ep,fsr2l
  2763  003408  C06B  FFDA         	movff	usb_init@ep+1,fsr2h
  2764  00340C  0100               	movlb	0	; () banked
  2765  00340E  86DF               	bsf	indf2,3,c
  2766                           
  2767                           ; BSR set to: 0
  2768                           ;usb.c: 589: ep->EPOUTEN = 1;
  2769  003410  C06A  FFD9         	movff	usb_init@ep,fsr2l
  2770  003414  C06B  FFDA         	movff	usb_init@ep+1,fsr2h
  2771  003418  0100               	movlb	0	; () banked
  2772  00341A  84DF               	bsf	indf2,2,c
  2773                           
  2774                           ; BSR set to: 0
  2775                           ;usb.c: 590: ep->EPINEN = 1;
  2776  00341C  C06A  FFD9         	movff	usb_init@ep,fsr2l
  2777  003420  C06B  FFDA         	movff	usb_init@ep+1,fsr2h
  2778  003424  0100               	movlb	0	; () banked
  2779  003426  82DF               	bsf	indf2,1,c
  2780                           
  2781                           ; BSR set to: 0
  2782                           ;usb.c: 591: ep->EPSTALL = 0;
  2783  003428  C06A  FFD9         	movff	usb_init@ep,fsr2l
  2784  00342C  C06B  FFDA         	movff	usb_init@ep+1,fsr2h
  2785  003430  0100               	movlb	0	; () banked
  2786  003432  90DF               	bcf	indf2,0,c
  2787                           
  2788                           ; BSR set to: 0
  2789  003434  0100               	movlb	0	; () banked
  2790  003436  2B6C               	incf	usb_init@i& (0+255),f,b
  2791  003438  D7CF               	goto	l3660
  2792  00343A                     l3680:
  2793                           
  2794                           ; BSR set to: 0
  2795                           ;usb.c: 592: }
  2796                           ;usb.c: 595: UADDR = 0x0;
  2797  00343A  0E00               	movlw	0
  2798  00343C  6E63               	movwf	3939,c	;volatile
  2799                           
  2800                           ;usb.c: 596: addr_pending = 0;
  2801  00343E  0E00               	movlw	0
  2802  003440  0100               	movlb	0	; () banked
  2803  003442  6FF3               	movwf	_addr_pending& (0+255),b
  2804                           
  2805                           ;usb.c: 597: g_configuration = 0;
  2806  003444  0E00               	movlw	0
  2807  003446  6E5F               	movwf	_g_configuration,c
  2808                           
  2809                           ;usb.c: 598: ep0_buf.flags = 0;
  2810  003448  0E00               	movlw	0
  2811  00344A  0100               	movlb	0	; () banked
  2812  00344C  6FFF               	movwf	(_ep0_buf+4)& (0+255),b
  2813                           
  2814                           ;usb.c: 599: for (i = 0; i <= 2; i++) {
  2815  00344E  0E00               	movlw	0
  2816  003450  0100               	movlb	0	; () banked
  2817  003452  6F6C               	movwf	usb_init@i& (0+255),b
  2818  003454                     l3682:
  2819                           
  2820                           ; BSR set to: 0
  2821  003454  0E02               	movlw	2
  2822  003456  0100               	movlb	0	; () banked
  2823  003458  656C               	cpfsgt	usb_init@i& (0+255),b
  2824  00345A  D001               	goto	l3686
  2825                           
  2826                           ; BSR set to: 0
  2827  00345C  D012               	goto	l3692
  2828  00345E                     l3686:
  2829                           
  2830                           ; BSR set to: 0
  2831                           ;usb.c: 603: ep_buf[i].flags = 0x4;
  2832  00345E  0100               	movlb	0	; () banked
  2833  003460  516C               	movf	usb_init@i& (0+255),w,b
  2834  003462  0D07               	mullw	7
  2835  003464  0E06               	movlw	6
  2836  003466  26F3               	addwf	prodl,f,c
  2837  003468  0E00               	movlw	0
  2838  00346A  22F4               	addwfc	prodh,f,c
  2839  00346C  0E00               	movlw	low _ep_buf
  2840  00346E  24F3               	addwf	prodl,w,c
  2841  003470  6ED9               	movwf	fsr2l,c
  2842  003472  0E01               	movlw	high _ep_buf
  2843  003474  20F4               	addwfc	prodh,w,c
  2844  003476  6EDA               	movwf	fsr2h,c
  2845  003478  0E04               	movlw	4
  2846  00347A  6EDF               	movwf	indf2,c
  2847                           
  2848                           ; BSR set to: 0
  2849  00347C  0100               	movlb	0	; () banked
  2850  00347E  2B6C               	incf	usb_init@i& (0+255),f,b
  2851  003480  D7E9               	goto	l3682
  2852  003482                     l3692:
  2853                           
  2854                           ; BSR set to: 0
  2855                           ;usb.c: 605: }
  2856                           ;usb.c: 607: memset(bds, 0x0, sizeof(bds));
  2857  003482  0E00               	movlw	0
  2858  003484  0100               	movlb	0	; () banked
  2859  003486  6F60               	movwf	memset@p1& (0+255),b
  2860  003488  0E04               	movlw	4
  2861  00348A  0100               	movlb	0	; () banked
  2862  00348C  6F61               	movwf	(memset@p1+1)& (0+255),b
  2863  00348E  0E00               	movlw	0
  2864  003490  0100               	movlb	0	; () banked
  2865  003492  6F63               	movwf	(memset@c+1)& (0+255),b
  2866  003494  0E00               	movlw	0
  2867  003496  6F62               	movwf	memset@c& (0+255),b
  2868  003498  0E00               	movlw	0
  2869  00349A  0100               	movlb	0	; () banked
  2870  00349C  6F65               	movwf	(memset@n+1)& (0+255),b
  2871  00349E  0E18               	movlw	24
  2872  0034A0  6F64               	movwf	memset@n& (0+255),b
  2873  0034A2  EC74  F023         	call	_memset	;wreg free
  2874                           
  2875                           ;usb.c: 611: bds[0].BDnADR = (uint16_t) (ep0_buf.out);
  2876  0034A6  C0FB  F402         	movff	_ep0_buf,1026
  2877  0034AA  C0FC  F403         	movff	_ep0_buf+1,1027
  2878  0034AE  D000               	goto	l3696
  2879  0034B0                     l3696:
  2880  0034B0  0E08               	movlw	8
  2881  0034B2  0104               	movlb	4	; () banked
  2882  0034B4  6F01               	movwf	1,b
  2883                           
  2884                           ; BSR set to: 4
  2885  0034B6  0E80               	movlw	128
  2886  0034B8  0104               	movlb	4	; () banked
  2887  0034BA  6F00               	movwf	0,b
  2888  0034BC  D000               	goto	l3700
  2889  0034BE                     l3700:
  2890                           
  2891                           ; BSR set to: 4
  2892                           ;usb.c: 621: bds[1].BDnADR = (uint16_t) (ep0_buf.in);
  2893  0034BE  C0FD  F406         	movff	_ep0_buf+2,1030
  2894  0034C2  C0FE  F407         	movff	_ep0_buf+3,1031
  2895  0034C6  D000               	goto	l3702
  2896  0034C8                     l3702:
  2897                           
  2898                           ; BSR set to: 4
  2899  0034C8  0E08               	movlw	8
  2900  0034CA  0104               	movlb	4	; () banked
  2901  0034CC  6F05               	movwf	5,b
  2902                           
  2903                           ; BSR set to: 4
  2904  0034CE  0E00               	movlw	0
  2905  0034D0  0104               	movlb	4	; () banked
  2906  0034D2  6F04               	movwf	4,b
  2907  0034D4  D000               	goto	l3706
  2908  0034D6                     l3706:
  2909                           
  2910                           ; BSR set to: 4
  2911                           ;usb.c: 628: for (i = 1; i <= 2; i++) {
  2912  0034D6  0E01               	movlw	1
  2913  0034D8  0100               	movlb	0	; () banked
  2914  0034DA  6F6C               	movwf	usb_init@i& (0+255),b
  2915  0034DC                     l3708:
  2916                           
  2917                           ; BSR set to: 0
  2918  0034DC  0E02               	movlw	2
  2919  0034DE  0100               	movlb	0	; () banked
  2920  0034E0  656C               	cpfsgt	usb_init@i& (0+255),b
  2921  0034E2  D001               	goto	l3712
  2922                           
  2923                           ; BSR set to: 0
  2924  0034E4  D0C3               	goto	l3726
  2925  0034E6                     l3712:
  2926                           
  2927                           ; BSR set to: 0
  2928                           ;usb.c: 631: bds[(i) * 2].BDnADR = (uint16_t) (ep_buf[i].out);
  2929  0034E6  0100               	movlb	0	; () banked
  2930  0034E8  516C               	movf	usb_init@i& (0+255),w,b
  2931  0034EA  0D07               	mullw	7
  2932  0034EC  0E00               	movlw	low _ep_buf
  2933  0034EE  24F3               	addwf	prodl,w,c
  2934  0034F0  6ED9               	movwf	fsr2l,c
  2935  0034F2  0E01               	movlw	high _ep_buf
  2936  0034F4  20F4               	addwfc	prodh,w,c
  2937  0034F6  6EDA               	movwf	fsr2h,c
  2938  0034F8  0100               	movlb	0	; () banked
  2939  0034FA  516C               	movf	usb_init@i& (0+255),w,b
  2940  0034FC  0D08               	mullw	8
  2941  0034FE  0E02               	movlw	2
  2942  003500  26F3               	addwf	prodl,f,c
  2943  003502  0E00               	movlw	0
  2944  003504  22F4               	addwfc	prodh,f,c
  2945  003506  0E00               	movlw	0
  2946  003508  24F3               	addwf	prodl,w,c
  2947  00350A  6EE1               	movwf	fsr1l,c
  2948  00350C  0E04               	movlw	4
  2949  00350E  20F4               	addwfc	prodh,w,c
  2950  003510  6EE2               	movwf	fsr1h,c
  2951  003512  CFDE FFE6          	movff	postinc2,postinc1
  2952  003516  CFDD FFE5          	movff	postdec2,postdec1
  2953                           
  2954                           ; BSR set to: 0
  2955                           
  2956                           ;usb.c: 632: do { (bds[(i) * 2]).BDnCNT = (ep_buf[i].out_len); (bds[(i) * 2]).STAT.BDnST
      +                          AT = (0x80|0x08); } while(0);
  2957  00351A  0100               	movlb	0	; () banked
  2958  00351C  516C               	movf	usb_init@i& (0+255),w,b
  2959  00351E  0D07               	mullw	7
  2960  003520  0E04               	movlw	4
  2961  003522  26F3               	addwf	prodl,f,c
  2962  003524  0E00               	movlw	0
  2963  003526  22F4               	addwfc	prodh,f,c
  2964  003528  0E00               	movlw	low _ep_buf
  2965  00352A  24F3               	addwf	prodl,w,c
  2966  00352C  6ED9               	movwf	fsr2l,c
  2967  00352E  0E01               	movlw	high _ep_buf
  2968  003530  20F4               	addwfc	prodh,w,c
  2969  003532  6EDA               	movwf	fsr2h,c
  2970  003534  0100               	movlb	0	; () banked
  2971  003536  516C               	movf	usb_init@i& (0+255),w,b
  2972  003538  0D08               	mullw	8
  2973  00353A  0E01               	movlw	1
  2974  00353C  26F3               	addwf	prodl,f,c
  2975  00353E  0E00               	movlw	0
  2976  003540  22F4               	addwfc	prodh,f,c
  2977  003542  0E00               	movlw	0
  2978  003544  24F3               	addwf	prodl,w,c
  2979  003546  6EE1               	movwf	fsr1l,c
  2980  003548  0E04               	movlw	4
  2981  00354A  20F4               	addwfc	prodh,w,c
  2982  00354C  6EE2               	movwf	fsr1h,c
  2983  00354E  CFDF FFE7          	movff	indf2,indf1
  2984                           
  2985                           ; BSR set to: 0
  2986  003552  0100               	movlb	0	; () banked
  2987  003554  516C               	movf	usb_init@i& (0+255),w,b
  2988  003556  0D08               	mullw	8
  2989  003558  0E00               	movlw	0
  2990  00355A  24F3               	addwf	prodl,w,c
  2991  00355C  6ED9               	movwf	fsr2l,c
  2992  00355E  0E04               	movlw	4
  2993  003560  20F4               	addwfc	prodh,w,c
  2994  003562  6EDA               	movwf	fsr2h,c
  2995  003564  0E88               	movlw	136
  2996  003566  6EDF               	movwf	indf2,c
  2997  003568  D000               	goto	l3716
  2998  00356A                     l3716:
  2999                           
  3000                           ; BSR set to: 0
  3001                           ;usb.c: 640: bds[(i) * 2 + 1].BDnADR = (uint16_t) (ep_buf[i].in);
  3002  00356A  0100               	movlb	0	; () banked
  3003  00356C  516C               	movf	usb_init@i& (0+255),w,b
  3004  00356E  0D07               	mullw	7
  3005  003570  0E02               	movlw	2
  3006  003572  26F3               	addwf	prodl,f,c
  3007  003574  0E00               	movlw	0
  3008  003576  22F4               	addwfc	prodh,f,c
  3009  003578  0E00               	movlw	low _ep_buf
  3010  00357A  24F3               	addwf	prodl,w,c
  3011  00357C  6ED9               	movwf	fsr2l,c
  3012  00357E  0E01               	movlw	high _ep_buf
  3013  003580  20F4               	addwfc	prodh,w,c
  3014  003582  6EDA               	movwf	fsr2h,c
  3015  003584  0100               	movlb	0	; () banked
  3016  003586  516C               	movf	usb_init@i& (0+255),w,b
  3017  003588  0100               	movlb	0	; () banked
  3018  00358A  6F68               	movwf	??_usb_init& (0+255),b
  3019  00358C  6B69               	clrf	(??_usb_init+1)& (0+255),b
  3020  00358E  90D8               	bcf	status,0,c
  3021  003590  0100               	movlb	0	; () banked
  3022  003592  3768               	rlcf	??_usb_init& (0+255),f,b
  3023  003594  3769               	rlcf	(??_usb_init+1)& (0+255),f,b
  3024  003596  0100               	movlb	0	; () banked
  3025  003598  90D8               	bcf	status,0,c
  3026  00359A  3768               	rlcf	??_usb_init& (0+255),f,b
  3027  00359C  3769               	rlcf	(??_usb_init+1)& (0+255),f,b
  3028  00359E  0100               	movlb	0	; () banked
  3029  0035A0  90D8               	bcf	status,0,c
  3030  0035A2  3768               	rlcf	??_usb_init& (0+255),f,b
  3031  0035A4  3769               	rlcf	(??_usb_init+1)& (0+255),f,b
  3032  0035A6  0E06               	movlw	6
  3033  0035A8  0100               	movlb	0	; () banked
  3034  0035AA  2768               	addwf	??_usb_init& (0+255),f,b
  3035  0035AC  0E00               	movlw	0
  3036  0035AE  2369               	addwfc	(??_usb_init+1)& (0+255),f,b
  3037  0035B0  0E00               	movlw	0
  3038  0035B2  0100               	movlb	0	; () banked
  3039  0035B4  2568               	addwf	??_usb_init& (0+255),w,b
  3040  0035B6  6EE1               	movwf	fsr1l,c
  3041  0035B8  0E04               	movlw	4
  3042  0035BA  0100               	movlb	0	; () banked
  3043  0035BC  2169               	addwfc	(??_usb_init+1)& (0+255),w,b
  3044  0035BE  6EE2               	movwf	fsr1h,c
  3045  0035C0  CFDE FFE6          	movff	postinc2,postinc1
  3046  0035C4  CFDD FFE5          	movff	postdec2,postdec1
  3047  0035C8  D000               	goto	l3718
  3048  0035CA                     l3718:
  3049                           
  3050                           ; BSR set to: 0
  3051  0035CA  0100               	movlb	0	; () banked
  3052  0035CC  516C               	movf	usb_init@i& (0+255),w,b
  3053  0035CE  0D07               	mullw	7
  3054  0035D0  0E05               	movlw	5
  3055  0035D2  26F3               	addwf	prodl,f,c
  3056  0035D4  0E00               	movlw	0
  3057  0035D6  22F4               	addwfc	prodh,f,c
  3058  0035D8  0E00               	movlw	low _ep_buf
  3059  0035DA  24F3               	addwf	prodl,w,c
  3060  0035DC  6ED9               	movwf	fsr2l,c
  3061  0035DE  0E01               	movlw	high _ep_buf
  3062  0035E0  20F4               	addwfc	prodh,w,c
  3063  0035E2  6EDA               	movwf	fsr2h,c
  3064  0035E4  0100               	movlb	0	; () banked
  3065  0035E6  516C               	movf	usb_init@i& (0+255),w,b
  3066  0035E8  0100               	movlb	0	; () banked
  3067  0035EA  6F68               	movwf	??_usb_init& (0+255),b
  3068  0035EC  6B69               	clrf	(??_usb_init+1)& (0+255),b
  3069  0035EE  90D8               	bcf	status,0,c
  3070  0035F0  0100               	movlb	0	; () banked
  3071  0035F2  3768               	rlcf	??_usb_init& (0+255),f,b
  3072  0035F4  3769               	rlcf	(??_usb_init+1)& (0+255),f,b
  3073  0035F6  0100               	movlb	0	; () banked
  3074  0035F8  90D8               	bcf	status,0,c
  3075  0035FA  3768               	rlcf	??_usb_init& (0+255),f,b
  3076  0035FC  3769               	rlcf	(??_usb_init+1)& (0+255),f,b
  3077  0035FE  0100               	movlb	0	; () banked
  3078  003600  90D8               	bcf	status,0,c
  3079  003602  3768               	rlcf	??_usb_init& (0+255),f,b
  3080  003604  3769               	rlcf	(??_usb_init+1)& (0+255),f,b
  3081  003606  0E05               	movlw	5
  3082  003608  0100               	movlb	0	; () banked
  3083  00360A  2768               	addwf	??_usb_init& (0+255),f,b
  3084  00360C  0E00               	movlw	0
  3085  00360E  2369               	addwfc	(??_usb_init+1)& (0+255),f,b
  3086  003610  0E00               	movlw	0
  3087  003612  0100               	movlb	0	; () banked
  3088  003614  2568               	addwf	??_usb_init& (0+255),w,b
  3089  003616  6EE1               	movwf	fsr1l,c
  3090  003618  0E04               	movlw	4
  3091  00361A  0100               	movlb	0	; () banked
  3092  00361C  2169               	addwfc	(??_usb_init+1)& (0+255),w,b
  3093  00361E  6EE2               	movwf	fsr1h,c
  3094  003620  CFDF FFE7          	movff	indf2,indf1
  3095                           
  3096                           ; BSR set to: 0
  3097  003624  0100               	movlb	0	; () banked
  3098  003626  516C               	movf	usb_init@i& (0+255),w,b
  3099  003628  0100               	movlb	0	; () banked
  3100  00362A  6F68               	movwf	??_usb_init& (0+255),b
  3101  00362C  6B69               	clrf	(??_usb_init+1)& (0+255),b
  3102  00362E  90D8               	bcf	status,0,c
  3103  003630  0100               	movlb	0	; () banked
  3104  003632  3768               	rlcf	??_usb_init& (0+255),f,b
  3105  003634  3769               	rlcf	(??_usb_init+1)& (0+255),f,b
  3106  003636  0100               	movlb	0	; () banked
  3107  003638  90D8               	bcf	status,0,c
  3108  00363A  3768               	rlcf	??_usb_init& (0+255),f,b
  3109  00363C  3769               	rlcf	(??_usb_init+1)& (0+255),f,b
  3110  00363E  0100               	movlb	0	; () banked
  3111  003640  90D8               	bcf	status,0,c
  3112  003642  3768               	rlcf	??_usb_init& (0+255),f,b
  3113  003644  3769               	rlcf	(??_usb_init+1)& (0+255),f,b
  3114  003646  0E04               	movlw	4
  3115  003648  0100               	movlb	0	; () banked
  3116  00364A  2768               	addwf	??_usb_init& (0+255),f,b
  3117  00364C  0E00               	movlw	0
  3118  00364E  2369               	addwfc	(??_usb_init+1)& (0+255),f,b
  3119  003650  0E00               	movlw	0
  3120  003652  0100               	movlb	0	; () banked
  3121  003654  2568               	addwf	??_usb_init& (0+255),w,b
  3122  003656  6ED9               	movwf	fsr2l,c
  3123  003658  0E04               	movlw	4
  3124  00365A  0100               	movlb	0	; () banked
  3125  00365C  2169               	addwfc	(??_usb_init+1)& (0+255),w,b
  3126  00365E  6EDA               	movwf	fsr2h,c
  3127  003660  0E00               	movlw	0
  3128  003662  6EDF               	movwf	indf2,c
  3129  003664  D000               	goto	l3722
  3130  003666                     l3722:
  3131                           
  3132                           ; BSR set to: 0
  3133  003666  0100               	movlb	0	; () banked
  3134  003668  2B6C               	incf	usb_init@i& (0+255),f,b
  3135  00366A  D738               	goto	l3708
  3136  00366C                     l3726:
  3137                           
  3138                           ; BSR set to: 0
  3139                           ;usb.c: 647: }
  3140                           ;usb.c: 657: reset_ep0_data_stage();
  3141  00366C  EC0A  F024         	call	_reset_ep0_data_stage	;wreg free
  3142                           
  3143                           ;usb.c: 660: USBIE = 1;
  3144  003670  84A3               	bsf	4003,2,c	;volatile
  3145  003672  0012               	return		;funcret
  3146  003674                     __end_of_usb_init:
  3147                           	opt stack 0
  3148                           tblptru	equ	0xFF8
  3149                           tblptrh	equ	0xFF7
  3150                           tblptrl	equ	0xFF6
  3151                           tablat	equ	0xFF5
  3152                           prodh	equ	0xFF4
  3153                           prodl	equ	0xFF3
  3154                           intcon	equ	0xFF2
  3155                           postinc0	equ	0xFEE
  3156                           wreg	equ	0xFE8
  3157                           indf1	equ	0xFE7
  3158                           postinc1	equ	0xFE6
  3159                           postdec1	equ	0xFE5
  3160                           fsr1h	equ	0xFE2
  3161                           fsr1l	equ	0xFE1
  3162                           indf2	equ	0xFDF
  3163                           postinc2	equ	0xFDE
  3164                           postdec2	equ	0xFDD
  3165                           fsr2h	equ	0xFDA
  3166                           fsr2l	equ	0xFD9
  3167                           status	equ	0xFD8
  3168                           
  3169 ;; *************** function _reset_ep0_data_stage *****************
  3170 ;; Defined at:
  3171 ;;		line 467 in file "usb.c"
  3172 ;; Parameters:    Size  Location     Type
  3173 ;;		None
  3174 ;; Auto vars:     Size  Location     Type
  3175 ;;		None
  3176 ;; Return value:  Size  Location     Type
  3177 ;;		None               void
  3178 ;; Registers used:
  3179 ;;		wreg, status,2, status,0
  3180 ;; Tracked objects:
  3181 ;;		On entry : 0/0
  3182 ;;		On exit  : 0/0
  3183 ;;		Unchanged: 0/0
  3184 ;; Data sizes:     COMRAM   BANK0   BANK1   BANK2   BANK3   BANK4   BANK5   BANK6   BANK7
  3185 ;;      Params:         0       0       0       0       0       0       0       0       0
  3186 ;;      Locals:         0       0       0       0       0       0       0       0       0
  3187 ;;      Temps:          0       0       0       0       0       0       0       0       0
  3188 ;;      Totals:         0       0       0       0       0       0       0       0       0
  3189 ;;Total ram usage:        0 bytes
  3190 ;; Hardware stack levels used:    1
  3191 ;; Hardware stack levels required when called:    9
  3192 ;; This function calls:
  3193 ;;		Nothing
  3194 ;; This function is called by:
  3195 ;;		_usb_init
  3196 ;; This function uses a non-reentrant model
  3197 ;;
  3198                           
  3199                           	psect	text4
  3200  004814                     __ptext4:
  3201                           	opt stack 0
  3202  004814                     _reset_ep0_data_stage:
  3203                           	opt stack 20
  3204                           
  3205                           ;usb.c: 469: ep0_data_stage_in_buffer = (0);
  3206                           
  3207                           ;incstack = 0
  3208  004814  0E00               	movlw	0
  3209  004816  0101               	movlb	1	; () banked
  3210  004818  6F17               	movwf	_ep0_data_stage_in_buffer& (0+255),b
  3211  00481A  0E00               	movlw	0
  3212  00481C  0101               	movlb	1	; () banked
  3213  00481E  6F18               	movwf	(_ep0_data_stage_in_buffer+1)& (0+255),b
  3214                           
  3215                           ;usb.c: 470: ep0_data_stage_out_buffer = (0);
  3216  004820  0E00               	movlw	0
  3217  004822  0101               	movlb	1	; () banked
  3218  004824  6F19               	movwf	_ep0_data_stage_out_buffer& (0+255),b
  3219  004826  0E00               	movlw	0
  3220  004828  0101               	movlb	1	; () banked
  3221  00482A  6F1A               	movwf	(_ep0_data_stage_out_buffer+1)& (0+255),b
  3222                           
  3223                           ; BSR set to: 1
  3224                           ;usb.c: 471: ep0_data_stage_buf_remaining = 0;
  3225  00482C  0E00               	movlw	0
  3226  00482E  6E5C               	movwf	_ep0_data_stage_buf_remaining+1,c
  3227  004830  0E00               	movlw	0
  3228  004832  6E5B               	movwf	_ep0_data_stage_buf_remaining,c
  3229                           
  3230                           ; BSR set to: 1
  3231                           ;usb.c: 472: ep0_data_stage_callback = (0);
  3232  004834  0E00               	movlw	0
  3233  004836  6E5D               	movwf	_ep0_data_stage_callback,c
  3234  004838  0E00               	movlw	0
  3235  00483A  6E5E               	movwf	_ep0_data_stage_callback+1,c
  3236                           
  3237                           ; BSR set to: 1
  3238  00483C  0012               	return		;funcret
  3239  00483E                     __end_of_reset_ep0_data_stage:
  3240                           	opt stack 0
  3241                           tblptru	equ	0xFF8
  3242                           tblptrh	equ	0xFF7
  3243                           tblptrl	equ	0xFF6
  3244                           tablat	equ	0xFF5
  3245                           prodh	equ	0xFF4
  3246                           prodl	equ	0xFF3
  3247                           intcon	equ	0xFF2
  3248                           postinc0	equ	0xFEE
  3249                           wreg	equ	0xFE8
  3250                           indf1	equ	0xFE7
  3251                           postinc1	equ	0xFE6
  3252                           postdec1	equ	0xFE5
  3253                           fsr1h	equ	0xFE2
  3254                           fsr1l	equ	0xFE1
  3255                           indf2	equ	0xFDF
  3256                           postinc2	equ	0xFDE
  3257                           postdec2	equ	0xFDD
  3258                           fsr2h	equ	0xFDA
  3259                           fsr2l	equ	0xFD9
  3260                           status	equ	0xFD8
  3261                           
  3262 ;; *************** function _memset *****************
  3263 ;; Defined at:
  3264 ;;		line 8 in file "C:\Program Files (x86)\Microchip\xc8\v1.34\sources\common\memset.c"
  3265 ;; Parameters:    Size  Location     Type
  3266 ;;  p1              2    0[BANK0 ] PTR void 
  3267 ;;		 -> bds(24), UEP0(1), 
  3268 ;;  c               2    2[BANK0 ] int 
  3269 ;;  n               2    4[BANK0 ] unsigned int 
  3270 ;; Auto vars:     Size  Location     Type
  3271 ;;  p               2    6[BANK0 ] PTR unsigned char 
  3272 ;;		 -> bds(24), UEP0(1), 
  3273 ;; Return value:  Size  Location     Type
  3274 ;;                  2    0[BANK0 ] PTR void 
  3275 ;; Registers used:
  3276 ;;		wreg, fsr2l, fsr2h, status,2, status,0
  3277 ;; Tracked objects:
  3278 ;;		On entry : 0/0
  3279 ;;		On exit  : 0/0
  3280 ;;		Unchanged: 0/0
  3281 ;; Data sizes:     COMRAM   BANK0   BANK1   BANK2   BANK3   BANK4   BANK5   BANK6   BANK7
  3282 ;;      Params:         0       6       0       0       0       0       0       0       0
  3283 ;;      Locals:         0       2       0       0       0       0       0       0       0
  3284 ;;      Temps:          0       0       0       0       0       0       0       0       0
  3285 ;;      Totals:         0       8       0       0       0       0       0       0       0
  3286 ;;Total ram usage:        8 bytes
  3287 ;; Hardware stack levels used:    1
  3288 ;; Hardware stack levels required when called:    9
  3289 ;; This function calls:
  3290 ;;		Nothing
  3291 ;; This function is called by:
  3292 ;;		_usb_init
  3293 ;; This function uses a non-reentrant model
  3294 ;;
  3295                           
  3296                           	psect	text5
  3297  0046E8                     __ptext5:
  3298                           	opt stack 0
  3299  0046E8                     _memset:
  3300                           	opt stack 20
  3301                           
  3302                           ; BSR set to: 1
  3303                           ;incstack = 0
  3304  0046E8  C060  F066         	movff	memset@p1,memset@p
  3305  0046EC  C061  F067         	movff	memset@p1+1,memset@p+1
  3306  0046F0  D00A               	goto	l3312
  3307  0046F2                     l3308:
  3308  0046F2  C066  FFD9         	movff	memset@p,fsr2l
  3309  0046F6  C067  FFDA         	movff	memset@p+1,fsr2h
  3310  0046FA  C062  FFDF         	movff	memset@c,indf2
  3311  0046FE  0100               	movlb	0	; () banked
  3312  004700  4B66               	infsnz	memset@p& (0+255),f,b
  3313  004702  2B67               	incf	(memset@p+1)& (0+255),f,b
  3314  004704  D000               	goto	l3312
  3315  004706                     l3312:
  3316  004706  0100               	movlb	0	; () banked
  3317  004708  0764               	decf	memset@n& (0+255),f,b
  3318  00470A  A0D8               	btfss	status,0,c
  3319  00470C  0765               	decf	(memset@n+1)& (0+255),f,b
  3320  00470E  0100               	movlb	0	; () banked
  3321  004710  2964               	incf	memset@n& (0+255),w,b
  3322  004712  E1EF               	bnz	l3308
  3323  004714  0100               	movlb	0	; () banked
  3324  004716  2965               	incf	(memset@n+1)& (0+255),w,b
  3325  004718  A4D8               	btfss	status,2,c
  3326  00471A  D7EB               	goto	l3308
  3327                           
  3328                           ; BSR set to: 0
  3329                           
  3330                           ; BSR set to: 0
  3331                           ;	Return value of _memset is never used
  3332  00471C  0012               	return		;funcret
  3333  00471E                     __end_of_memset:
  3334                           	opt stack 0
  3335                           tblptru	equ	0xFF8
  3336                           tblptrh	equ	0xFF7
  3337                           tblptrl	equ	0xFF6
  3338                           tablat	equ	0xFF5
  3339                           prodh	equ	0xFF4
  3340                           prodl	equ	0xFF3
  3341                           intcon	equ	0xFF2
  3342                           postinc0	equ	0xFEE
  3343                           wreg	equ	0xFE8
  3344                           indf1	equ	0xFE7
  3345                           postinc1	equ	0xFE6
  3346                           postdec1	equ	0xFE5
  3347                           fsr1h	equ	0xFE2
  3348                           fsr1l	equ	0xFE1
  3349                           indf2	equ	0xFDF
  3350                           postinc2	equ	0xFDE
  3351                           postdec2	equ	0xFDD
  3352                           fsr2h	equ	0xFDA
  3353                           fsr2l	equ	0xFD9
  3354                           status	equ	0xFD8
  3355                           
  3356 ;; *************** function _usb_get_out_buffer *****************
  3357 ;; Defined at:
  3358 ;;		line 1501 in file "usb.c"
  3359 ;; Parameters:    Size  Location     Type
  3360 ;;  endpoint        1    wreg     unsigned char 
  3361 ;;  buf             2    0[BANK0 ] PTR PTR const unsigned c
  3362 ;;		 -> main@out_buf(2), 
  3363 ;; Auto vars:     Size  Location     Type
  3364 ;;  endpoint        1    2[BANK0 ] unsigned char 
  3365 ;; Return value:  Size  Location     Type
  3366 ;;                  1    wreg      unsigned char 
  3367 ;; Registers used:
  3368 ;;		wreg, fsr1l, fsr1h, fsr2l, fsr2h, status,2, status,0, prodl, prodh
  3369 ;; Tracked objects:
  3370 ;;		On entry : 0/0
  3371 ;;		On exit  : 0/0
  3372 ;;		Unchanged: 0/0
  3373 ;; Data sizes:     COMRAM   BANK0   BANK1   BANK2   BANK3   BANK4   BANK5   BANK6   BANK7
  3374 ;;      Params:         0       2       0       0       0       0       0       0       0
  3375 ;;      Locals:         0       1       0       0       0       0       0       0       0
  3376 ;;      Temps:          0       0       0       0       0       0       0       0       0
  3377 ;;      Totals:         0       3       0       0       0       0       0       0       0
  3378 ;;Total ram usage:        3 bytes
  3379 ;; Hardware stack levels used:    1
  3380 ;; Hardware stack levels required when called:    9
  3381 ;; This function calls:
  3382 ;;		Nothing
  3383 ;; This function is called by:
  3384 ;;		_main
  3385 ;; This function uses a non-reentrant model
  3386 ;;
  3387                           
  3388                           	psect	text6
  3389  004624                     __ptext6:
  3390                           	opt stack 0
  3391  004624                     _usb_get_out_buffer:
  3392                           	opt stack 21
  3393                           
  3394                           ; BSR set to: 0
  3395                           ;incstack = 0
  3396                           ;usb_get_out_buffer@endpoint stored from wreg
  3397  004624  0100               	movlb	0	; () banked
  3398  004626  6F62               	movwf	usb_get_out_buffer@endpoint& (0+255),b
  3399                           
  3400                           ; BSR set to: 0
  3401                           ;usb.c: 1513: *buf = ep_buf[endpoint].out;
  3402  004628  0100               	movlb	0	; () banked
  3403  00462A  5162               	movf	usb_get_out_buffer@endpoint& (0+255),w,b
  3404  00462C  0D07               	mullw	7
  3405  00462E  0E00               	movlw	low _ep_buf
  3406  004630  24F3               	addwf	prodl,w,c
  3407  004632  6ED9               	movwf	fsr2l,c
  3408  004634  0E01               	movlw	high _ep_buf
  3409  004636  20F4               	addwfc	prodh,w,c
  3410  004638  6EDA               	movwf	fsr2h,c
  3411  00463A  C060  FFE1         	movff	usb_get_out_buffer@buf,fsr1l
  3412  00463E  C061  FFE2         	movff	usb_get_out_buffer@buf+1,fsr1h
  3413  004642  CFDE FFE6          	movff	postinc2,postinc1
  3414  004646  CFDD FFE5          	movff	postdec2,postdec1
  3415                           
  3416                           ; BSR set to: 0
  3417                           ;usb.c: 1514: return (bds[(endpoint) * 2].BDnCNT);
  3418  00464A  0100               	movlb	0	; () banked
  3419  00464C  5162               	movf	usb_get_out_buffer@endpoint& (0+255),w,b
  3420  00464E  0D08               	mullw	8
  3421  004650  0E01               	movlw	1
  3422  004652  26F3               	addwf	prodl,f,c
  3423  004654  0E00               	movlw	0
  3424  004656  22F4               	addwfc	prodh,f,c
  3425  004658  0E00               	movlw	0
  3426  00465A  24F3               	addwf	prodl,w,c
  3427  00465C  6ED9               	movwf	fsr2l,c
  3428  00465E  0E04               	movlw	4
  3429  004660  20F4               	addwfc	prodh,w,c
  3430  004662  6EDA               	movwf	fsr2h,c
  3431  004664  50DF               	movf	indf2,w,c
  3432  004666  0012               	return	
  3433                           
  3434                           ; BSR set to: 0
  3435                           
  3436                           ; BSR set to: 0
  3437  004668  0012               	return		;funcret
  3438  00466A                     __end_of_usb_get_out_buffer:
  3439                           	opt stack 0
  3440                           tblptru	equ	0xFF8
  3441                           tblptrh	equ	0xFF7
  3442                           tblptrl	equ	0xFF6
  3443                           tablat	equ	0xFF5
  3444                           prodh	equ	0xFF4
  3445                           prodl	equ	0xFF3
  3446                           intcon	equ	0xFF2
  3447                           postinc0	equ	0xFEE
  3448                           wreg	equ	0xFE8
  3449                           indf1	equ	0xFE7
  3450                           postinc1	equ	0xFE6
  3451                           postdec1	equ	0xFE5
  3452                           fsr1h	equ	0xFE2
  3453                           fsr1l	equ	0xFE1
  3454                           indf2	equ	0xFDF
  3455                           postinc2	equ	0xFDE
  3456                           postdec2	equ	0xFDD
  3457                           fsr2h	equ	0xFDA
  3458                           fsr2l	equ	0xFD9
  3459                           status	equ	0xFD8
  3460                           
  3461 ;; *************** function _usb_get_configuration *****************
  3462 ;; Defined at:
  3463 ;;		line 1427 in file "usb.c"
  3464 ;; Parameters:    Size  Location     Type
  3465 ;;		None
  3466 ;; Auto vars:     Size  Location     Type
  3467 ;;		None
  3468 ;; Return value:  Size  Location     Type
  3469 ;;                  1    wreg      unsigned char 
  3470 ;; Registers used:
  3471 ;;		wreg, status,2
  3472 ;; Tracked objects:
  3473 ;;		On entry : 0/0
  3474 ;;		On exit  : 0/0
  3475 ;;		Unchanged: 0/0
  3476 ;; Data sizes:     COMRAM   BANK0   BANK1   BANK2   BANK3   BANK4   BANK5   BANK6   BANK7
  3477 ;;      Params:         0       0       0       0       0       0       0       0       0
  3478 ;;      Locals:         0       0       0       0       0       0       0       0       0
  3479 ;;      Temps:          0       0       0       0       0       0       0       0       0
  3480 ;;      Totals:         0       0       0       0       0       0       0       0       0
  3481 ;;Total ram usage:        0 bytes
  3482 ;; Hardware stack levels used:    1
  3483 ;; Hardware stack levels required when called:    9
  3484 ;; This function calls:
  3485 ;;		Nothing
  3486 ;; This function is called by:
  3487 ;;		_main
  3488 ;; This function uses a non-reentrant model
  3489 ;;
  3490                           
  3491                           	psect	text7
  3492  0049F6                     __ptext7:
  3493                           	opt stack 0
  3494  0049F6                     _usb_get_configuration:
  3495                           	opt stack 21
  3496                           
  3497                           ;usb.c: 1429: return g_configuration;
  3498                           
  3499                           ; BSR set to: 0
  3500                           ;incstack = 0
  3501  0049F6  505F               	movf	_g_configuration,w,c
  3502  0049F8  0012               	return	
  3503  0049FA  0012               	return		;funcret
  3504  0049FC                     __end_of_usb_get_configuration:
  3505                           	opt stack 0
  3506                           tblptru	equ	0xFF8
  3507                           tblptrh	equ	0xFF7
  3508                           tblptrl	equ	0xFF6
  3509                           tablat	equ	0xFF5
  3510                           prodh	equ	0xFF4
  3511                           prodl	equ	0xFF3
  3512                           intcon	equ	0xFF2
  3513                           postinc0	equ	0xFEE
  3514                           wreg	equ	0xFE8
  3515                           indf1	equ	0xFE7
  3516                           postinc1	equ	0xFE6
  3517                           postdec1	equ	0xFE5
  3518                           fsr1h	equ	0xFE2
  3519                           fsr1l	equ	0xFE1
  3520                           indf2	equ	0xFDF
  3521                           postinc2	equ	0xFDE
  3522                           postdec2	equ	0xFDD
  3523                           fsr2h	equ	0xFDA
  3524                           fsr2l	equ	0xFD9
  3525                           status	equ	0xFD8
  3526                           
  3527 ;; *************** function _usb_arm_out_endpoint *****************
  3528 ;; Defined at:
  3529 ;;		line 1528 in file "usb.c"
  3530 ;; Parameters:    Size  Location     Type
  3531 ;;  endpoint        1    wreg     unsigned char 
  3532 ;; Auto vars:     Size  Location     Type
  3533 ;;  endpoint        1    1[BANK0 ] unsigned char 
  3534 ;;  pid             1    0[BANK0 ] unsigned char 
  3535 ;; Return value:  Size  Location     Type
  3536 ;;		None               void
  3537 ;; Registers used:
  3538 ;;		wreg, fsr1l, fsr1h, fsr2l, fsr2h, status,2, status,0, prodl, prodh
  3539 ;; Tracked objects:
  3540 ;;		On entry : 0/0
  3541 ;;		On exit  : 0/0
  3542 ;;		Unchanged: 0/0
  3543 ;; Data sizes:     COMRAM   BANK0   BANK1   BANK2   BANK3   BANK4   BANK5   BANK6   BANK7
  3544 ;;      Params:         0       0       0       0       0       0       0       0       0
  3545 ;;      Locals:         0       2       0       0       0       0       0       0       0
  3546 ;;      Temps:          0       0       0       0       0       0       0       0       0
  3547 ;;      Totals:         0       2       0       0       0       0       0       0       0
  3548 ;;Total ram usage:        2 bytes
  3549 ;; Hardware stack levels used:    1
  3550 ;; Hardware stack levels required when called:    9
  3551 ;; This function calls:
  3552 ;;		Nothing
  3553 ;; This function is called by:
  3554 ;;		_main
  3555 ;; This function uses a non-reentrant model
  3556 ;;
  3557                           
  3558                           	psect	text8
  3559  003D18                     __ptext8:
  3560                           	opt stack 0
  3561  003D18                     _usb_arm_out_endpoint:
  3562                           	opt stack 21
  3563                           
  3564                           ;incstack = 0
  3565                           ;usb_arm_out_endpoint@endpoint stored from wreg
  3566  003D18  0100               	movlb	0	; () banked
  3567  003D1A  6F61               	movwf	usb_arm_out_endpoint@endpoint& (0+255),b
  3568                           
  3569                           ; BSR set to: 0
  3570                           ;usb.c: 1548: uint8_t pid = (ep_buf[endpoint].flags & 0x4)? 1: 0;
  3571  003D1C  0100               	movlb	0	; () banked
  3572  003D1E  5161               	movf	usb_arm_out_endpoint@endpoint& (0+255),w,b
  3573  003D20  0D07               	mullw	7
  3574  003D22  0E06               	movlw	6
  3575  003D24  26F3               	addwf	prodl,f,c
  3576  003D26  0E00               	movlw	0
  3577  003D28  22F4               	addwfc	prodh,f,c
  3578  003D2A  0E00               	movlw	low _ep_buf
  3579  003D2C  24F3               	addwf	prodl,w,c
  3580  003D2E  6ED9               	movwf	fsr2l,c
  3581  003D30  0E01               	movlw	high _ep_buf
  3582  003D32  20F4               	addwfc	prodh,w,c
  3583  003D34  6EDA               	movwf	fsr2h,c
  3584  003D36  0101               	movlb	1	; () banked
  3585  003D38  A4DF               	btfss	indf2,2,c
  3586  003D3A  D002               	goto	u3800
  3587  003D3C  0E01               	movlw	1
  3588  003D3E  D001               	goto	u3810
  3589  003D40                     u3800:
  3590  003D40  0E00               	movlw	0
  3591  003D42                     u3810:
  3592  003D42  0100               	movlb	0	; () banked
  3593  003D44  6F60               	movwf	usb_arm_out_endpoint@pid& (0+255),b
  3594                           
  3595                           ; BSR set to: 0
  3596                           ;usb.c: 1549: if (pid)
  3597  003D46  0100               	movlb	0	; () banked
  3598  003D48  5160               	movf	usb_arm_out_endpoint@pid& (0+255),w,b
  3599  003D4A  0100               	movlb	0	; () banked
  3600  003D4C  B4D8               	btfsc	status,2,c
  3601  003D4E  D029               	goto	l3836
  3602                           
  3603                           ; BSR set to: 0
  3604                           
  3605                           ; BSR set to: 0
  3606                           
  3607                           ;usb.c: 1550: do { (bds[(endpoint) * 2]).BDnCNT = (ep_buf[endpoint].out_len); (bds[(endp
      +                          oint) * 2]).STAT.BDnSTAT = (0x80|0x40|0x08); } while(0);
  3608  003D50  0100               	movlb	0	; () banked
  3609  003D52  5161               	movf	usb_arm_out_endpoint@endpoint& (0+255),w,b
  3610  003D54  0D07               	mullw	7
  3611  003D56  0E04               	movlw	4
  3612  003D58  26F3               	addwf	prodl,f,c
  3613  003D5A  0E00               	movlw	0
  3614  003D5C  22F4               	addwfc	prodh,f,c
  3615  003D5E  0E00               	movlw	low _ep_buf
  3616  003D60  24F3               	addwf	prodl,w,c
  3617  003D62  6ED9               	movwf	fsr2l,c
  3618  003D64  0E01               	movlw	high _ep_buf
  3619  003D66  20F4               	addwfc	prodh,w,c
  3620  003D68  6EDA               	movwf	fsr2h,c
  3621  003D6A  0100               	movlb	0	; () banked
  3622  003D6C  5161               	movf	usb_arm_out_endpoint@endpoint& (0+255),w,b
  3623  003D6E  0D08               	mullw	8
  3624  003D70  0E01               	movlw	1
  3625  003D72  26F3               	addwf	prodl,f,c
  3626  003D74  0E00               	movlw	0
  3627  003D76  22F4               	addwfc	prodh,f,c
  3628  003D78  0E00               	movlw	0
  3629  003D7A  24F3               	addwf	prodl,w,c
  3630  003D7C  6EE1               	movwf	fsr1l,c
  3631  003D7E  0E04               	movlw	4
  3632  003D80  20F4               	addwfc	prodh,w,c
  3633  003D82  6EE2               	movwf	fsr1h,c
  3634  003D84  CFDF FFE7          	movff	indf2,indf1
  3635                           
  3636                           ; BSR set to: 0
  3637  003D88  0100               	movlb	0	; () banked
  3638  003D8A  5161               	movf	usb_arm_out_endpoint@endpoint& (0+255),w,b
  3639  003D8C  0D08               	mullw	8
  3640  003D8E  0E00               	movlw	0
  3641  003D90  24F3               	addwf	prodl,w,c
  3642  003D92  6ED9               	movwf	fsr2l,c
  3643  003D94  0E04               	movlw	4
  3644  003D96  20F4               	addwfc	prodh,w,c
  3645  003D98  6EDA               	movwf	fsr2h,c
  3646  003D9A  0EC8               	movlw	200
  3647  003D9C  D028               	goto	L3
  3648                           
  3649                           ; BSR set to: 0
  3650  003D9E  D029               	goto	l3840
  3651                           
  3652                           ; BSR set to: 0
  3653  003DA0  D000               	goto	l3836
  3654  003DA2                     l3836:
  3655                           
  3656                           ; BSR set to: 0
  3657  003DA2  0100               	movlb	0	; () banked
  3658  003DA4  5161               	movf	usb_arm_out_endpoint@endpoint& (0+255),w,b
  3659  003DA6  0D07               	mullw	7
  3660  003DA8  0E04               	movlw	4
  3661  003DAA  26F3               	addwf	prodl,f,c
  3662  003DAC  0E00               	movlw	0
  3663  003DAE  22F4               	addwfc	prodh,f,c
  3664  003DB0  0E00               	movlw	low _ep_buf
  3665  003DB2  24F3               	addwf	prodl,w,c
  3666  003DB4  6ED9               	movwf	fsr2l,c
  3667  003DB6  0E01               	movlw	high _ep_buf
  3668  003DB8  20F4               	addwfc	prodh,w,c
  3669  003DBA  6EDA               	movwf	fsr2h,c
  3670  003DBC  0100               	movlb	0	; () banked
  3671  003DBE  5161               	movf	usb_arm_out_endpoint@endpoint& (0+255),w,b
  3672  003DC0  0D08               	mullw	8
  3673  003DC2  0E01               	movlw	1
  3674  003DC4  26F3               	addwf	prodl,f,c
  3675  003DC6  0E00               	movlw	0
  3676  003DC8  22F4               	addwfc	prodh,f,c
  3677  003DCA  0E00               	movlw	0
  3678  003DCC  24F3               	addwf	prodl,w,c
  3679  003DCE  6EE1               	movwf	fsr1l,c
  3680  003DD0  0E04               	movlw	4
  3681  003DD2  20F4               	addwfc	prodh,w,c
  3682  003DD4  6EE2               	movwf	fsr1h,c
  3683  003DD6  CFDF FFE7          	movff	indf2,indf1
  3684                           
  3685                           ; BSR set to: 0
  3686  003DDA  0100               	movlb	0	; () banked
  3687  003DDC  5161               	movf	usb_arm_out_endpoint@endpoint& (0+255),w,b
  3688  003DDE  0D08               	mullw	8
  3689  003DE0  0E00               	movlw	0
  3690  003DE2  24F3               	addwf	prodl,w,c
  3691  003DE4  6ED9               	movwf	fsr2l,c
  3692  003DE6  0E04               	movlw	4
  3693  003DE8  20F4               	addwfc	prodh,w,c
  3694  003DEA  6EDA               	movwf	fsr2h,c
  3695  003DEC  0E88               	movlw	136
  3696  003DEE                     L3:
  3697  003DEE  6EDF               	movwf	indf2,c
  3698                           
  3699                           ; BSR set to: 0
  3700  003DF0  D000               	goto	l3840
  3701  003DF2                     l3840:
  3702                           
  3703                           ; BSR set to: 0
  3704                           ;usb.c: 1558: ep_buf[endpoint].flags ^= 0x4;
  3705  003DF2  0100               	movlb	0	; () banked
  3706  003DF4  5161               	movf	usb_arm_out_endpoint@endpoint& (0+255),w,b
  3707  003DF6  0D07               	mullw	7
  3708  003DF8  0E06               	movlw	6
  3709  003DFA  26F3               	addwf	prodl,f,c
  3710  003DFC  0E00               	movlw	0
  3711  003DFE  22F4               	addwfc	prodh,f,c
  3712  003E00  0E00               	movlw	low _ep_buf
  3713  003E02  24F3               	addwf	prodl,w,c
  3714  003E04  6ED9               	movwf	fsr2l,c
  3715  003E06  0E01               	movlw	high _ep_buf
  3716  003E08  20F4               	addwfc	prodh,w,c
  3717  003E0A  6EDA               	movwf	fsr2h,c
  3718  003E0C  0E04               	movlw	4
  3719  003E0E  1ADF               	xorwf	indf2,f,c
  3720                           
  3721                           ; BSR set to: 0
  3722  003E10  0012               	return		;funcret
  3723  003E12                     __end_of_usb_arm_out_endpoint:
  3724                           	opt stack 0
  3725                           tblptru	equ	0xFF8
  3726                           tblptrh	equ	0xFF7
  3727                           tblptrl	equ	0xFF6
  3728                           tablat	equ	0xFF5
  3729                           prodh	equ	0xFF4
  3730                           prodl	equ	0xFF3
  3731                           intcon	equ	0xFF2
  3732                           postinc0	equ	0xFEE
  3733                           wreg	equ	0xFE8
  3734                           indf1	equ	0xFE7
  3735                           postinc1	equ	0xFE6
  3736                           postdec1	equ	0xFE5
  3737                           fsr1h	equ	0xFE2
  3738                           fsr1l	equ	0xFE1
  3739                           indf2	equ	0xFDF
  3740                           postinc2	equ	0xFDE
  3741                           postdec2	equ	0xFDD
  3742                           fsr2h	equ	0xFDA
  3743                           fsr2l	equ	0xFD9
  3744                           status	equ	0xFD8
  3745                           
  3746 ;; *************** function _timers_init *****************
  3747 ;; Defined at:
  3748 ;;		line 41 in file "timers.c"
  3749 ;; Parameters:    Size  Location     Type
  3750 ;;		None
  3751 ;; Auto vars:     Size  Location     Type
  3752 ;;		None
  3753 ;; Return value:  Size  Location     Type
  3754 ;;		None               void
  3755 ;; Registers used:
  3756 ;;		wreg, status,2
  3757 ;; Tracked objects:
  3758 ;;		On entry : 0/0
  3759 ;;		On exit  : 0/0
  3760 ;;		Unchanged: 0/0
  3761 ;; Data sizes:     COMRAM   BANK0   BANK1   BANK2   BANK3   BANK4   BANK5   BANK6   BANK7
  3762 ;;      Params:         0       0       0       0       0       0       0       0       0
  3763 ;;      Locals:         0       0       0       0       0       0       0       0       0
  3764 ;;      Temps:          0       0       0       0       0       0       0       0       0
  3765 ;;      Totals:         0       0       0       0       0       0       0       0       0
  3766 ;;Total ram usage:        0 bytes
  3767 ;; Hardware stack levels used:    1
  3768 ;; Hardware stack levels required when called:    9
  3769 ;; This function calls:
  3770 ;;		Nothing
  3771 ;; This function is called by:
  3772 ;;		_main
  3773 ;; This function uses a non-reentrant model
  3774 ;;
  3775                           
  3776                           	psect	text9
  3777  00478A                     __ptext9:
  3778                           	opt stack 0
  3779  00478A                     _timers_init:
  3780                           	opt stack 21
  3781                           
  3782                           ;timers.c: 43: ledState=0;
  3783                           
  3784                           ; BSR set to: 0
  3785                           ;incstack = 0
  3786  00478A  0E00               	movlw	0
  3787  00478C  0101               	movlb	1	; () banked
  3788  00478E  6F1C               	movwf	(_ledState+1)& (0+255),b
  3789  004790  0E00               	movlw	0
  3790  004792  6F1B               	movwf	_ledState& (0+255),b
  3791                           
  3792                           ;timers.c: 44: sendDataToPC = 0;
  3793  004794  0E00               	movlw	0
  3794  004796  0100               	movlb	0	; () banked
  3795  004798  6FF8               	movwf	_sendDataToPC& (0+255),b
  3796                           
  3797                           ; BSR set to: 0
  3798                           ;timers.c: 47: TRISBbits.TRISB6 = 0;
  3799  00479A  9C93               	bcf	3987,6,c	;volatile
  3800                           
  3801                           ;timers.c: 50: T1CON = 0;
  3802  00479C  0E00               	movlw	0
  3803  00479E  6ECD               	movwf	4045,c	;volatile
  3804                           
  3805                           ; BSR set to: 0
  3806                           ;timers.c: 51: T1CONbits.T1CKPS0 = 1;
  3807  0047A0  88CD               	bsf	4045,4,c	;volatile
  3808                           
  3809                           ; BSR set to: 0
  3810                           ;timers.c: 52: T1CONbits.T1CKPS1 = 1;
  3811  0047A2  8ACD               	bsf	4045,5,c	;volatile
  3812                           
  3813                           ;timers.c: 62: TMR1H = 0x0B;
  3814  0047A4  0E0B               	movlw	11
  3815  0047A6  6ECF               	movwf	4047,c	;volatile
  3816                           
  3817                           ;timers.c: 63: TMR1L = 0xDB;
  3818  0047A8  0EDB               	movlw	219
  3819  0047AA  6ECE               	movwf	4046,c	;volatile
  3820                           
  3821                           ; BSR set to: 0
  3822                           ;timers.c: 64: T1CONbits.TMR1ON = 1;
  3823  0047AC  80CD               	bsf	4045,0,c	;volatile
  3824                           
  3825                           ; BSR set to: 0
  3826                           ;timers.c: 65: INTCONbits.GIE = 1;
  3827  0047AE  8EF2               	bsf	intcon,7,c	;volatile
  3828                           
  3829                           ; BSR set to: 0
  3830                           ;timers.c: 66: INTCONbits.PEIE = 1;
  3831  0047B0  8CF2               	bsf	intcon,6,c	;volatile
  3832                           
  3833                           ; BSR set to: 0
  3834                           ;timers.c: 67: PIR1bits.TMR1IF = 0;
  3835  0047B2  909E               	bcf	3998,0,c	;volatile
  3836                           
  3837                           ; BSR set to: 0
  3838                           ;timers.c: 68: PIE1bits.TMR1IE = 1;
  3839  0047B4  809D               	bsf	3997,0,c	;volatile
  3840                           
  3841                           ; BSR set to: 0
  3842  0047B6  0012               	return		;funcret
  3843  0047B8                     __end_of_timers_init:
  3844                           	opt stack 0
  3845                           tblptru	equ	0xFF8
  3846                           tblptrh	equ	0xFF7
  3847                           tblptrl	equ	0xFF6
  3848                           tablat	equ	0xFF5
  3849                           prodh	equ	0xFF4
  3850                           prodl	equ	0xFF3
  3851                           intcon	equ	0xFF2
  3852                           postinc0	equ	0xFEE
  3853                           wreg	equ	0xFE8
  3854                           indf1	equ	0xFE7
  3855                           postinc1	equ	0xFE6
  3856                           postdec1	equ	0xFE5
  3857                           fsr1h	equ	0xFE2
  3858                           fsr1l	equ	0xFE1
  3859                           indf2	equ	0xFDF
  3860                           postinc2	equ	0xFDE
  3861                           postdec2	equ	0xFDD
  3862                           fsr2h	equ	0xFDA
  3863                           fsr2l	equ	0xFD9
  3864                           status	equ	0xFD8
  3865                           
  3866 ;; *************** function _sprintf *****************
  3867 ;; Defined at:
  3868 ;;		line 492 in file "C:\Program Files (x86)\Microchip\xc8\v1.34\sources\common\doprnt.c"
  3869 ;; Parameters:    Size  Location     Type
  3870 ;;  sp              2   12[BANK0 ] PTR unsigned char 
  3871 ;;		 -> NULL(0), ep_buffers(155), 
  3872 ;;  f               2   14[BANK0 ] PTR const unsigned char 
  3873 ;;		 -> STR_3(3), 
  3874 ;; Auto vars:     Size  Location     Type
  3875 ;;  tmpval          4    0        struct .
  3876 ;;  cp              3    0        PTR const unsigned char 
  3877 ;;  val             2   23[BANK0 ] unsigned int 
  3878 ;;  ap              2   19[BANK0 ] PTR void [1]
  3879 ;;		 -> ?_sprintf(2), 
  3880 ;;  len             2    0        unsigned int 
  3881 ;;  c               1   25[BANK0 ] char 
  3882 ;;  prec            1   22[BANK0 ] char 
  3883 ;;  flag            1   21[BANK0 ] unsigned char 
  3884 ;; Return value:  Size  Location     Type
  3885 ;;                  2   12[BANK0 ] int 
  3886 ;; Registers used:
  3887 ;;		wreg, fsr2l, fsr2h, status,2, status,0, tblptrl, tblptrh, tblptru, prodl, prodh, cstack
  3888 ;; Tracked objects:
  3889 ;;		On entry : 0/0
  3890 ;;		On exit  : 0/0
  3891 ;;		Unchanged: 0/0
  3892 ;; Data sizes:     COMRAM   BANK0   BANK1   BANK2   BANK3   BANK4   BANK5   BANK6   BANK7
  3893 ;;      Params:         0       6       0       0       0       0       0       0       0
  3894 ;;      Locals:         0       7       0       0       0       0       0       0       0
  3895 ;;      Temps:          0       1       0       0       0       0       0       0       0
  3896 ;;      Totals:         0      14       0       0       0       0       0       0       0
  3897 ;;Total ram usage:       14 bytes
  3898 ;; Hardware stack levels used:    1
  3899 ;; Hardware stack levels required when called:   10
  3900 ;; This function calls:
  3901 ;;		___lwdiv
  3902 ;;		___lwmod
  3903 ;; This function is called by:
  3904 ;;		_main
  3905 ;; This function uses a non-reentrant model
  3906 ;;
  3907                           
  3908                           	psect	text10
  3909  0038FC                     __ptext10:
  3910                           	opt stack 0
  3911  0038FC                     _sprintf:
  3912                           	opt stack 20
  3913                           
  3914                           ;doprnt.c: 494: va_list ap;
  3915                           ;doprnt.c: 499: signed char c;
  3916                           ;doprnt.c: 506: signed char prec;
  3917                           ;doprnt.c: 508: unsigned char flag;
  3918                           ;doprnt.c: 523: union {
  3919                           ;doprnt.c: 524: unsigned long vd;
  3920                           ;doprnt.c: 525: double integ;
  3921                           ;doprnt.c: 526: } tmpval;
  3922                           ;doprnt.c: 528: unsigned int val;
  3923                           ;doprnt.c: 529: unsigned len;
  3924                           ;doprnt.c: 530: const char * cp;
  3925                           ;doprnt.c: 533: *ap = __va_start();
  3926                           
  3927                           ; BSR set to: 0
  3928                           ;incstack = 0
  3929  0038FC  0E70               	movlw	low (?_sprintf+4)
  3930  0038FE  0100               	movlb	0	; () banked
  3931  003900  6F73               	movwf	sprintf@ap& (0+255),b
  3932  003902  0E00               	movlw	high (?_sprintf+4)
  3933  003904  0100               	movlb	0	; () banked
  3934  003906  6F74               	movwf	(sprintf@ap+1)& (0+255),b
  3935                           
  3936                           ;doprnt.c: 536: while(c = *f++) {
  3937  003908  D0B2               	goto	l3930
  3938  00390A                     l3878:
  3939                           
  3940                           ; BSR set to: 0
  3941                           ;doprnt.c: 538: if(c != '%')
  3942  00390A  0E25               	movlw	37
  3943  00390C  0100               	movlb	0	; () banked
  3944  00390E  1979               	xorwf	sprintf@c& (0+255),w,b
  3945  003910  B4D8               	btfsc	status,2,c
  3946  003912  D00A               	goto	l3884
  3947                           
  3948                           ; BSR set to: 0
  3949                           ;doprnt.c: 540: {
  3950                           ;doprnt.c: 541: ((*sp++ = (c)));
  3951  003914  C06C  FFD9         	movff	sprintf@sp,fsr2l
  3952  003918  C06D  FFDA         	movff	sprintf@sp+1,fsr2h
  3953  00391C  C079  FFDF         	movff	sprintf@c,indf2
  3954                           
  3955                           ; BSR set to: 0
  3956  003920  0100               	movlb	0	; () banked
  3957  003922  4B6C               	infsnz	sprintf@sp& (0+255),f,b
  3958  003924  2B6D               	incf	(sprintf@sp+1)& (0+255),f,b
  3959                           
  3960                           ;doprnt.c: 542: continue;
  3961  003926  D0A3               	goto	l3930
  3962  003928                     l3884:
  3963                           
  3964                           ; BSR set to: 0
  3965                           ;doprnt.c: 543: }
  3966                           ;doprnt.c: 548: flag = 0;
  3967  003928  0E00               	movlw	0
  3968  00392A  0100               	movlb	0	; () banked
  3969  00392C  6F75               	movwf	sprintf@flag& (0+255),b
  3970                           
  3971                           ;doprnt.c: 635: switch(c = *f++) {
  3972  00392E  D004               	goto	l3888
  3973                           
  3974                           ; BSR set to: 0
  3975                           ;doprnt.c: 638: goto alldone;
  3976                           
  3977                           ;doprnt.c: 637: case 0:
  3978  003930  D0AE               	goto	l3932
  3979                           
  3980                           ; BSR set to: 0
  3981                           ;doprnt.c: 698: case 'i':
  3982                           ;doprnt.c: 699: break;
  3983                           
  3984                           ; BSR set to: 0
  3985                           
  3986                           ;doprnt.c: 697: case 'd':
  3987  003932  D017               	goto	l3890
  3988                           
  3989                           ; BSR set to: 0
  3990                           ;doprnt.c: 813: continue;
  3991                           
  3992                           ;doprnt.c: 802: default:
  3993  003934  D09C               	goto	l3930
  3994                           
  3995                           ; BSR set to: 0
  3996                           ;doprnt.c: 822: }
  3997  003936  D015               	goto	l3890
  3998  003938                     l3888:
  3999                           
  4000                           ; BSR set to: 0
  4001  003938  C06E  FFF6         	movff	sprintf@f,tblptrl
  4002  00393C  C06F  FFF7         	movff	sprintf@f+1,tblptrh
  4003  003940  0100               	movlb	0	; () banked
  4004  003942  4B6E               	infsnz	sprintf@f& (0+255),f,b
  4005  003944  2B6F               	incf	(sprintf@f+1)& (0+255),f,b
  4006  003946                     	if	0	;tblptru may be non-zero
  4007  003946                     	endif
  4008  003946                     	if	0	;tblptru may be non-zero
  4009  003946                     	endif
  4010  003946  0008               	tblrd		*
  4011  003948  CFF5 F079          	movff	tablat,sprintf@c
  4012  00394C  0100               	movlb	0	; () banked
  4013  00394E  5179               	movf	sprintf@c& (0+255),w,b
  4014                           
  4015                           ; Switch size 1, requested type "space"
  4016                           ; Number of cases is 3, Range of values is 0 to 105
  4017                           ; switch strategies available:
  4018                           ; Name         Instructions Cycles
  4019                           ; simple_byte           10     6 (average)
  4020                           ;	Chosen strategy is simple_byte
  4021  003950  0A00               	xorlw	0	; case 0
  4022  003952  B4D8               	btfsc	status,2,c
  4023  003954  D09C               	goto	l3932
  4024  003956  0A64               	xorlw	100	; case 100
  4025  003958  B4D8               	btfsc	status,2,c
  4026  00395A  D003               	goto	l3890
  4027  00395C  0A0D               	xorlw	13	; case 105
  4028  00395E  A4D8               	btfss	status,2,c
  4029  003960  D086               	goto	l3930
  4030  003962                     l3890:
  4031                           
  4032                           ; BSR set to: 0
  4033                           ;doprnt.c: 1253: {
  4034                           ;doprnt.c: 1259: val = (int)(*(int *)__va_arg((*(int **)ap), (int)0));
  4035  003962  C073  FFD9         	movff	sprintf@ap,fsr2l
  4036  003966  C074  FFDA         	movff	sprintf@ap+1,fsr2h
  4037  00396A  CFDE F077          	movff	postinc2,sprintf@val
  4038  00396E  CFDD F078          	movff	postdec2,sprintf@val+1
  4039                           
  4040                           ; BSR set to: 0
  4041  003972  0E02               	movlw	2
  4042  003974  0100               	movlb	0	; () banked
  4043  003976  2773               	addwf	sprintf@ap& (0+255),f,b
  4044  003978  0E00               	movlw	0
  4045  00397A  2374               	addwfc	(sprintf@ap+1)& (0+255),f,b
  4046                           
  4047                           ; BSR set to: 0
  4048                           ;doprnt.c: 1261: if((int)val < 0) {
  4049  00397C  0100               	movlb	0	; () banked
  4050  00397E  AF78               	btfss	(sprintf@val+1)& (0+255),7,b
  4051  003980  D009               	goto	l3900
  4052                           
  4053                           ; BSR set to: 0
  4054                           ;doprnt.c: 1262: flag |= 0x03;
  4055  003982  0E03               	movlw	3
  4056  003984  0100               	movlb	0	; () banked
  4057  003986  1375               	iorwf	sprintf@flag& (0+255),f,b
  4058                           
  4059                           ; BSR set to: 0
  4060                           ;doprnt.c: 1263: val = -val;
  4061  003988  0100               	movlb	0	; () banked
  4062  00398A  6D77               	negf	sprintf@val& (0+255),b
  4063  00398C  1F78               	comf	(sprintf@val+1)& (0+255),f,b
  4064  00398E  B0D8               	btfsc	status,0,c
  4065  003990  2B78               	incf	(sprintf@val+1)& (0+255),f,b
  4066  003992  D000               	goto	l3900
  4067  003994                     l3900:
  4068                           
  4069                           ; BSR set to: 0
  4070                           ;doprnt.c: 1264: }
  4071                           ;doprnt.c: 1266: }
  4072                           ;doprnt.c: 1305: for(c = 1 ; c != sizeof dpowers/sizeof dpowers[0] ; c++)
  4073  003994  0E01               	movlw	1
  4074  003996  0100               	movlb	0	; () banked
  4075  003998  6F79               	movwf	sprintf@c& (0+255),b
  4076  00399A                     l3902:
  4077                           
  4078                           ; BSR set to: 0
  4079  00399A  0E05               	movlw	5
  4080  00399C  0100               	movlb	0	; () banked
  4081  00399E  1979               	xorwf	sprintf@c& (0+255),w,b
  4082  0039A0  B4D8               	btfsc	status,2,c
  4083  0039A2  D01A               	goto	l3914
  4084  0039A4  D001               	goto	l3906
  4085                           
  4086                           ; BSR set to: 0
  4087  0039A6  D018               	goto	l3914
  4088  0039A8                     l3906:
  4089                           
  4090                           ; BSR set to: 0
  4091                           ;doprnt.c: 1306: if(val < dpowers[c])
  4092  0039A8  0100               	movlb	0	; () banked
  4093  0039AA  5179               	movf	sprintf@c& (0+255),w,b
  4094  0039AC  0D02               	mullw	2
  4095  0039AE  0EF5               	movlw	low _dpowers
  4096  0039B0  24F3               	addwf	prodl,w,c
  4097  0039B2  6EF6               	movwf	tblptrl,c
  4098  0039B4  0E20               	movlw	high _dpowers
  4099  0039B6  20F4               	addwfc	prodh,w,c
  4100  0039B8  6EF7               	movwf	tblptrh,c
  4101  0039BA                     	if	0	;There are less than 3 active tblptr bytes
  4102  0039BA                     	endif
  4103  0039BA  0009               	tblrd		*+
  4104  0039BC  50F5               	movf	tablat,w,c
  4105  0039BE  0100               	movlb	0	; () banked
  4106  0039C0  5D77               	subwf	sprintf@val& (0+255),w,b
  4107  0039C2  0009               	tblrd		*+
  4108  0039C4  50F5               	movf	tablat,w,c
  4109  0039C6  0100               	movlb	0	; () banked
  4110  0039C8  5978               	subwfb	(sprintf@val+1)& (0+255),w,b
  4111  0039CA  A0D8               	btfss	status,0,c
  4112  0039CC  D005               	goto	l3914
  4113  0039CE  D001               	goto	l3910
  4114                           
  4115                           ; BSR set to: 0
  4116                           ;doprnt.c: 1307: break;
  4117  0039D0  D003               	goto	l3914
  4118  0039D2                     l3910:
  4119                           
  4120                           ; BSR set to: 0
  4121  0039D2  0100               	movlb	0	; () banked
  4122  0039D4  2B79               	incf	sprintf@c& (0+255),f,b
  4123  0039D6  D7E1               	goto	l3902
  4124  0039D8                     l3914:
  4125                           
  4126                           ; BSR set to: 0
  4127                           ;doprnt.c: 1422: {
  4128                           ;doprnt.c: 1438: if(flag & 0x03)
  4129  0039D8  C075  F072         	movff	sprintf@flag,??_sprintf
  4130  0039DC  0E03               	movlw	3
  4131  0039DE  0100               	movlb	0	; () banked
  4132  0039E0  1772               	andwf	??_sprintf& (0+255),f,b
  4133  0039E2  B4D8               	btfsc	status,2,c
  4134  0039E4  D00A               	goto	l3920
  4135                           
  4136                           ; BSR set to: 0
  4137                           ;doprnt.c: 1439: ((*sp++ = ('-')));
  4138  0039E6  C06C  FFD9         	movff	sprintf@sp,fsr2l
  4139  0039EA  C06D  FFDA         	movff	sprintf@sp+1,fsr2h
  4140  0039EE  0E2D               	movlw	45
  4141  0039F0  6EDF               	movwf	indf2,c
  4142                           
  4143                           ; BSR set to: 0
  4144  0039F2  0100               	movlb	0	; () banked
  4145  0039F4  4B6C               	infsnz	sprintf@sp& (0+255),f,b
  4146  0039F6  2B6D               	incf	(sprintf@sp+1)& (0+255),f,b
  4147  0039F8  D000               	goto	l3920
  4148  0039FA                     l3920:
  4149                           
  4150                           ; BSR set to: 0
  4151                           ;doprnt.c: 1469: }
  4152                           ;doprnt.c: 1472: prec = c;
  4153  0039FA  C079  F076         	movff	sprintf@c,sprintf@prec
  4154                           
  4155                           ;doprnt.c: 1474: while(prec--) {
  4156  0039FE  D02F               	goto	l3928
  4157  003A00                     l3922:
  4158                           
  4159                           ; BSR set to: 0
  4160                           ;doprnt.c: 1478: {
  4161                           ;doprnt.c: 1489: c = (val / dpowers[prec]) % 10 + '0';
  4162  003A00  0100               	movlb	0	; () banked
  4163  003A02  5176               	movf	sprintf@prec& (0+255),w,b
  4164  003A04  0D02               	mullw	2
  4165  003A06  0EF5               	movlw	low _dpowers
  4166  003A08  24F3               	addwf	prodl,w,c
  4167  003A0A  6EF6               	movwf	tblptrl,c
  4168  003A0C  0E20               	movlw	high _dpowers
  4169  003A0E  20F4               	addwfc	prodh,w,c
  4170  003A10  6EF7               	movwf	tblptrh,c
  4171  003A12                     	if	0	;There are less than 3 active tblptr bytes
  4172  003A12                     	endif
  4173  003A12  0009               	tblrd		*+
  4174  003A14  CFF5 F062          	movff	tablat,___lwdiv@divisor
  4175  003A18  000A               	tblrd		*-
  4176  003A1A  CFF5 F063          	movff	tablat,___lwdiv@divisor+1
  4177  003A1E  C077  F060         	movff	sprintf@val,___lwdiv@dividend
  4178  003A22  C078  F061         	movff	sprintf@val+1,___lwdiv@dividend+1
  4179  003A26  EC23  F021         	call	___lwdiv	;wreg free
  4180  003A2A  C060  F067         	movff	?___lwdiv,___lwmod@dividend
  4181  003A2E  C061  F068         	movff	?___lwdiv+1,___lwmod@dividend+1
  4182  003A32  0E00               	movlw	0
  4183  003A34  0100               	movlb	0	; () banked
  4184  003A36  6F6A               	movwf	(___lwmod@divisor+1)& (0+255),b
  4185  003A38  0E0A               	movlw	10
  4186  003A3A  6F69               	movwf	___lwmod@divisor& (0+255),b
  4187  003A3C  ECD9  F021         	call	___lwmod	;wreg free
  4188  003A40  0100               	movlb	0	; () banked
  4189  003A42  5167               	movf	?___lwmod& (0+255),w,b
  4190  003A44  0F30               	addlw	48
  4191  003A46  0100               	movlb	0	; () banked
  4192  003A48  6F79               	movwf	sprintf@c& (0+255),b
  4193                           
  4194                           ; BSR set to: 0
  4195                           ;doprnt.c: 1523: }
  4196                           ;doprnt.c: 1524: ((*sp++ = (c)));
  4197  003A4A  C06C  FFD9         	movff	sprintf@sp,fsr2l
  4198  003A4E  C06D  FFDA         	movff	sprintf@sp+1,fsr2h
  4199  003A52  C079  FFDF         	movff	sprintf@c,indf2
  4200                           
  4201                           ; BSR set to: 0
  4202  003A56  0100               	movlb	0	; () banked
  4203  003A58  4B6C               	infsnz	sprintf@sp& (0+255),f,b
  4204  003A5A  2B6D               	incf	(sprintf@sp+1)& (0+255),f,b
  4205  003A5C  D000               	goto	l3928
  4206  003A5E                     l3928:
  4207                           
  4208                           ; BSR set to: 0
  4209  003A5E  0100               	movlb	0	; () banked
  4210  003A60  0776               	decf	sprintf@prec& (0+255),f,b
  4211  003A62  0100               	movlb	0	; () banked
  4212  003A64  2976               	incf	sprintf@prec& (0+255),w,b
  4213  003A66  B4D8               	btfsc	status,2,c
  4214  003A68  D002               	goto	l3930
  4215  003A6A  D7CA               	goto	l3922
  4216                           
  4217                           ; BSR set to: 0
  4218  003A6C  D000               	goto	l3930
  4219  003A6E                     l3930:
  4220                           
  4221                           ; BSR set to: 0
  4222  003A6E  C06E  FFF6         	movff	sprintf@f,tblptrl
  4223  003A72  C06F  FFF7         	movff	sprintf@f+1,tblptrh
  4224  003A76  0100               	movlb	0	; () banked
  4225  003A78  4B6E               	infsnz	sprintf@f& (0+255),f,b
  4226  003A7A  2B6F               	incf	(sprintf@f+1)& (0+255),f,b
  4227  003A7C                     	if	0	;tblptru may be non-zero
  4228  003A7C                     	endif
  4229  003A7C                     	if	0	;tblptru may be non-zero
  4230  003A7C                     	endif
  4231  003A7C  0008               	tblrd		*
  4232  003A7E  CFF5 F079          	movff	tablat,sprintf@c
  4233  003A82  0100               	movlb	0	; () banked
  4234  003A84  5179               	movf	sprintf@c& (0+255),w,b
  4235  003A86  B4D8               	btfsc	status,2,c
  4236  003A88  D002               	goto	l3932
  4237  003A8A  D73F               	goto	l3878
  4238                           
  4239                           ; BSR set to: 0
  4240  003A8C  D000               	goto	l3932
  4241  003A8E                     l3932:
  4242                           
  4243                           ; BSR set to: 0
  4244                           ;doprnt.c: 1538: *sp = 0;
  4245  003A8E  C06C  FFD9         	movff	sprintf@sp,fsr2l
  4246  003A92  C06D  FFDA         	movff	sprintf@sp+1,fsr2h
  4247  003A96  0E00               	movlw	0
  4248  003A98  6EDF               	movwf	indf2,c
  4249  003A9A  0012               	return	
  4250                           
  4251                           ; BSR set to: 0
  4252                           
  4253                           ; BSR set to: 0
  4254                           ;doprnt.c: 1540: return 0;
  4255                           ;	Return value of _sprintf is never used
  4256  003A9C  0012               	return		;funcret
  4257  003A9E                     __end_of_sprintf:
  4258                           	opt stack 0
  4259                           tblptru	equ	0xFF8
  4260                           tblptrh	equ	0xFF7
  4261                           tblptrl	equ	0xFF6
  4262                           tablat	equ	0xFF5
  4263                           prodh	equ	0xFF4
  4264                           prodl	equ	0xFF3
  4265                           intcon	equ	0xFF2
  4266                           postinc0	equ	0xFEE
  4267                           wreg	equ	0xFE8
  4268                           indf1	equ	0xFE7
  4269                           postinc1	equ	0xFE6
  4270                           postdec1	equ	0xFE5
  4271                           fsr1h	equ	0xFE2
  4272                           fsr1l	equ	0xFE1
  4273                           indf2	equ	0xFDF
  4274                           postinc2	equ	0xFDE
  4275                           postdec2	equ	0xFDD
  4276                           fsr2h	equ	0xFDA
  4277                           fsr2l	equ	0xFD9
  4278                           status	equ	0xFD8
  4279                           
  4280 ;; *************** function ___lwmod *****************
  4281 ;; Defined at:
  4282 ;;		line 8 in file "C:\Program Files (x86)\Microchip\xc8\v1.34\sources\common\lwmod.c"
  4283 ;; Parameters:    Size  Location     Type
  4284 ;;  dividend        2    7[BANK0 ] unsigned int 
  4285 ;;  divisor         2    9[BANK0 ] unsigned int 
  4286 ;; Auto vars:     Size  Location     Type
  4287 ;;  counter         1   11[BANK0 ] unsigned char 
  4288 ;; Return value:  Size  Location     Type
  4289 ;;                  2    7[BANK0 ] unsigned int 
  4290 ;; Registers used:
  4291 ;;		wreg, status,2, status,0
  4292 ;; Tracked objects:
  4293 ;;		On entry : 0/0
  4294 ;;		On exit  : 0/0
  4295 ;;		Unchanged: 0/0
  4296 ;; Data sizes:     COMRAM   BANK0   BANK1   BANK2   BANK3   BANK4   BANK5   BANK6   BANK7
  4297 ;;      Params:         0       4       0       0       0       0       0       0       0
  4298 ;;      Locals:         0       1       0       0       0       0       0       0       0
  4299 ;;      Temps:          0       0       0       0       0       0       0       0       0
  4300 ;;      Totals:         0       5       0       0       0       0       0       0       0
  4301 ;;Total ram usage:        5 bytes
  4302 ;; Hardware stack levels used:    1
  4303 ;; Hardware stack levels required when called:    9
  4304 ;; This function calls:
  4305 ;;		Nothing
  4306 ;; This function is called by:
  4307 ;;		_sprintf
  4308 ;; This function uses a non-reentrant model
  4309 ;;
  4310                           
  4311                           	psect	text11
  4312  0043B2                     __ptext11:
  4313                           	opt stack 0
  4314  0043B2                     ___lwmod:
  4315                           	opt stack 20
  4316                           
  4317                           ; BSR set to: 0
  4318                           ;incstack = 0
  4319  0043B2  0100               	movlb	0	; () banked
  4320  0043B4  5169               	movf	___lwmod@divisor& (0+255),w,b
  4321  0043B6  0100               	movlb	0	; () banked
  4322  0043B8  116A               	iorwf	(___lwmod@divisor+1)& (0+255),w,b
  4323  0043BA  B4D8               	btfsc	status,2,c
  4324  0043BC  D02B               	goto	l1227
  4325                           
  4326                           ; BSR set to: 0
  4327  0043BE  0E01               	movlw	1
  4328  0043C0  0100               	movlb	0	; () banked
  4329  0043C2  6F6B               	movwf	___lwmod@counter& (0+255),b
  4330  0043C4  D007               	goto	l3500
  4331  0043C6                     l3498:
  4332                           
  4333                           ; BSR set to: 0
  4334  0043C6  0100               	movlb	0	; () banked
  4335  0043C8  90D8               	bcf	status,0,c
  4336  0043CA  3769               	rlcf	___lwmod@divisor& (0+255),f,b
  4337  0043CC  376A               	rlcf	(___lwmod@divisor+1)& (0+255),f,b
  4338  0043CE  0100               	movlb	0	; () banked
  4339  0043D0  2B6B               	incf	___lwmod@counter& (0+255),f,b
  4340  0043D2  D000               	goto	l3500
  4341  0043D4                     l3500:
  4342                           
  4343                           ; BSR set to: 0
  4344  0043D4  0100               	movlb	0	; () banked
  4345  0043D6  BF6A               	btfsc	(___lwmod@divisor+1)& (0+255),7,b
  4346  0043D8  D002               	goto	l3502
  4347  0043DA  D7F5               	goto	l3498
  4348                           
  4349                           ; BSR set to: 0
  4350  0043DC  D000               	goto	l3502
  4351  0043DE                     l3502:
  4352                           
  4353                           ; BSR set to: 0
  4354  0043DE  0100               	movlb	0	; () banked
  4355  0043E0  5169               	movf	___lwmod@divisor& (0+255),w,b
  4356  0043E2  0100               	movlb	0	; () banked
  4357  0043E4  5D67               	subwf	___lwmod@dividend& (0+255),w,b
  4358  0043E6  0100               	movlb	0	; () banked
  4359  0043E8  516A               	movf	(___lwmod@divisor+1)& (0+255),w,b
  4360  0043EA  0100               	movlb	0	; () banked
  4361  0043EC  5968               	subwfb	(___lwmod@dividend+1)& (0+255),w,b
  4362  0043EE  A0D8               	btfss	status,0,c
  4363  0043F0  D009               	goto	l3506
  4364                           
  4365                           ; BSR set to: 0
  4366  0043F2  0100               	movlb	0	; () banked
  4367  0043F4  5169               	movf	___lwmod@divisor& (0+255),w,b
  4368  0043F6  0100               	movlb	0	; () banked
  4369  0043F8  5F67               	subwf	___lwmod@dividend& (0+255),f,b
  4370  0043FA  0100               	movlb	0	; () banked
  4371  0043FC  516A               	movf	(___lwmod@divisor+1)& (0+255),w,b
  4372  0043FE  0100               	movlb	0	; () banked
  4373  004400  5B68               	subwfb	(___lwmod@dividend+1)& (0+255),f,b
  4374  004402  D000               	goto	l3506
  4375  004404                     l3506:
  4376                           
  4377                           ; BSR set to: 0
  4378  004404  0100               	movlb	0	; () banked
  4379  004406  90D8               	bcf	status,0,c
  4380  004408  336A               	rrcf	(___lwmod@divisor+1)& (0+255),f,b
  4381  00440A  3369               	rrcf	___lwmod@divisor& (0+255),f,b
  4382                           
  4383                           ; BSR set to: 0
  4384  00440C  0100               	movlb	0	; () banked
  4385  00440E  2F6B               	decfsz	___lwmod@counter& (0+255),f,b
  4386  004410  D7E6               	goto	l3502
  4387  004412  D000               	goto	l1227
  4388  004414                     l1227:
  4389                           
  4390                           ; BSR set to: 0
  4391  004414  C067  F067         	movff	___lwmod@dividend,?___lwmod
  4392  004418  C068  F068         	movff	___lwmod@dividend+1,?___lwmod+1
  4393                           
  4394                           ; BSR set to: 0
  4395  00441C  0012               	return		;funcret
  4396  00441E                     __end_of___lwmod:
  4397                           	opt stack 0
  4398                           tblptru	equ	0xFF8
  4399                           tblptrh	equ	0xFF7
  4400                           tblptrl	equ	0xFF6
  4401                           tablat	equ	0xFF5
  4402                           prodh	equ	0xFF4
  4403                           prodl	equ	0xFF3
  4404                           intcon	equ	0xFF2
  4405                           postinc0	equ	0xFEE
  4406                           wreg	equ	0xFE8
  4407                           indf1	equ	0xFE7
  4408                           postinc1	equ	0xFE6
  4409                           postdec1	equ	0xFE5
  4410                           fsr1h	equ	0xFE2
  4411                           fsr1l	equ	0xFE1
  4412                           indf2	equ	0xFDF
  4413                           postinc2	equ	0xFDE
  4414                           postdec2	equ	0xFDD
  4415                           fsr2h	equ	0xFDA
  4416                           fsr2l	equ	0xFD9
  4417                           status	equ	0xFD8
  4418                           
  4419 ;; *************** function ___lwdiv *****************
  4420 ;; Defined at:
  4421 ;;		line 8 in file "C:\Program Files (x86)\Microchip\xc8\v1.34\sources\common\lwdiv.c"
  4422 ;; Parameters:    Size  Location     Type
  4423 ;;  dividend        2    0[BANK0 ] unsigned int 
  4424 ;;  divisor         2    2[BANK0 ] unsigned int 
  4425 ;; Auto vars:     Size  Location     Type
  4426 ;;  quotient        2    4[BANK0 ] unsigned int 
  4427 ;;  counter         1    6[BANK0 ] unsigned char 
  4428 ;; Return value:  Size  Location     Type
  4429 ;;                  2    0[BANK0 ] unsigned int 
  4430 ;; Registers used:
  4431 ;;		wreg, status,2, status,0
  4432 ;; Tracked objects:
  4433 ;;		On entry : 0/0
  4434 ;;		On exit  : 0/0
  4435 ;;		Unchanged: 0/0
  4436 ;; Data sizes:     COMRAM   BANK0   BANK1   BANK2   BANK3   BANK4   BANK5   BANK6   BANK7
  4437 ;;      Params:         0       4       0       0       0       0       0       0       0
  4438 ;;      Locals:         0       3       0       0       0       0       0       0       0
  4439 ;;      Temps:          0       0       0       0       0       0       0       0       0
  4440 ;;      Totals:         0       7       0       0       0       0       0       0       0
  4441 ;;Total ram usage:        7 bytes
  4442 ;; Hardware stack levels used:    1
  4443 ;; Hardware stack levels required when called:    9
  4444 ;; This function calls:
  4445 ;;		Nothing
  4446 ;; This function is called by:
  4447 ;;		_sprintf
  4448 ;; This function uses a non-reentrant model
  4449 ;;
  4450                           
  4451                           	psect	text12
  4452  004246                     __ptext12:
  4453                           	opt stack 0
  4454  004246                     ___lwdiv:
  4455                           	opt stack 20
  4456                           
  4457                           ; BSR set to: 0
  4458                           ;incstack = 0
  4459  004246  0E00               	movlw	0
  4460  004248  0100               	movlb	0	; () banked
  4461  00424A  6F65               	movwf	(___lwdiv@quotient+1)& (0+255),b
  4462  00424C  0E00               	movlw	0
  4463  00424E  6F64               	movwf	___lwdiv@quotient& (0+255),b
  4464                           
  4465                           ; BSR set to: 0
  4466  004250  0100               	movlb	0	; () banked
  4467  004252  5162               	movf	___lwdiv@divisor& (0+255),w,b
  4468  004254  0100               	movlb	0	; () banked
  4469  004256  1163               	iorwf	(___lwdiv@divisor+1)& (0+255),w,b
  4470  004258  B4D8               	btfsc	status,2,c
  4471  00425A  D031               	goto	l1217
  4472                           
  4473                           ; BSR set to: 0
  4474  00425C  0E01               	movlw	1
  4475  00425E  0100               	movlb	0	; () banked
  4476  004260  6F66               	movwf	___lwdiv@counter& (0+255),b
  4477  004262  D007               	goto	l3480
  4478  004264                     l3478:
  4479                           
  4480                           ; BSR set to: 0
  4481  004264  0100               	movlb	0	; () banked
  4482  004266  90D8               	bcf	status,0,c
  4483  004268  3762               	rlcf	___lwdiv@divisor& (0+255),f,b
  4484  00426A  3763               	rlcf	(___lwdiv@divisor+1)& (0+255),f,b
  4485  00426C  0100               	movlb	0	; () banked
  4486  00426E  2B66               	incf	___lwdiv@counter& (0+255),f,b
  4487  004270  D000               	goto	l3480
  4488  004272                     l3480:
  4489                           
  4490                           ; BSR set to: 0
  4491  004272  0100               	movlb	0	; () banked
  4492  004274  BF63               	btfsc	(___lwdiv@divisor+1)& (0+255),7,b
  4493  004276  D002               	goto	l3482
  4494  004278  D7F5               	goto	l3478
  4495                           
  4496                           ; BSR set to: 0
  4497  00427A  D000               	goto	l3482
  4498  00427C                     l3482:
  4499                           
  4500                           ; BSR set to: 0
  4501  00427C  0100               	movlb	0	; () banked
  4502  00427E  90D8               	bcf	status,0,c
  4503  004280  3764               	rlcf	___lwdiv@quotient& (0+255),f,b
  4504  004282  3765               	rlcf	(___lwdiv@quotient+1)& (0+255),f,b
  4505                           
  4506                           ; BSR set to: 0
  4507  004284  0100               	movlb	0	; () banked
  4508  004286  5162               	movf	___lwdiv@divisor& (0+255),w,b
  4509  004288  0100               	movlb	0	; () banked
  4510  00428A  5D60               	subwf	___lwdiv@dividend& (0+255),w,b
  4511  00428C  0100               	movlb	0	; () banked
  4512  00428E  5163               	movf	(___lwdiv@divisor+1)& (0+255),w,b
  4513  004290  0100               	movlb	0	; () banked
  4514  004292  5961               	subwfb	(___lwdiv@dividend+1)& (0+255),w,b
  4515  004294  A0D8               	btfss	status,0,c
  4516  004296  D00B               	goto	l3490
  4517                           
  4518                           ; BSR set to: 0
  4519  004298  0100               	movlb	0	; () banked
  4520  00429A  5162               	movf	___lwdiv@divisor& (0+255),w,b
  4521  00429C  0100               	movlb	0	; () banked
  4522  00429E  5F60               	subwf	___lwdiv@dividend& (0+255),f,b
  4523  0042A0  0100               	movlb	0	; () banked
  4524  0042A2  5163               	movf	(___lwdiv@divisor+1)& (0+255),w,b
  4525  0042A4  0100               	movlb	0	; () banked
  4526  0042A6  5B61               	subwfb	(___lwdiv@dividend+1)& (0+255),f,b
  4527                           
  4528                           ; BSR set to: 0
  4529  0042A8  0100               	movlb	0	; () banked
  4530  0042AA  8164               	bsf	___lwdiv@quotient& (0+255),0,b
  4531  0042AC  D000               	goto	l3490
  4532  0042AE                     l3490:
  4533                           
  4534                           ; BSR set to: 0
  4535  0042AE  0100               	movlb	0	; () banked
  4536  0042B0  90D8               	bcf	status,0,c
  4537  0042B2  3363               	rrcf	(___lwdiv@divisor+1)& (0+255),f,b
  4538  0042B4  3362               	rrcf	___lwdiv@divisor& (0+255),f,b
  4539                           
  4540                           ; BSR set to: 0
  4541  0042B6  0100               	movlb	0	; () banked
  4542  0042B8  2F66               	decfsz	___lwdiv@counter& (0+255),f,b
  4543  0042BA  D7E0               	goto	l3482
  4544  0042BC  D000               	goto	l1217
  4545  0042BE                     l1217:
  4546                           
  4547                           ; BSR set to: 0
  4548  0042BE  C064  F060         	movff	___lwdiv@quotient,?___lwdiv
  4549  0042C2  C065  F061         	movff	___lwdiv@quotient+1,?___lwdiv+1
  4550                           
  4551                           ; BSR set to: 0
  4552  0042C6  0012               	return		;funcret
  4553  0042C8                     __end_of___lwdiv:
  4554                           	opt stack 0
  4555                           tblptru	equ	0xFF8
  4556                           tblptrh	equ	0xFF7
  4557                           tblptrl	equ	0xFF6
  4558                           tablat	equ	0xFF5
  4559                           prodh	equ	0xFF4
  4560                           prodl	equ	0xFF3
  4561                           intcon	equ	0xFF2
  4562                           postinc0	equ	0xFEE
  4563                           wreg	equ	0xFE8
  4564                           indf1	equ	0xFE7
  4565                           postinc1	equ	0xFE6
  4566                           postdec1	equ	0xFE5
  4567                           fsr1h	equ	0xFE2
  4568                           fsr1l	equ	0xFE1
  4569                           indf2	equ	0xFDF
  4570                           postinc2	equ	0xFDE
  4571                           postdec2	equ	0xFDD
  4572                           fsr2h	equ	0xFDA
  4573                           fsr2l	equ	0xFD9
  4574                           status	equ	0xFD8
  4575                           
  4576 ;; *************** function _sensor_init *****************
  4577 ;; Defined at:
  4578 ;;		line 4 in file "sensor.c"
  4579 ;; Parameters:    Size  Location     Type
  4580 ;;		None
  4581 ;; Auto vars:     Size  Location     Type
  4582 ;;		None
  4583 ;; Return value:  Size  Location     Type
  4584 ;;		None               void
  4585 ;; Registers used:
  4586 ;;		None
  4587 ;; Tracked objects:
  4588 ;;		On entry : 0/0
  4589 ;;		On exit  : 0/0
  4590 ;;		Unchanged: 0/0
  4591 ;; Data sizes:     COMRAM   BANK0   BANK1   BANK2   BANK3   BANK4   BANK5   BANK6   BANK7
  4592 ;;      Params:         0       0       0       0       0       0       0       0       0
  4593 ;;      Locals:         0       0       0       0       0       0       0       0       0
  4594 ;;      Temps:          0       0       0       0       0       0       0       0       0
  4595 ;;      Totals:         0       0       0       0       0       0       0       0       0
  4596 ;;Total ram usage:        0 bytes
  4597 ;; Hardware stack levels used:    1
  4598 ;; Hardware stack levels required when called:    9
  4599 ;; This function calls:
  4600 ;;		Nothing
  4601 ;; This function is called by:
  4602 ;;		_main
  4603 ;; This function uses a non-reentrant model
  4604 ;;
  4605                           
  4606                           	psect	text13
  4607  0049EE                     __ptext13:
  4608                           	opt stack 0
  4609  0049EE                     _sensor_init:
  4610                           	opt stack 21
  4611                           
  4612                           ;sensor.c: 9: ANSELBbits.ANSB0 = 0;
  4613                           
  4614                           ; BSR set to: 0
  4615                           ;incstack = 0
  4616  0049EE  010F               	movlb	15	; () banked
  4617  0049F0  915C               	bcf	92,0,b	;volatile
  4618                           
  4619                           ;sensor.c: 11: TRISBbits.TRISB0 = 1;
  4620  0049F2  8093               	bsf	3987,0,c	;volatile
  4621                           
  4622                           ; BSR set to: 15
  4623  0049F4  0012               	return		;funcret
  4624  0049F6                     __end_of_sensor_init:
  4625                           	opt stack 0
  4626                           tblptru	equ	0xFF8
  4627                           tblptrh	equ	0xFF7
  4628                           tblptrl	equ	0xFF6
  4629                           tablat	equ	0xFF5
  4630                           prodh	equ	0xFF4
  4631                           prodl	equ	0xFF3
  4632                           intcon	equ	0xFF2
  4633                           postinc0	equ	0xFEE
  4634                           wreg	equ	0xFE8
  4635                           indf1	equ	0xFE7
  4636                           postinc1	equ	0xFE6
  4637                           postdec1	equ	0xFE5
  4638                           fsr1h	equ	0xFE2
  4639                           fsr1l	equ	0xFE1
  4640                           indf2	equ	0xFDF
  4641                           postinc2	equ	0xFDE
  4642                           postdec2	equ	0xFDD
  4643                           fsr2h	equ	0xFDA
  4644                           fsr2l	equ	0xFD9
  4645                           status	equ	0xFD8
  4646                           
  4647 ;; *************** function _send_string_sync *****************
  4648 ;; Defined at:
  4649 ;;		line 28 in file "main.c"
  4650 ;; Parameters:    Size  Location     Type
  4651 ;;  endpoint        1    wreg     unsigned char 
  4652 ;;  str             2   14[BANK0 ] PTR const unsigned char 
  4653 ;;		 -> STR_9(20), STR_8(39), STR_7(34), STR_6(39), 
  4654 ;;		 -> STR_5(32), STR_4(31), 
  4655 ;; Auto vars:     Size  Location     Type
  4656 ;;  endpoint        1   18[BANK0 ] unsigned char 
  4657 ;;  in_buf          2   16[BANK0 ] PTR unsigned char 
  4658 ;;		 -> NULL(0), ep_buffers(155), 
  4659 ;; Return value:  Size  Location     Type
  4660 ;;		None               void
  4661 ;; Registers used:
  4662 ;;		wreg, fsr2l, fsr2h, status,2, status,0, tblptrl, tblptrh, tblptru, prodl, prodh, cstack
  4663 ;; Tracked objects:
  4664 ;;		On entry : 0/0
  4665 ;;		On exit  : 0/0
  4666 ;;		Unchanged: 0/0
  4667 ;; Data sizes:     COMRAM   BANK0   BANK1   BANK2   BANK3   BANK4   BANK5   BANK6   BANK7
  4668 ;;      Params:         0       2       0       0       0       0       0       0       0
  4669 ;;      Locals:         0       3       0       0       0       0       0       0       0
  4670 ;;      Temps:          0       0       0       0       0       0       0       0       0
  4671 ;;      Totals:         0       5       0       0       0       0       0       0       0
  4672 ;;Total ram usage:        5 bytes
  4673 ;; Hardware stack levels used:    1
  4674 ;; Hardware stack levels required when called:   11
  4675 ;; This function calls:
  4676 ;;		_strcpy
  4677 ;;		_strlen
  4678 ;;		_usb_get_in_buffer
  4679 ;;		_usb_in_endpoint_busy
  4680 ;;		_usb_send_in_buffer
  4681 ;; This function is called by:
  4682 ;;		_main
  4683 ;; This function uses a non-reentrant model
  4684 ;;
  4685                           
  4686                           	psect	text14
  4687  004530                     __ptext14:
  4688                           	opt stack 0
  4689  004530                     _send_string_sync:
  4690                           	opt stack 19
  4691                           
  4692                           ; BSR set to: 15
  4693                           ;incstack = 0
  4694                           ;send_string_sync@endpoint stored from wreg
  4695  004530  0100               	movlb	0	; () banked
  4696  004532  6F72               	movwf	send_string_sync@endpoint& (0+255),b
  4697                           
  4698                           ; BSR set to: 0
  4699                           ;main.c: 30: char *in_buf = (char*) usb_get_in_buffer(endpoint);
  4700  004534  0100               	movlb	0	; () banked
  4701  004536  5172               	movf	send_string_sync@endpoint& (0+255),w,b
  4702  004538  EC1F  F024         	call	_usb_get_in_buffer
  4703  00453C  C060  F070         	movff	?_usb_get_in_buffer,send_string_sync@in_buf
  4704  004540  C061  F071         	movff	?_usb_get_in_buffer+1,send_string_sync@in_buf+1
  4705                           
  4706                           ;main.c: 32: while (usb_in_endpoint_busy(endpoint))
  4707  004544  D000               	goto	l3848
  4708  004546                     l3848:
  4709  004546  0100               	movlb	0	; () banked
  4710  004548  5172               	movf	send_string_sync@endpoint& (0+255),w,b
  4711  00454A  ECC3  F022         	call	_usb_in_endpoint_busy
  4712  00454E  0900               	iorlw	0
  4713  004550  A4D8               	btfss	status,2,c
  4714  004552  D7F9               	goto	l3848
  4715                           
  4716                           ;main.c: 35: strcpy(in_buf, str);
  4717  004554  C070  F060         	movff	send_string_sync@in_buf,strcpy@to
  4718  004558  C071  F061         	movff	send_string_sync@in_buf+1,strcpy@to+1
  4719  00455C  C06E  F062         	movff	send_string_sync@str,strcpy@from
  4720  004560  C06F  F063         	movff	send_string_sync@str+1,strcpy@from+1
  4721  004564  EC8F  F023         	call	_strcpy	;wreg free
  4722                           
  4723                           ;main.c: 38: usb_send_in_buffer(endpoint, strlen(in_buf));
  4724  004568  C070  F060         	movff	send_string_sync@in_buf,strlen@s
  4725  00456C  C071  F061         	movff	send_string_sync@in_buf+1,strlen@s+1
  4726  004570  ECEB  F022         	call	_strlen	;wreg free
  4727  004574  C060  F066         	movff	?_strlen,usb_send_in_buffer@len
  4728  004578  C061  F067         	movff	?_strlen+1,usb_send_in_buffer@len+1
  4729  00457C  0100               	movlb	0	; () banked
  4730  00457E  5172               	movf	send_string_sync@endpoint& (0+255),w,b
  4731  004580  EC0E  F01E         	call	_usb_send_in_buffer
  4732  004584  0012               	return		;funcret
  4733  004586                     __end_of_send_string_sync:
  4734                           	opt stack 0
  4735                           tblptru	equ	0xFF8
  4736                           tblptrh	equ	0xFF7
  4737                           tblptrl	equ	0xFF6
  4738                           tablat	equ	0xFF5
  4739                           prodh	equ	0xFF4
  4740                           prodl	equ	0xFF3
  4741                           intcon	equ	0xFF2
  4742                           postinc0	equ	0xFEE
  4743                           wreg	equ	0xFE8
  4744                           indf1	equ	0xFE7
  4745                           postinc1	equ	0xFE6
  4746                           postdec1	equ	0xFE5
  4747                           fsr1h	equ	0xFE2
  4748                           fsr1l	equ	0xFE1
  4749                           indf2	equ	0xFDF
  4750                           postinc2	equ	0xFDE
  4751                           postdec2	equ	0xFDD
  4752                           fsr2h	equ	0xFDA
  4753                           fsr2l	equ	0xFD9
  4754                           status	equ	0xFD8
  4755                           
  4756 ;; *************** function _usb_send_in_buffer *****************
  4757 ;; Defined at:
  4758 ;;		line 1444 in file "usb.c"
  4759 ;; Parameters:    Size  Location     Type
  4760 ;;  endpoint        1    wreg     unsigned char 
  4761 ;;  len             2    6[BANK0 ] unsigned int 
  4762 ;; Auto vars:     Size  Location     Type
  4763 ;;  endpoint        1   11[BANK0 ] unsigned char 
  4764 ;;  bd              2   12[BANK0 ] PTR struct buffer_descri
  4765 ;;		 -> bds(24), 
  4766 ;;  pid             1   10[BANK0 ] unsigned char 
  4767 ;; Return value:  Size  Location     Type
  4768 ;;		None               void
  4769 ;; Registers used:
  4770 ;;		wreg, fsr2l, fsr2h, status,2, status,0, prodl, prodh, cstack
  4771 ;; Tracked objects:
  4772 ;;		On entry : 0/0
  4773 ;;		On exit  : 0/0
  4774 ;;		Unchanged: 0/0
  4775 ;; Data sizes:     COMRAM   BANK0   BANK1   BANK2   BANK3   BANK4   BANK5   BANK6   BANK7
  4776 ;;      Params:         0       2       0       0       0       0       0       0       0
  4777 ;;      Locals:         0       4       0       0       0       0       0       0       0
  4778 ;;      Temps:          0       2       0       0       0       0       0       0       0
  4779 ;;      Totals:         0       8       0       0       0       0       0       0       0
  4780 ;;Total ram usage:        8 bytes
  4781 ;; Hardware stack levels used:    1
  4782 ;; Hardware stack levels required when called:   10
  4783 ;; This function calls:
  4784 ;;		_usb_in_endpoint_halted
  4785 ;; This function is called by:
  4786 ;;		_send_string_sync
  4787 ;;		_main
  4788 ;; This function uses a non-reentrant model
  4789 ;;
  4790                           
  4791                           	psect	text15
  4792  003C1C                     __ptext15:
  4793                           	opt stack 0
  4794  003C1C                     _usb_send_in_buffer:
  4795                           	opt stack 20
  4796                           
  4797                           ;incstack = 0
  4798                           ;usb_send_in_buffer@endpoint stored from wreg
  4799  003C1C  0100               	movlb	0	; () banked
  4800  003C1E  6F6B               	movwf	usb_send_in_buffer@endpoint& (0+255),b
  4801                           
  4802                           ; BSR set to: 0
  4803                           ;usb.c: 1450: if (g_configuration > 0 && !usb_in_endpoint_halted(endpoint)) {
  4804  003C20  505F               	movf	_g_configuration,w,c
  4805  003C22  B4D8               	btfsc	status,2,c
  4806  003C24  0012               	return	
  4807                           
  4808                           ; BSR set to: 0
  4809  003C26  0100               	movlb	0	; () banked
  4810  003C28  516B               	movf	usb_send_in_buffer@endpoint& (0+255),w,b
  4811  003C2A  EC6F  F024         	call	_usb_in_endpoint_halted
  4812  003C2E  0900               	iorlw	0
  4813  003C30  A4D8               	btfss	status,2,c
  4814  003C32  0012               	return	
  4815                           
  4816                           ;usb.c: 1451: uint8_t pid;
  4817                           ;usb.c: 1452: struct buffer_descriptor *bd;
  4818                           ;usb.c: 1470: bd = &bds[(endpoint) * 2 + 1];
  4819  003C34  0100               	movlb	0	; () banked
  4820  003C36  516B               	movf	usb_send_in_buffer@endpoint& (0+255),w,b
  4821  003C38  0100               	movlb	0	; () banked
  4822  003C3A  6F68               	movwf	??_usb_send_in_buffer& (0+255),b
  4823  003C3C  6B69               	clrf	(??_usb_send_in_buffer+1)& (0+255),b
  4824  003C3E  90D8               	bcf	status,0,c
  4825  003C40  0100               	movlb	0	; () banked
  4826  003C42  3768               	rlcf	??_usb_send_in_buffer& (0+255),f,b
  4827  003C44  3769               	rlcf	(??_usb_send_in_buffer+1)& (0+255),f,b
  4828  003C46  0100               	movlb	0	; () banked
  4829  003C48  90D8               	bcf	status,0,c
  4830  003C4A  3768               	rlcf	??_usb_send_in_buffer& (0+255),f,b
  4831  003C4C  3769               	rlcf	(??_usb_send_in_buffer+1)& (0+255),f,b
  4832  003C4E  0100               	movlb	0	; () banked
  4833  003C50  90D8               	bcf	status,0,c
  4834  003C52  3768               	rlcf	??_usb_send_in_buffer& (0+255),f,b
  4835  003C54  3769               	rlcf	(??_usb_send_in_buffer+1)& (0+255),f,b
  4836  003C56  0E04               	movlw	4
  4837  003C58  0100               	movlb	0	; () banked
  4838  003C5A  2768               	addwf	??_usb_send_in_buffer& (0+255),f,b
  4839  003C5C  0E00               	movlw	0
  4840  003C5E  2369               	addwfc	(??_usb_send_in_buffer+1)& (0+255),f,b
  4841  003C60  0E00               	movlw	0
  4842  003C62  0100               	movlb	0	; () banked
  4843  003C64  2568               	addwf	??_usb_send_in_buffer& (0+255),w,b
  4844  003C66  0100               	movlb	0	; () banked
  4845  003C68  6F6C               	movwf	usb_send_in_buffer@bd& (0+255),b
  4846  003C6A  0E04               	movlw	4
  4847  003C6C  0100               	movlb	0	; () banked
  4848  003C6E  2169               	addwfc	(??_usb_send_in_buffer+1)& (0+255),w,b
  4849  003C70  0100               	movlb	0	; () banked
  4850  003C72  6F6D               	movwf	(usb_send_in_buffer@bd+1)& (0+255),b
  4851                           
  4852                           ; BSR set to: 0
  4853                           ;usb.c: 1471: pid = (ep_buf[endpoint].flags & 0x8)? 1 : 0;
  4854  003C74  0100               	movlb	0	; () banked
  4855  003C76  516B               	movf	usb_send_in_buffer@endpoint& (0+255),w,b
  4856  003C78  0D07               	mullw	7
  4857  003C7A  0E06               	movlw	6
  4858  003C7C  26F3               	addwf	prodl,f,c
  4859  003C7E  0E00               	movlw	0
  4860  003C80  22F4               	addwfc	prodh,f,c
  4861  003C82  0E00               	movlw	low _ep_buf
  4862  003C84  24F3               	addwf	prodl,w,c
  4863  003C86  6ED9               	movwf	fsr2l,c
  4864  003C88  0E01               	movlw	high _ep_buf
  4865  003C8A  20F4               	addwfc	prodh,w,c
  4866  003C8C  6EDA               	movwf	fsr2h,c
  4867  003C8E  0101               	movlb	1	; () banked
  4868  003C90  A6DF               	btfss	indf2,3,c
  4869  003C92  D002               	goto	u3330
  4870  003C94  0E01               	movlw	1
  4871  003C96  D001               	goto	u3340
  4872  003C98                     u3330:
  4873  003C98  0E00               	movlw	0
  4874  003C9A                     u3340:
  4875  003C9A  0100               	movlb	0	; () banked
  4876  003C9C  6F6A               	movwf	usb_send_in_buffer@pid& (0+255),b
  4877                           
  4878                           ; BSR set to: 0
  4879                           ;usb.c: 1472: bd->STAT.BDnSTAT = 0;
  4880  003C9E  C06C  FFD9         	movff	usb_send_in_buffer@bd,fsr2l
  4881  003CA2  C06D  FFDA         	movff	usb_send_in_buffer@bd+1,fsr2h
  4882  003CA6  0E00               	movlw	0
  4883  003CA8  6EDF               	movwf	indf2,c
  4884                           
  4885                           ; BSR set to: 0
  4886                           ;usb.c: 1474: if (pid)
  4887  003CAA  0100               	movlb	0	; () banked
  4888  003CAC  516A               	movf	usb_send_in_buffer@pid& (0+255),w,b
  4889  003CAE  0100               	movlb	0	; () banked
  4890  003CB0  B4D8               	btfsc	status,2,c
  4891  003CB2  D011               	goto	l3446
  4892                           
  4893                           ; BSR set to: 0
  4894                           
  4895                           ; BSR set to: 0
  4896                           
  4897                           ;usb.c: 1475: do { (*bd).BDnCNT = (len); (*bd).STAT.BDnSTAT = (0x80|0x40|0x08); } while(
      +                          0);
  4898  003CB4  0100               	movlb	0	; () banked
  4899  003CB6  EE20 F001          	lfsr	2,1
  4900  003CBA  516C               	movf	usb_send_in_buffer@bd& (0+255),w,b
  4901  003CBC  26D9               	addwf	fsr2l,f,c
  4902  003CBE  516D               	movf	(usb_send_in_buffer@bd+1)& (0+255),w,b
  4903  003CC0  22DA               	addwfc	fsr2h,f,c
  4904  003CC2  C066  FFDF         	movff	usb_send_in_buffer@len,indf2
  4905                           
  4906                           ; BSR set to: 0
  4907  003CC6  C06C  FFD9         	movff	usb_send_in_buffer@bd,fsr2l
  4908  003CCA  C06D  FFDA         	movff	usb_send_in_buffer@bd+1,fsr2h
  4909  003CCE  0EC8               	movlw	200
  4910  003CD0  D010               	goto	L4
  4911                           
  4912                           ; BSR set to: 0
  4913  003CD2  D011               	goto	l3450
  4914                           
  4915                           ; BSR set to: 0
  4916  003CD4  D000               	goto	l3446
  4917  003CD6                     l3446:
  4918                           
  4919                           ; BSR set to: 0
  4920  003CD6  0100               	movlb	0	; () banked
  4921  003CD8  EE20 F001          	lfsr	2,1
  4922  003CDC  516C               	movf	usb_send_in_buffer@bd& (0+255),w,b
  4923  003CDE  26D9               	addwf	fsr2l,f,c
  4924  003CE0  516D               	movf	(usb_send_in_buffer@bd+1)& (0+255),w,b
  4925  003CE2  22DA               	addwfc	fsr2h,f,c
  4926  003CE4  C066  FFDF         	movff	usb_send_in_buffer@len,indf2
  4927                           
  4928                           ; BSR set to: 0
  4929  003CE8  C06C  FFD9         	movff	usb_send_in_buffer@bd,fsr2l
  4930  003CEC  C06D  FFDA         	movff	usb_send_in_buffer@bd+1,fsr2h
  4931  003CF0  0E88               	movlw	136
  4932  003CF2                     L4:
  4933  003CF2  6EDF               	movwf	indf2,c
  4934                           
  4935                           ; BSR set to: 0
  4936  003CF4  D000               	goto	l3450
  4937  003CF6                     l3450:
  4938                           
  4939                           ; BSR set to: 0
  4940                           ;usb.c: 1481: ep_buf[endpoint].flags ^= 0x8;
  4941  003CF6  0100               	movlb	0	; () banked
  4942  003CF8  516B               	movf	usb_send_in_buffer@endpoint& (0+255),w,b
  4943  003CFA  0D07               	mullw	7
  4944  003CFC  0E06               	movlw	6
  4945  003CFE  26F3               	addwf	prodl,f,c
  4946  003D00  0E00               	movlw	0
  4947  003D02  22F4               	addwfc	prodh,f,c
  4948  003D04  0E00               	movlw	low _ep_buf
  4949  003D06  24F3               	addwf	prodl,w,c
  4950  003D08  6ED9               	movwf	fsr2l,c
  4951  003D0A  0E01               	movlw	high _ep_buf
  4952  003D0C  20F4               	addwfc	prodh,w,c
  4953  003D0E  6EDA               	movwf	fsr2h,c
  4954  003D10  0E08               	movlw	8
  4955  003D12  1ADF               	xorwf	indf2,f,c
  4956  003D14  0012               	return	
  4957                           
  4958                           ; BSR set to: 0
  4959  003D16  0012               	return		;funcret
  4960  003D18                     __end_of_usb_send_in_buffer:
  4961                           	opt stack 0
  4962                           tblptru	equ	0xFF8
  4963                           tblptrh	equ	0xFF7
  4964                           tblptrl	equ	0xFF6
  4965                           tablat	equ	0xFF5
  4966                           prodh	equ	0xFF4
  4967                           prodl	equ	0xFF3
  4968                           intcon	equ	0xFF2
  4969                           postinc0	equ	0xFEE
  4970                           wreg	equ	0xFE8
  4971                           indf1	equ	0xFE7
  4972                           postinc1	equ	0xFE6
  4973                           postdec1	equ	0xFE5
  4974                           fsr1h	equ	0xFE2
  4975                           fsr1l	equ	0xFE1
  4976                           indf2	equ	0xFDF
  4977                           postinc2	equ	0xFDE
  4978                           postdec2	equ	0xFDD
  4979                           fsr2h	equ	0xFDA
  4980                           fsr2l	equ	0xFD9
  4981                           status	equ	0xFD8
  4982                           
  4983 ;; *************** function _usb_in_endpoint_halted *****************
  4984 ;; Defined at:
  4985 ;;		line 1496 in file "usb.c"
  4986 ;; Parameters:    Size  Location     Type
  4987 ;;  endpoint        1    wreg     unsigned char 
  4988 ;; Auto vars:     Size  Location     Type
  4989 ;;  endpoint        1    0[BANK0 ] unsigned char 
  4990 ;; Return value:  Size  Location     Type
  4991 ;;                  1    wreg      unsigned char 
  4992 ;; Registers used:
  4993 ;;		wreg, fsr2l, fsr2h, status,2, status,0, prodl, prodh
  4994 ;; Tracked objects:
  4995 ;;		On entry : 0/0
  4996 ;;		On exit  : 0/0
  4997 ;;		Unchanged: 0/0
  4998 ;; Data sizes:     COMRAM   BANK0   BANK1   BANK2   BANK3   BANK4   BANK5   BANK6   BANK7
  4999 ;;      Params:         0       0       0       0       0       0       0       0       0
  5000 ;;      Locals:         0       1       0       0       0       0       0       0       0
  5001 ;;      Temps:          0       0       0       0       0       0       0       0       0
  5002 ;;      Totals:         0       1       0       0       0       0       0       0       0
  5003 ;;Total ram usage:        1 bytes
  5004 ;; Hardware stack levels used:    1
  5005 ;; Hardware stack levels required when called:    9
  5006 ;; This function calls:
  5007 ;;		Nothing
  5008 ;; This function is called by:
  5009 ;;		_usb_send_in_buffer
  5010 ;;		_main
  5011 ;; This function uses a non-reentrant model
  5012 ;;
  5013                           
  5014                           	psect	text16
  5015  0048DE                     __ptext16:
  5016                           	opt stack 0
  5017  0048DE                     _usb_in_endpoint_halted:
  5018                           	opt stack 20
  5019                           
  5020                           ;incstack = 0
  5021                           ;usb_in_endpoint_halted@endpoint stored from wreg
  5022  0048DE  0100               	movlb	0	; () banked
  5023  0048E0  6F60               	movwf	usb_in_endpoint_halted@endpoint& (0+255),b
  5024                           
  5025                           ; BSR set to: 0
  5026                           ;usb.c: 1498: return ep_buf[endpoint].flags & 0x2;
  5027  0048E2  0100               	movlb	0	; () banked
  5028  0048E4  5160               	movf	usb_in_endpoint_halted@endpoint& (0+255),w,b
  5029  0048E6  0D07               	mullw	7
  5030  0048E8  0E06               	movlw	6
  5031  0048EA  26F3               	addwf	prodl,f,c
  5032  0048EC  0E00               	movlw	0
  5033  0048EE  22F4               	addwfc	prodh,f,c
  5034  0048F0  0E00               	movlw	low _ep_buf
  5035  0048F2  24F3               	addwf	prodl,w,c
  5036  0048F4  6ED9               	movwf	fsr2l,c
  5037  0048F6  0E01               	movlw	high _ep_buf
  5038  0048F8  20F4               	addwfc	prodh,w,c
  5039  0048FA  6EDA               	movwf	fsr2h,c
  5040  0048FC  50DF               	movf	indf2,w,c
  5041  0048FE  0B02               	andlw	2
  5042  004900  0012               	return	
  5043                           
  5044                           ; BSR set to: 0
  5045                           
  5046                           ; BSR set to: 0
  5047  004902  0012               	return		;funcret
  5048  004904                     __end_of_usb_in_endpoint_halted:
  5049                           	opt stack 0
  5050                           tblptru	equ	0xFF8
  5051                           tblptrh	equ	0xFF7
  5052                           tblptrl	equ	0xFF6
  5053                           tablat	equ	0xFF5
  5054                           prodh	equ	0xFF4
  5055                           prodl	equ	0xFF3
  5056                           intcon	equ	0xFF2
  5057                           postinc0	equ	0xFEE
  5058                           wreg	equ	0xFE8
  5059                           indf1	equ	0xFE7
  5060                           postinc1	equ	0xFE6
  5061                           postdec1	equ	0xFE5
  5062                           fsr1h	equ	0xFE2
  5063                           fsr1l	equ	0xFE1
  5064                           indf2	equ	0xFDF
  5065                           postinc2	equ	0xFDE
  5066                           postdec2	equ	0xFDD
  5067                           fsr2h	equ	0xFDA
  5068                           fsr2l	equ	0xFD9
  5069                           status	equ	0xFD8
  5070                           
  5071 ;; *************** function _usb_in_endpoint_busy *****************
  5072 ;; Defined at:
  5073 ;;		line 1486 in file "usb.c"
  5074 ;; Parameters:    Size  Location     Type
  5075 ;;  endpoint        1    wreg     unsigned char 
  5076 ;; Auto vars:     Size  Location     Type
  5077 ;;  endpoint        1    2[BANK0 ] unsigned char 
  5078 ;; Return value:  Size  Location     Type
  5079 ;;                  1    wreg      unsigned char 
  5080 ;; Registers used:
  5081 ;;		wreg, fsr2l, fsr2h, status,2, status,0
  5082 ;; Tracked objects:
  5083 ;;		On entry : 0/0
  5084 ;;		On exit  : 0/0
  5085 ;;		Unchanged: 0/0
  5086 ;; Data sizes:     COMRAM   BANK0   BANK1   BANK2   BANK3   BANK4   BANK5   BANK6   BANK7
  5087 ;;      Params:         0       0       0       0       0       0       0       0       0
  5088 ;;      Locals:         0       1       0       0       0       0       0       0       0
  5089 ;;      Temps:          0       2       0       0       0       0       0       0       0
  5090 ;;      Totals:         0       3       0       0       0       0       0       0       0
  5091 ;;Total ram usage:        3 bytes
  5092 ;; Hardware stack levels used:    1
  5093 ;; Hardware stack levels required when called:    9
  5094 ;; This function calls:
  5095 ;;		Nothing
  5096 ;; This function is called by:
  5097 ;;		_send_string_sync
  5098 ;;		_main
  5099 ;; This function uses a non-reentrant model
  5100 ;;
  5101                           
  5102                           	psect	text17
  5103  004586                     __ptext17:
  5104                           	opt stack 0
  5105  004586                     _usb_in_endpoint_busy:
  5106                           	opt stack 21
  5107                           
  5108                           ; BSR set to: 0
  5109                           ;incstack = 0
  5110                           ;usb_in_endpoint_busy@endpoint stored from wreg
  5111  004586  0100               	movlb	0	; () banked
  5112  004588  6F62               	movwf	usb_in_endpoint_busy@endpoint& (0+255),b
  5113                           
  5114                           ; BSR set to: 0
  5115                           ;usb.c: 1492: return bds[(endpoint) * 2 + 1].STAT.UOWN;
  5116  00458A  0100               	movlb	0	; () banked
  5117  00458C  5162               	movf	usb_in_endpoint_busy@endpoint& (0+255),w,b
  5118  00458E  0100               	movlb	0	; () banked
  5119  004590  6F60               	movwf	??_usb_in_endpoint_busy& (0+255),b
  5120  004592  6B61               	clrf	(??_usb_in_endpoint_busy+1)& (0+255),b
  5121  004594  90D8               	bcf	status,0,c
  5122  004596  0100               	movlb	0	; () banked
  5123  004598  3760               	rlcf	??_usb_in_endpoint_busy& (0+255),f,b
  5124  00459A  3761               	rlcf	(??_usb_in_endpoint_busy+1)& (0+255),f,b
  5125  00459C  0100               	movlb	0	; () banked
  5126  00459E  90D8               	bcf	status,0,c
  5127  0045A0  3760               	rlcf	??_usb_in_endpoint_busy& (0+255),f,b
  5128  0045A2  3761               	rlcf	(??_usb_in_endpoint_busy+1)& (0+255),f,b
  5129  0045A4  0100               	movlb	0	; () banked
  5130  0045A6  90D8               	bcf	status,0,c
  5131  0045A8  3760               	rlcf	??_usb_in_endpoint_busy& (0+255),f,b
  5132  0045AA  3761               	rlcf	(??_usb_in_endpoint_busy+1)& (0+255),f,b
  5133  0045AC  0E04               	movlw	4
  5134  0045AE  0100               	movlb	0	; () banked
  5135  0045B0  2760               	addwf	??_usb_in_endpoint_busy& (0+255),f,b
  5136  0045B2  0E00               	movlw	0
  5137  0045B4  2361               	addwfc	(??_usb_in_endpoint_busy+1)& (0+255),f,b
  5138  0045B6  0E00               	movlw	0
  5139  0045B8  0100               	movlb	0	; () banked
  5140  0045BA  2560               	addwf	??_usb_in_endpoint_busy& (0+255),w,b
  5141  0045BC  6ED9               	movwf	fsr2l,c
  5142  0045BE  0E04               	movlw	4
  5143  0045C0  0100               	movlb	0	; () banked
  5144  0045C2  2161               	addwfc	(??_usb_in_endpoint_busy+1)& (0+255),w,b
  5145  0045C4  6EDA               	movwf	fsr2h,c
  5146  0045C6  0104               	movlb	4	; () banked
  5147  0045C8  AEDF               	btfss	indf2,7,c
  5148  0045CA  D002               	goto	u3360
  5149  0045CC  0E01               	movlw	1
  5150  0045CE  0012               	return	
  5151  0045D0                     u3360:
  5152  0045D0  0E00               	movlw	0
  5153  0045D2  0012               	return	
  5154                           
  5155                           ; BSR set to: 4
  5156                           
  5157                           ; BSR set to: 4
  5158  0045D4  0012               	return		;funcret
  5159  0045D6                     __end_of_usb_in_endpoint_busy:
  5160                           	opt stack 0
  5161                           tblptru	equ	0xFF8
  5162                           tblptrh	equ	0xFF7
  5163                           tblptrl	equ	0xFF6
  5164                           tablat	equ	0xFF5
  5165                           prodh	equ	0xFF4
  5166                           prodl	equ	0xFF3
  5167                           intcon	equ	0xFF2
  5168                           postinc0	equ	0xFEE
  5169                           wreg	equ	0xFE8
  5170                           indf1	equ	0xFE7
  5171                           postinc1	equ	0xFE6
  5172                           postdec1	equ	0xFE5
  5173                           fsr1h	equ	0xFE2
  5174                           fsr1l	equ	0xFE1
  5175                           indf2	equ	0xFDF
  5176                           postinc2	equ	0xFDE
  5177                           postdec2	equ	0xFDD
  5178                           fsr2h	equ	0xFDA
  5179                           fsr2l	equ	0xFD9
  5180                           status	equ	0xFD8
  5181                           
  5182 ;; *************** function _usb_get_in_buffer *****************
  5183 ;; Defined at:
  5184 ;;		line 1432 in file "usb.c"
  5185 ;; Parameters:    Size  Location     Type
  5186 ;;  endpoint        1    wreg     unsigned char 
  5187 ;; Auto vars:     Size  Location     Type
  5188 ;;  endpoint        1    2[BANK0 ] unsigned char 
  5189 ;; Return value:  Size  Location     Type
  5190 ;;                  2    0[BANK0 ] PTR unsigned char 
  5191 ;; Registers used:
  5192 ;;		wreg, fsr2l, fsr2h, status,2, status,0, prodl, prodh
  5193 ;; Tracked objects:
  5194 ;;		On entry : 0/0
  5195 ;;		On exit  : 0/0
  5196 ;;		Unchanged: 0/0
  5197 ;; Data sizes:     COMRAM   BANK0   BANK1   BANK2   BANK3   BANK4   BANK5   BANK6   BANK7
  5198 ;;      Params:         0       2       0       0       0       0       0       0       0
  5199 ;;      Locals:         0       1       0       0       0       0       0       0       0
  5200 ;;      Temps:          0       0       0       0       0       0       0       0       0
  5201 ;;      Totals:         0       3       0       0       0       0       0       0       0
  5202 ;;Total ram usage:        3 bytes
  5203 ;; Hardware stack levels used:    1
  5204 ;; Hardware stack levels required when called:    9
  5205 ;; This function calls:
  5206 ;;		Nothing
  5207 ;; This function is called by:
  5208 ;;		_send_string_sync
  5209 ;;		_main
  5210 ;; This function uses a non-reentrant model
  5211 ;;
  5212                           
  5213                           	psect	text18
  5214  00483E                     __ptext18:
  5215                           	opt stack 0
  5216  00483E                     _usb_get_in_buffer:
  5217                           	opt stack 21
  5218                           
  5219                           ; BSR set to: 4
  5220                           ;incstack = 0
  5221                           ;usb_get_in_buffer@endpoint stored from wreg
  5222  00483E  0100               	movlb	0	; () banked
  5223  004840  6F62               	movwf	usb_get_in_buffer@endpoint& (0+255),b
  5224                           
  5225                           ; BSR set to: 0
  5226                           ;usb.c: 1440: return ep_buf[endpoint].in;
  5227  004842  0100               	movlb	0	; () banked
  5228  004844  5162               	movf	usb_get_in_buffer@endpoint& (0+255),w,b
  5229  004846  0D07               	mullw	7
  5230  004848  0E02               	movlw	2
  5231  00484A  26F3               	addwf	prodl,f,c
  5232  00484C  0E00               	movlw	0
  5233  00484E  22F4               	addwfc	prodh,f,c
  5234  004850  0E00               	movlw	low _ep_buf
  5235  004852  24F3               	addwf	prodl,w,c
  5236  004854  6ED9               	movwf	fsr2l,c
  5237  004856  0E01               	movlw	high _ep_buf
  5238  004858  20F4               	addwfc	prodh,w,c
  5239  00485A  6EDA               	movwf	fsr2h,c
  5240  00485C  CFDE F060          	movff	postinc2,?_usb_get_in_buffer
  5241  004860  CFDD F061          	movff	postdec2,?_usb_get_in_buffer+1
  5242  004864  0012               	return	
  5243                           
  5244                           ; BSR set to: 0
  5245                           
  5246                           ; BSR set to: 0
  5247  004866  0012               	return		;funcret
  5248  004868                     __end_of_usb_get_in_buffer:
  5249                           	opt stack 0
  5250                           tblptru	equ	0xFF8
  5251                           tblptrh	equ	0xFF7
  5252                           tblptrl	equ	0xFF6
  5253                           tablat	equ	0xFF5
  5254                           prodh	equ	0xFF4
  5255                           prodl	equ	0xFF3
  5256                           intcon	equ	0xFF2
  5257                           postinc0	equ	0xFEE
  5258                           wreg	equ	0xFE8
  5259                           indf1	equ	0xFE7
  5260                           postinc1	equ	0xFE6
  5261                           postdec1	equ	0xFE5
  5262                           fsr1h	equ	0xFE2
  5263                           fsr1l	equ	0xFE1
  5264                           indf2	equ	0xFDF
  5265                           postinc2	equ	0xFDE
  5266                           postdec2	equ	0xFDD
  5267                           fsr2h	equ	0xFDA
  5268                           fsr2l	equ	0xFD9
  5269                           status	equ	0xFD8
  5270                           
  5271 ;; *************** function _strlen *****************
  5272 ;; Defined at:
  5273 ;;		line 4 in file "C:\Program Files (x86)\Microchip\xc8\v1.34\sources\common\strlen.c"
  5274 ;; Parameters:    Size  Location     Type
  5275 ;;  s               2    0[BANK0 ] PTR const unsigned char 
  5276 ;;		 -> NULL(0), ep_buffers(155), 
  5277 ;; Auto vars:     Size  Location     Type
  5278 ;;  cp              2    4[BANK0 ] PTR const unsigned char 
  5279 ;;		 -> NULL(0), ep_buffers(155), 
  5280 ;; Return value:  Size  Location     Type
  5281 ;;                  2    0[BANK0 ] unsigned int 
  5282 ;; Registers used:
  5283 ;;		wreg, fsr2l, fsr2h, status,2, status,0
  5284 ;; Tracked objects:
  5285 ;;		On entry : 0/0
  5286 ;;		On exit  : 0/0
  5287 ;;		Unchanged: 0/0
  5288 ;; Data sizes:     COMRAM   BANK0   BANK1   BANK2   BANK3   BANK4   BANK5   BANK6   BANK7
  5289 ;;      Params:         0       2       0       0       0       0       0       0       0
  5290 ;;      Locals:         0       2       0       0       0       0       0       0       0
  5291 ;;      Temps:          0       2       0       0       0       0       0       0       0
  5292 ;;      Totals:         0       6       0       0       0       0       0       0       0
  5293 ;;Total ram usage:        6 bytes
  5294 ;; Hardware stack levels used:    1
  5295 ;; Hardware stack levels required when called:    9
  5296 ;; This function calls:
  5297 ;;		Nothing
  5298 ;; This function is called by:
  5299 ;;		_send_string_sync
  5300 ;; This function uses a non-reentrant model
  5301 ;;
  5302                           
  5303                           	psect	text19
  5304  0045D6                     __ptext19:
  5305                           	opt stack 0
  5306  0045D6                     _strlen:
  5307                           	opt stack 20
  5308                           
  5309                           ; BSR set to: 0
  5310                           ;incstack = 0
  5311  0045D6  C060  F064         	movff	strlen@s,strlen@cp
  5312  0045DA  C061  F065         	movff	strlen@s+1,strlen@cp+1
  5313  0045DE  D004               	goto	l3466
  5314  0045E0                     l3464:
  5315  0045E0  0100               	movlb	0	; () banked
  5316  0045E2  4B64               	infsnz	strlen@cp& (0+255),f,b
  5317  0045E4  2B65               	incf	(strlen@cp+1)& (0+255),f,b
  5318  0045E6  D000               	goto	l3466
  5319  0045E8                     l3466:
  5320  0045E8  C064  FFD9         	movff	strlen@cp,fsr2l
  5321  0045EC  C065  FFDA         	movff	strlen@cp+1,fsr2h
  5322  0045F0  50DF               	movf	indf2,w,c
  5323  0045F2  A4D8               	btfss	status,2,c
  5324  0045F4  D7F5               	goto	l3464
  5325  0045F6  C060  F062         	movff	strlen@s,??_strlen
  5326  0045FA  C061  F063         	movff	strlen@s+1,??_strlen+1
  5327  0045FE  0100               	movlb	0	; () banked
  5328  004600  1F62               	comf	??_strlen& (0+255),f,b
  5329  004602  1F63               	comf	(??_strlen+1)& (0+255),f,b
  5330  004604  4B62               	infsnz	??_strlen& (0+255),f,b
  5331  004606  2B63               	incf	(??_strlen+1)& (0+255),f,b
  5332  004608  0100               	movlb	0	; () banked
  5333  00460A  5164               	movf	strlen@cp& (0+255),w,b
  5334  00460C  0100               	movlb	0	; () banked
  5335  00460E  2562               	addwf	??_strlen& (0+255),w,b
  5336  004610  0100               	movlb	0	; () banked
  5337  004612  6F60               	movwf	?_strlen& (0+255),b
  5338  004614  0100               	movlb	0	; () banked
  5339  004616  5165               	movf	(strlen@cp+1)& (0+255),w,b
  5340  004618  0100               	movlb	0	; () banked
  5341  00461A  2163               	addwfc	(??_strlen+1)& (0+255),w,b
  5342  00461C  0100               	movlb	0	; () banked
  5343  00461E  6F61               	movwf	(?_strlen+1)& (0+255),b
  5344  004620  0012               	return	
  5345                           
  5346                           ; BSR set to: 0
  5347                           
  5348                           ; BSR set to: 0
  5349  004622  0012               	return		;funcret
  5350  004624                     __end_of_strlen:
  5351                           	opt stack 0
  5352                           tblptru	equ	0xFF8
  5353                           tblptrh	equ	0xFF7
  5354                           tblptrl	equ	0xFF6
  5355                           tablat	equ	0xFF5
  5356                           prodh	equ	0xFF4
  5357                           prodl	equ	0xFF3
  5358                           intcon	equ	0xFF2
  5359                           postinc0	equ	0xFEE
  5360                           wreg	equ	0xFE8
  5361                           indf1	equ	0xFE7
  5362                           postinc1	equ	0xFE6
  5363                           postdec1	equ	0xFE5
  5364                           fsr1h	equ	0xFE2
  5365                           fsr1l	equ	0xFE1
  5366                           indf2	equ	0xFDF
  5367                           postinc2	equ	0xFDE
  5368                           postdec2	equ	0xFDD
  5369                           fsr2h	equ	0xFDA
  5370                           fsr2l	equ	0xFD9
  5371                           status	equ	0xFD8
  5372                           
  5373 ;; *************** function _strcpy *****************
  5374 ;; Defined at:
  5375 ;;		line 8 in file "C:\Program Files (x86)\Microchip\xc8\v1.34\sources\common\strcpy.c"
  5376 ;; Parameters:    Size  Location     Type
  5377 ;;  to              2    0[BANK0 ] PTR unsigned char 
  5378 ;;		 -> NULL(0), ep_buffers(155), 
  5379 ;;  from            2    2[BANK0 ] PTR const unsigned char 
  5380 ;;		 -> STR_9(20), STR_8(39), STR_7(34), STR_6(39), 
  5381 ;;		 -> STR_5(32), STR_4(31), STR_2(3), STR_1(3), 
  5382 ;; Auto vars:     Size  Location     Type
  5383 ;;  cp              2    4[BANK0 ] PTR unsigned char 
  5384 ;;		 -> NULL(0), ep_buffers(155), 
  5385 ;; Return value:  Size  Location     Type
  5386 ;;                  2    0[BANK0 ] PTR unsigned char 
  5387 ;; Registers used:
  5388 ;;		wreg, fsr2l, fsr2h, status,2, status,0, tblptrl, tblptrh, tblptru
  5389 ;; Tracked objects:
  5390 ;;		On entry : 0/0
  5391 ;;		On exit  : 0/0
  5392 ;;		Unchanged: 0/0
  5393 ;; Data sizes:     COMRAM   BANK0   BANK1   BANK2   BANK3   BANK4   BANK5   BANK6   BANK7
  5394 ;;      Params:         0       4       0       0       0       0       0       0       0
  5395 ;;      Locals:         0       2       0       0       0       0       0       0       0
  5396 ;;      Temps:          0       0       0       0       0       0       0       0       0
  5397 ;;      Totals:         0       6       0       0       0       0       0       0       0
  5398 ;;Total ram usage:        6 bytes
  5399 ;; Hardware stack levels used:    1
  5400 ;; Hardware stack levels required when called:    9
  5401 ;; This function calls:
  5402 ;;		Nothing
  5403 ;; This function is called by:
  5404 ;;		_send_string_sync
  5405 ;;		_main
  5406 ;; This function uses a non-reentrant model
  5407 ;;
  5408                           
  5409                           	psect	text20
  5410  00471E                     __ptext20:
  5411                           	opt stack 0
  5412  00471E                     _strcpy:
  5413                           	opt stack 21
  5414                           
  5415                           ; BSR set to: 0
  5416                           ;incstack = 0
  5417  00471E  C060  F064         	movff	strcpy@to,strcpy@cp
  5418  004722  C061  F065         	movff	strcpy@to+1,strcpy@cp+1
  5419  004726  D007               	goto	l3460
  5420  004728                     l3458:
  5421  004728  0100               	movlb	0	; () banked
  5422  00472A  4B64               	infsnz	strcpy@cp& (0+255),f,b
  5423  00472C  2B65               	incf	(strcpy@cp+1)& (0+255),f,b
  5424  00472E  0100               	movlb	0	; () banked
  5425  004730  4B62               	infsnz	strcpy@from& (0+255),f,b
  5426  004732  2B63               	incf	(strcpy@from+1)& (0+255),f,b
  5427  004734  D000               	goto	l3460
  5428  004736                     l3460:
  5429  004736  C062  FFF6         	movff	strcpy@from,tblptrl
  5430  00473A  C063  FFF7         	movff	strcpy@from+1,tblptrh
  5431  00473E                     	if	0	;tblptru may be non-zero
  5432  00473E                     	endif
  5433  00473E                     	if	0	;tblptru may be non-zero
  5434  00473E                     	endif
  5435  00473E  C064  FFD9         	movff	strcpy@cp,fsr2l
  5436  004742  C065  FFDA         	movff	strcpy@cp+1,fsr2h
  5437  004746  0008               	tblrd		*
  5438  004748  CFF5 FFDF          	movff	tablat,indf2
  5439  00474C  50DF               	movf	indf2,w,c
  5440  00474E  A4D8               	btfss	status,2,c
  5441  004750  D7EB               	goto	l3458
  5442                           
  5443                           ;	Return value of _strcpy is never used
  5444  004752  0012               	return		;funcret
  5445  004754                     __end_of_strcpy:
  5446                           	opt stack 0
  5447                           tblptru	equ	0xFF8
  5448                           tblptrh	equ	0xFF7
  5449                           tblptrl	equ	0xFF6
  5450                           tablat	equ	0xFF5
  5451                           prodh	equ	0xFF4
  5452                           prodl	equ	0xFF3
  5453                           intcon	equ	0xFF2
  5454                           postinc0	equ	0xFEE
  5455                           wreg	equ	0xFE8
  5456                           indf1	equ	0xFE7
  5457                           postinc1	equ	0xFE6
  5458                           postdec1	equ	0xFE5
  5459                           fsr1h	equ	0xFE2
  5460                           fsr1l	equ	0xFE1
  5461                           indf2	equ	0xFDF
  5462                           postinc2	equ	0xFDE
  5463                           postdec2	equ	0xFDD
  5464                           fsr2h	equ	0xFDA
  5465                           fsr2l	equ	0xFD9
  5466                           status	equ	0xFD8
  5467                           
  5468 ;; *************** function _memcpy *****************
  5469 ;; Defined at:
  5470 ;;		line 11 in file "C:\Program Files (x86)\Microchip\xc8\v1.34\sources\common\memcpy.c"
  5471 ;; Parameters:    Size  Location     Type
  5472 ;;  d1              2    3[BANK0 ] PTR void 
  5473 ;;		 -> transfer_data(7), NULL(0), ep_buffers(155), 
  5474 ;;  s1              2    5[BANK0 ] PTR const void 
  5475 ;;		 -> fake_serial_num(120), cdc_data_string(38), cdc_interface_string(28), product_string(26), 
  5476 ;;		 -> vendor_string(48), str00(4), configuration_1(70), transfer_data(7), 
  5477 ;;		 -> handle_standard_control_request@ret_593(1), handle_standard_control_request@ret_590(2), handle_standard_control_
      +request@ret(2), this_device_descriptor(18), 
  5478 ;;		 -> g_configuration(1), NULL(0), ep_buffers(155), 
  5479 ;;  n               2    7[BANK0 ] unsigned int 
  5480 ;; Auto vars:     Size  Location     Type
  5481 ;;  s               2   11[BANK0 ] PTR const unsigned char 
  5482 ;;		 -> fake_serial_num(120), cdc_data_string(38), cdc_interface_string(28), product_string(26), 
  5483 ;;		 -> vendor_string(48), str00(4), configuration_1(70), transfer_data(7), 
  5484 ;;		 -> handle_standard_control_request@ret_593(1), handle_standard_control_request@ret_590(2), handle_standard_control_
      +request@ret(2), this_device_descriptor(18), 
  5485 ;;		 -> g_configuration(1), NULL(0), ep_buffers(155), 
  5486 ;;  d               2    9[BANK0 ] PTR unsigned char 
  5487 ;;		 -> transfer_data(7), NULL(0), ep_buffers(155), 
  5488 ;; Return value:  Size  Location     Type
  5489 ;;                  2    3[BANK0 ] PTR void 
  5490 ;; Registers used:
  5491 ;;		wreg, fsr1l, fsr1h, fsr2l, fsr2h, status,2, status,0, tblptrl, tblptrh, tblptru
  5492 ;; Tracked objects:
  5493 ;;		On entry : 0/0
  5494 ;;		On exit  : 0/0
  5495 ;;		Unchanged: 0/0
  5496 ;; Data sizes:     COMRAM   BANK0   BANK1   BANK2   BANK3   BANK4   BANK5   BANK6   BANK7
  5497 ;;      Params:         0       6       0       0       0       0       0       0       0
  5498 ;;      Locals:         0       4       0       0       0       0       0       0       0
  5499 ;;      Temps:          0       0       0       0       0       0       0       0       0
  5500 ;;      Totals:         0      10       0       0       0       0       0       0       0
  5501 ;;Total ram usage:       10 bytes
  5502 ;; Hardware stack levels used:    1
  5503 ;; Hardware stack levels required when called:    9
  5504 ;; This function calls:
  5505 ;;		Nothing
  5506 ;; This function is called by:
  5507 ;;		_main
  5508 ;; This function uses a non-reentrant model
  5509 ;;
  5510                           
  5511                           	psect	text21
  5512  00441E                     __ptext21:
  5513                           	opt stack 0
  5514  00441E                     _memcpy:
  5515                           	opt stack 21
  5516                           
  5517                           ;incstack = 0
  5518  00441E  C065  F06B         	movff	memcpy@s1,memcpy@s
  5519  004422  C066  F06C         	movff	memcpy@s1+1,memcpy@s+1
  5520  004426  C063  F069         	movff	memcpy@d1,memcpy@d
  5521  00442A  C064  F06A         	movff	memcpy@d1+1,memcpy@d+1
  5522  00442E  D01C               	goto	l3738
  5523  004430                     l3732:
  5524  004430  C06B  FFF6         	movff	memcpy@s,tblptrl
  5525  004434  C06C  FFF7         	movff	memcpy@s+1,tblptrh
  5526  004438  6AF8               	clrf	tblptru,c
  5527  00443A  C069  FFD9         	movff	memcpy@d,fsr2l
  5528  00443E  C06A  FFDA         	movff	memcpy@d+1,fsr2h
  5529  004442  0E07               	movlw	(high __ramtop+-1)
  5530  004444  64F7               	cpfsgt	tblptrh,c
  5531  004446  D003               	bra	u3577
  5532  004448  0008               	tblrd		*
  5533  00444A  50F5               	movf	tablat,w,c
  5534  00444C  D005               	bra	u3570
  5535  00444E                     u3577:
  5536  00444E  CFF6 FFE1          	movff	tblptrl,fsr1l
  5537  004452  CFF7 FFE2          	movff	tblptrh,fsr1h
  5538  004456  50E7               	movf	indf1,w,c
  5539  004458                     u3570:
  5540  004458  6EDF               	movwf	indf2,c
  5541  00445A  0100               	movlb	0	; () banked
  5542  00445C  4B6B               	infsnz	memcpy@s& (0+255),f,b
  5543  00445E  2B6C               	incf	(memcpy@s+1)& (0+255),f,b
  5544                           
  5545                           ; BSR set to: 0
  5546  004460  0100               	movlb	0	; () banked
  5547  004462  4B69               	infsnz	memcpy@d& (0+255),f,b
  5548  004464  2B6A               	incf	(memcpy@d+1)& (0+255),f,b
  5549  004466  D000               	goto	l3738
  5550  004468                     l3738:
  5551  004468  0100               	movlb	0	; () banked
  5552  00446A  0767               	decf	memcpy@n& (0+255),f,b
  5553  00446C  A0D8               	btfss	status,0,c
  5554  00446E  0768               	decf	(memcpy@n+1)& (0+255),f,b
  5555  004470  0100               	movlb	0	; () banked
  5556  004472  2967               	incf	memcpy@n& (0+255),w,b
  5557  004474  E1DD               	bnz	l3732
  5558  004476  0100               	movlb	0	; () banked
  5559  004478  2968               	incf	(memcpy@n+1)& (0+255),w,b
  5560  00447A  A4D8               	btfss	status,2,c
  5561  00447C  D7D9               	goto	l3732
  5562                           
  5563                           ; BSR set to: 0
  5564                           
  5565                           ; BSR set to: 0
  5566                           ;	Return value of _memcpy is never used
  5567  00447E  0012               	return		;funcret
  5568  004480                     __end_of_memcpy:
  5569                           	opt stack 0
  5570                           tblptru	equ	0xFF8
  5571                           tblptrh	equ	0xFF7
  5572                           tblptrl	equ	0xFF6
  5573                           tablat	equ	0xFF5
  5574                           prodh	equ	0xFF4
  5575                           prodl	equ	0xFF3
  5576                           intcon	equ	0xFF2
  5577                           postinc0	equ	0xFEE
  5578                           wreg	equ	0xFE8
  5579                           indf1	equ	0xFE7
  5580                           postinc1	equ	0xFE6
  5581                           postdec1	equ	0xFE5
  5582                           fsr1h	equ	0xFE2
  5583                           fsr1l	equ	0xFE1
  5584                           indf2	equ	0xFDF
  5585                           postinc2	equ	0xFDE
  5586                           postdec2	equ	0xFDD
  5587                           fsr2h	equ	0xFDA
  5588                           fsr2l	equ	0xFD9
  5589                           status	equ	0xFD8
  5590                           
  5591 ;; *************** function _measure_data *****************
  5592 ;; Defined at:
  5593 ;;		line 13 in file "measure.c"
  5594 ;; Parameters:    Size  Location     Type
  5595 ;;		None
  5596 ;; Auto vars:     Size  Location     Type
  5597 ;;		None
  5598 ;; Return value:  Size  Location     Type
  5599 ;;                  2    0[BANK0 ] int 
  5600 ;; Registers used:
  5601 ;;		None
  5602 ;; Tracked objects:
  5603 ;;		On entry : 0/0
  5604 ;;		On exit  : 0/0
  5605 ;;		Unchanged: 0/0
  5606 ;; Data sizes:     COMRAM   BANK0   BANK1   BANK2   BANK3   BANK4   BANK5   BANK6   BANK7
  5607 ;;      Params:         0       2       0       0       0       0       0       0       0
  5608 ;;      Locals:         0       0       0       0       0       0       0       0       0
  5609 ;;      Temps:          0       0       0       0       0       0       0       0       0
  5610 ;;      Totals:         0       2       0       0       0       0       0       0       0
  5611 ;;Total ram usage:        2 bytes
  5612 ;; Hardware stack levels used:    1
  5613 ;; Hardware stack levels required when called:    9
  5614 ;; This function calls:
  5615 ;;		Nothing
  5616 ;; This function is called by:
  5617 ;;		_main
  5618 ;; This function uses a non-reentrant model
  5619 ;;
  5620                           
  5621                           	psect	text22
  5622  0049E4                     __ptext22:
  5623                           	opt stack 0
  5624  0049E4                     _measure_data:
  5625                           	opt stack 21
  5626                           
  5627                           ;measure.c: 15: return cpm;
  5628                           
  5629                           ; BSR set to: 0
  5630                           ;incstack = 0
  5631  0049E4  C0F5  F060         	movff	_cpm,?_measure_data
  5632  0049E8  0100               	movlb	0	; () banked
  5633  0049EA  6B61               	clrf	(?_measure_data+1)& (0+255),b
  5634                           
  5635                           ; BSR set to: 0
  5636  0049EC  0012               	return		;funcret
  5637  0049EE                     __end_of_measure_data:
  5638                           	opt stack 0
  5639                           tblptru	equ	0xFF8
  5640                           tblptrh	equ	0xFF7
  5641                           tblptrl	equ	0xFF6
  5642                           tablat	equ	0xFF5
  5643                           prodh	equ	0xFF4
  5644                           prodl	equ	0xFF3
  5645                           intcon	equ	0xFF2
  5646                           postinc0	equ	0xFEE
  5647                           wreg	equ	0xFE8
  5648                           indf1	equ	0xFE7
  5649                           postinc1	equ	0xFE6
  5650                           postdec1	equ	0xFE5
  5651                           fsr1h	equ	0xFE2
  5652                           fsr1l	equ	0xFE1
  5653                           indf2	equ	0xFDF
  5654                           postinc2	equ	0xFDE
  5655                           postdec2	equ	0xFDD
  5656                           fsr2h	equ	0xFDA
  5657                           fsr2l	equ	0xFD9
  5658                           status	equ	0xFD8
  5659                           
  5660 ;; *************** function _isr *****************
  5661 ;; Defined at:
  5662 ;;		line 375 in file "main.c"
  5663 ;; Parameters:    Size  Location     Type
  5664 ;;		None
  5665 ;; Auto vars:     Size  Location     Type
  5666 ;;		None
  5667 ;; Return value:  Size  Location     Type
  5668 ;;		None               void
  5669 ;; Registers used:
  5670 ;;		wreg, fsr1l, fsr1h, fsr2l, fsr2h, status,2, status,0, pclat, tosl, tblptrl, tblptrh, tblptru, prodl, prodh, cstack
  5671 ;; Tracked objects:
  5672 ;;		On entry : 0/0
  5673 ;;		On exit  : 0/0
  5674 ;;		Unchanged: 0/0
  5675 ;; Data sizes:     COMRAM   BANK0   BANK1   BANK2   BANK3   BANK4   BANK5   BANK6   BANK7
  5676 ;;      Params:         0       0       0       0       0       0       0       0       0
  5677 ;;      Locals:         0       0       0       0       0       0       0       0       0
  5678 ;;      Temps:         14       0       0       0       0       0       0       0       0
  5679 ;;      Totals:        14       0       0       0       0       0       0       0       0
  5680 ;;Total ram usage:       14 bytes
  5681 ;; Hardware stack levels used:    1
  5682 ;; Hardware stack levels required when called:    8
  5683 ;; This function calls:
  5684 ;;		_timer_interrupt
  5685 ;;		_usb_service
  5686 ;; This function is called by:
  5687 ;;		Interrupt level 2
  5688 ;; This function uses a non-reentrant model
  5689 ;;
  5690                           
  5691                           	psect	intcode
  5692  002008                     __pintcode:
  5693                           	opt stack 0
  5694  002008                     _isr:
  5695                           	opt stack 19
  5696                           
  5697                           ; BSR set to: 0
  5698                           ;incstack = 0
  5699  002008  CFFA F04D          	movff	pclath,??_isr
  5700  00200C  CFFB F04E          	movff	pclatu,??_isr+1
  5701  002010  CFE9 F04F          	movff	fsr0l,??_isr+2
  5702  002014  CFEA F050          	movff	fsr0h,??_isr+3
  5703  002018  CFE1 F051          	movff	fsr1l,??_isr+4
  5704  00201C  CFE2 F052          	movff	fsr1h,??_isr+5
  5705  002020  CFD9 F053          	movff	fsr2l,??_isr+6
  5706  002024  CFDA F054          	movff	fsr2h,??_isr+7
  5707  002028  CFF3 F055          	movff	prodl,??_isr+8
  5708  00202C  CFF4 F056          	movff	prodh,??_isr+9
  5709  002030  CFF6 F057          	movff	tblptrl,??_isr+10
  5710  002034  CFF7 F058          	movff	tblptrh,??_isr+11
  5711  002038  CFF8 F059          	movff	tblptru,??_isr+12
  5712  00203C  CFF5 F05A          	movff	tablat,??_isr+13
  5713                           
  5714                           ;main.c: 378: if (PIE1bits.TMR1IE && PIR1bits.TMR1IF)
  5715  002040  B09D               	btfsc	3997,0,c	;volatile
  5716  002042  A09E               	btfss	3998,0,c	;volatile
  5717  002044  D003               	goto	i2l4122
  5718                           
  5719                           ;main.c: 379: {
  5720                           ;main.c: 380: timer_interrupt();
  5721  002046  EC58  F023         	call	_timer_interrupt	;wreg free
  5722                           
  5723                           ;main.c: 381: }
  5724  00204A  D003               	goto	i2l587
  5725  00204C                     i2l4122:
  5726                           
  5727                           ;main.c: 386: else
  5728                           ;main.c: 387: {
  5729                           ;main.c: 388: usb_service();
  5730  00204C  EC4F  F01D         	call	_usb_service	;wreg free
  5731  002050  D000               	goto	i2l587
  5732  002052                     i2l587:
  5733  002052  C05A  FFF5         	movff	??_isr+13,tablat
  5734  002056  C059  FFF8         	movff	??_isr+12,tblptru
  5735  00205A  C058  FFF7         	movff	??_isr+11,tblptrh
  5736  00205E  C057  FFF6         	movff	??_isr+10,tblptrl
  5737  002062  C056  FFF4         	movff	??_isr+9,prodh
  5738  002066  C055  FFF3         	movff	??_isr+8,prodl
  5739  00206A  C054  FFDA         	movff	??_isr+7,fsr2h
  5740  00206E  C053  FFD9         	movff	??_isr+6,fsr2l
  5741  002072  C052  FFE2         	movff	??_isr+5,fsr1h
  5742  002076  C051  FFE1         	movff	??_isr+4,fsr1l
  5743  00207A  C050  FFEA         	movff	??_isr+3,fsr0h
  5744  00207E  C04F  FFE9         	movff	??_isr+2,fsr0l
  5745  002082  C04E  FFFB         	movff	??_isr+1,pclatu
  5746  002086  C04D  FFFA         	movff	??_isr,pclath
  5747  00208A  0011               	retfie		f
  5748  00208C                     __end_of_isr:
  5749                           	opt stack 0
  5750                           pclatu	equ	0xFFB
  5751                           pclath	equ	0xFFA
  5752                           tblptru	equ	0xFF8
  5753                           tblptrh	equ	0xFF7
  5754                           tblptrl	equ	0xFF6
  5755                           tablat	equ	0xFF5
  5756                           prodh	equ	0xFF4
  5757                           prodl	equ	0xFF3
  5758                           intcon	equ	0xFF2
  5759                           postinc0	equ	0xFEE
  5760                           fsr0h	equ	0xFEA
  5761                           fsr0l	equ	0xFE9
  5762                           wreg	equ	0xFE8
  5763                           indf1	equ	0xFE7
  5764                           postinc1	equ	0xFE6
  5765                           postdec1	equ	0xFE5
  5766                           fsr1h	equ	0xFE2
  5767                           fsr1l	equ	0xFE1
  5768                           indf2	equ	0xFDF
  5769                           postinc2	equ	0xFDE
  5770                           postdec2	equ	0xFDD
  5771                           fsr2h	equ	0xFDA
  5772                           fsr2l	equ	0xFD9
  5773                           status	equ	0xFD8
  5774                           
  5775 ;; *************** function _usb_service *****************
  5776 ;; Defined at:
  5777 ;;		line 1314 in file "usb.c"
  5778 ;; Parameters:    Size  Location     Type
  5779 ;;		None
  5780 ;; Auto vars:     Size  Location     Type
  5781 ;;  ep              2   71[COMRAM] PTR volatile struct .
  5782 ;;		 -> UEP0(1), 
  5783 ;;  pid             1   75[COMRAM] unsigned char 
  5784 ;;  i               2   73[COMRAM] int 
  5785 ;; Return value:  Size  Location     Type
  5786 ;;		None               void
  5787 ;; Registers used:
  5788 ;;		wreg, fsr1l, fsr1h, fsr2l, fsr2h, status,2, status,0, pclat, tosl, tblptrl, tblptrh, tblptru, prodl, prodh, cstack
  5789 ;; Tracked objects:
  5790 ;;		On entry : 0/0
  5791 ;;		On exit  : 0/0
  5792 ;;		Unchanged: 0/0
  5793 ;; Data sizes:     COMRAM   BANK0   BANK1   BANK2   BANK3   BANK4   BANK5   BANK6   BANK7
  5794 ;;      Params:         0       0       0       0       0       0       0       0       0
  5795 ;;      Locals:         5       0       0       0       0       0       0       0       0
  5796 ;;      Temps:          1       0       0       0       0       0       0       0       0
  5797 ;;      Totals:         6       0       0       0       0       0       0       0       0
  5798 ;;Total ram usage:        6 bytes
  5799 ;; Hardware stack levels used:    1
  5800 ;; Hardware stack levels required when called:    7
  5801 ;; This function calls:
  5802 ;;		_app_in_transaction_complete_callback
  5803 ;;		_app_out_transaction_callback
  5804 ;;		_app_start_of_frame_callback
  5805 ;;		_app_usb_reset_callback
  5806 ;;		_handle_ep0_in
  5807 ;;		_handle_ep0_out
  5808 ;;		_handle_ep0_setup
  5809 ;;		_reset_bd0_out
  5810 ;;		_stall_ep0
  5811 ;;		_stall_ep_in
  5812 ;;		_stall_ep_out
  5813 ;;		i2_usb_init
  5814 ;; This function is called by:
  5815 ;;		_isr
  5816 ;; This function uses a non-reentrant model
  5817 ;;
  5818                           
  5819                           	psect	text24
  5820  003A9E                     __ptext24:
  5821                           	opt stack 0
  5822  003A9E                     _usb_service:
  5823                           	opt stack 19
  5824                           
  5825                           ;usb.c: 1316: if (UIRbits.URSTIF) {
  5826                           
  5827                           ;incstack = 0
  5828  003A9E  A065               	btfss	3941,0,c	;volatile
  5829  003AA0  D006               	goto	i2l3748
  5830                           
  5831                           ;usb.c: 1319: app_usb_reset_callback();
  5832  003AA2  EC21  F025         	call	_app_usb_reset_callback	;wreg free
  5833                           
  5834                           ;usb.c: 1321: usb_init();
  5835  003AA6  EC3A  F01B         	call	i2_usb_init	;wreg free
  5836                           
  5837                           ;usb.c: 1322: UIRbits.URSTIF = 0;
  5838  003AAA  9065               	bcf	3941,0,c	;volatile
  5839  003AAC  D000               	goto	i2l3748
  5840  003AAE                     i2l3748:
  5841                           
  5842                           ;usb.c: 1324: }
  5843                           ;usb.c: 1326: if (UIRbits.STALLIF) {
  5844  003AAE  AA65               	btfss	3941,5,c	;volatile
  5845  003AB0  D021               	goto	i2l276
  5846                           
  5847                           ;usb.c: 1332: int i;
  5848                           ;usb.c: 1333: for (i = 1; i <= 2; i++) {
  5849  003AB2  0E00               	movlw	0
  5850  003AB4  6E4B               	movwf	usb_service@i+1,c
  5851  003AB6  0E01               	movlw	1
  5852  003AB8  6E4A               	movwf	usb_service@i,c
  5853  003ABA  BE4B               	btfsc	usb_service@i+1,7,c
  5854  003ABC  D008               	goto	i2l3756
  5855  003ABE  504B               	movf	usb_service@i+1,w,c
  5856  003AC0  E118               	bnz	i2l278
  5857  003AC2  0E03               	movlw	3
  5858  003AC4  5C4A               	subwf	usb_service@i,w,c
  5859  003AC6  B0D8               	btfsc	status,0,c
  5860  003AC8  D014               	goto	i2l278
  5861  003ACA  D001               	goto	i2l3756
  5862  003ACC  D012               	goto	i2l278
  5863  003ACE                     i2l3756:
  5864                           
  5865                           ;usb.c: 1334: volatile UEP1bits_t *ep = ((UEP1bits_t*) (&UEP0 + 1 * (i)));
  5866  003ACE  0E6A               	movlw	106
  5867  003AD0  244A               	addwf	usb_service@i,w,c
  5868  003AD2  6E48               	movwf	usb_service@ep,c
  5869  003AD4  0E0F               	movlw	15
  5870  003AD6  204B               	addwfc	usb_service@i+1,w,c
  5871  003AD8  6E49               	movwf	usb_service@ep+1,c
  5872                           
  5873                           ;usb.c: 1335: ep->EPSTALL = 0;
  5874  003ADA  C048  FFD9         	movff	usb_service@ep,fsr2l
  5875  003ADE  C049  FFDA         	movff	usb_service@ep+1,fsr2h
  5876  003AE2  90DF               	bcf	indf2,0,c
  5877  003AE4  4A4A               	infsnz	usb_service@i,f,c
  5878  003AE6  2A4B               	incf	usb_service@i+1,f,c
  5879  003AE8  BE4B               	btfsc	usb_service@i+1,7,c
  5880  003AEA  D7F1               	goto	i2l3756
  5881  003AEC  504B               	movf	usb_service@i+1,w,c
  5882  003AEE  E101               	bnz	i2u362_40
  5883  003AF0  D7E8               	goto	L5
  5884  003AF2                     i2u362_40:
  5885  003AF2                     i2l278:
  5886                           
  5887                           ;usb.c: 1336: }
  5888                           ;usb.c: 1338: UIRbits.STALLIF = 0;
  5889  003AF2  9A65               	bcf	3941,5,c	;volatile
  5890  003AF4                     i2l276:
  5891                           
  5892                           ;usb.c: 1339: }
  5893                           ;usb.c: 1342: if (UIRbits.TRNIF) {
  5894  003AF4  A665               	btfss	3941,3,c	;volatile
  5895  003AF6  D087               	goto	i2l279
  5896                           
  5897                           ;usb.c: 1346: if (USTATbits.ENDP == 0 && USTATbits.DIR == 0 ) {
  5898  003AF8  3061               	rrcf	3937,w,c	;volatile
  5899  003AFA  32E8               	rrcf	wreg,f,c
  5900  003AFC  32E8               	rrcf	wreg,f,c
  5901  003AFE  0B0F               	andlw	15
  5902  003B00  0900               	iorlw	0
  5903  003B02  B4D8               	btfsc	status,2,c
  5904  003B04  B461               	btfsc	3937,2,c	;volatile
  5905  003B06  D01E               	goto	i2l3782
  5906                           
  5907                           ;usb.c: 1353: uint8_t pid = bds[0].STAT.PID;
  5908  003B08  0104               	movlb	4	; () banked
  5909  003B0A  3100               	rrcf	0,w,b
  5910  003B0C  32E8               	rrcf	wreg,f,c
  5911  003B0E  0B0F               	andlw	15
  5912  003B10  6E4C               	movwf	usb_service@pid,c
  5913                           
  5914                           ;usb.c: 1355: if (pid == PID_SETUP) {
  5915  003B12  0E0D               	movlw	13
  5916  003B14  184C               	xorwf	usb_service@pid,w,c
  5917  003B16  A4D8               	btfss	status,2,c
  5918  003B18  D003               	goto	i2l3772
  5919                           
  5920                           ; BSR set to: 4
  5921                           ;usb.c: 1356: handle_ep0_setup();
  5922  003B1A  ECD6  F020         	call	_handle_ep0_setup	;wreg free
  5923                           
  5924                           ;usb.c: 1357: }
  5925  003B1E  D00F               	goto	i2l282
  5926  003B20                     i2l3772:
  5927                           
  5928                           ;usb.c: 1358: else if (pid == PID_IN) {
  5929  003B20  0E09               	movlw	9
  5930  003B22  184C               	xorwf	usb_service@pid,w,c
  5931  003B24  B4D8               	btfsc	status,2,c
  5932  003B26  D00B               	goto	i2l282
  5933  003B28  D001               	goto	i2l3776
  5934                           
  5935                           ;usb.c: 1361: }
  5936  003B2A  D009               	goto	i2l282
  5937  003B2C                     i2l3776:
  5938                           
  5939                           ;usb.c: 1362: else if (pid == PID_OUT) {
  5940  003B2C  044C               	decf	usb_service@pid,w,c
  5941  003B2E  A4D8               	btfss	status,2,c
  5942  003B30  D003               	goto	i2l3780
  5943                           
  5944                           ;usb.c: 1363: handle_ep0_out();
  5945  003B32  EC84  F01F         	call	_handle_ep0_out	;wreg free
  5946                           
  5947                           ;usb.c: 1364: }
  5948  003B36  D003               	goto	i2l282
  5949  003B38                     i2l3780:
  5950                           
  5951                           ;usb.c: 1365: else {
  5952                           ;usb.c: 1367: ;
  5953                           ;usb.c: 1368: stall_ep0();
  5954  003B38  ECE4  F024         	call	_stall_ep0	;wreg free
  5955  003B3C  D000               	goto	i2l282
  5956  003B3E                     i2l282:
  5957                           
  5958                           ;usb.c: 1369: }
  5959                           ;usb.c: 1371: reset_bd0_out();
  5960  003B3E  ECCC  F024         	call	_reset_bd0_out	;wreg free
  5961                           
  5962                           ;usb.c: 1372: }
  5963  003B42  D060               	goto	i2l287
  5964  003B44                     i2l3782:
  5965                           
  5966                           ;usb.c: 1373: else if (USTATbits.ENDP == 0 && USTATbits.DIR == 1 ) {
  5967  003B44  3061               	rrcf	3937,w,c	;volatile
  5968  003B46  32E8               	rrcf	wreg,f,c
  5969  003B48  32E8               	rrcf	wreg,f,c
  5970  003B4A  0B0F               	andlw	15
  5971  003B4C  0900               	iorlw	0
  5972  003B4E  B4D8               	btfsc	status,2,c
  5973  003B50  A461               	btfss	3937,2,c	;volatile
  5974  003B52  D003               	goto	i2l3788
  5975                           
  5976                           ;usb.c: 1378: handle_ep0_in();
  5977  003B54  EC09  F01F         	call	_handle_ep0_in	;wreg free
  5978                           
  5979                           ;usb.c: 1379: }
  5980  003B58  D055               	goto	i2l287
  5981  003B5A                     i2l3788:
  5982                           
  5983                           ;usb.c: 1380: else if (USTATbits.ENDP > 0 && USTATbits.ENDP <= 2) {
  5984  003B5A  3061               	rrcf	3937,w,c	;volatile
  5985  003B5C  32E8               	rrcf	wreg,f,c
  5986  003B5E  32E8               	rrcf	wreg,f,c
  5987  003B60  0B0F               	andlw	15
  5988  003B62  0900               	iorlw	0
  5989  003B64  B4D8               	btfsc	status,2,c
  5990  003B66  D04E               	goto	i2l287
  5991  003B68  3061               	rrcf	3937,w,c	;volatile
  5992  003B6A  32E8               	rrcf	wreg,f,c
  5993  003B6C  32E8               	rrcf	wreg,f,c
  5994  003B6E  0B0F               	andlw	15
  5995  003B70  6E47               	movwf	??_usb_service& (0+255),c
  5996  003B72  0E03               	movlw	3
  5997  003B74  6047               	cpfslt	??_usb_service,c
  5998  003B76  D046               	goto	i2l287
  5999                           
  6000                           ;usb.c: 1381: if (USTATbits.DIR == 1 ) {
  6001  003B78  A461               	btfss	3937,2,c	;volatile
  6002  003B7A  D022               	goto	i2l3800
  6003                           
  6004                           ;usb.c: 1383: ;
  6005                           ;usb.c: 1384: if (ep_buf[USTATbits.ENDP].flags & 0x2)
  6006  003B7C  3061               	rrcf	3937,w,c	;volatile
  6007  003B7E  32E8               	rrcf	wreg,f,c
  6008  003B80  32E8               	rrcf	wreg,f,c
  6009  003B82  0B0F               	andlw	15
  6010  003B84  6E47               	movwf	??_usb_service& (0+255),c
  6011  003B86  5047               	movf	??_usb_service,w,c
  6012  003B88  0D07               	mullw	7
  6013  003B8A  0E06               	movlw	6
  6014  003B8C  26F3               	addwf	prodl,f,c
  6015  003B8E  0E00               	movlw	0
  6016  003B90  22F4               	addwfc	prodh,f,c
  6017  003B92  0E00               	movlw	low _ep_buf
  6018  003B94  24F3               	addwf	prodl,w,c
  6019  003B96  6ED9               	movwf	fsr2l,c
  6020  003B98  0E01               	movlw	high _ep_buf
  6021  003B9A  20F4               	addwfc	prodh,w,c
  6022  003B9C  6EDA               	movwf	fsr2h,c
  6023  003B9E  0101               	movlb	1	; () banked
  6024  003BA0  A2DF               	btfss	indf2,1,c
  6025  003BA2  D007               	goto	i2l3798
  6026                           
  6027                           ; BSR set to: 1
  6028                           ;usb.c: 1385: stall_ep_in(USTATbits.ENDP);
  6029  003BA4  3061               	rrcf	3937,w,c	;volatile
  6030  003BA6  32E8               	rrcf	wreg,f,c
  6031  003BA8  32E8               	rrcf	wreg,f,c
  6032  003BAA  0B0F               	andlw	15
  6033  003BAC  EC64  F021         	call	_stall_ep_in
  6034  003BB0  D029               	goto	i2l287
  6035  003BB2                     i2l3798:
  6036                           
  6037                           ;usb.c: 1386: else {
  6038                           ;usb.c: 1388: app_in_transaction_complete_callback(USTATbits.ENDP);
  6039  003BB2  3061               	rrcf	3937,w,c	;volatile
  6040  003BB4  32E8               	rrcf	wreg,f,c
  6041  003BB6  32E8               	rrcf	wreg,f,c
  6042  003BB8  0B0F               	andlw	15
  6043  003BBA  EC24  F025         	call	_app_in_transaction_complete_callback
  6044                           
  6045                           ;usb.c: 1390: }
  6046                           ;usb.c: 1391: }
  6047  003BBE  D022               	goto	i2l287
  6048  003BC0                     i2l3800:
  6049                           
  6050                           ;usb.c: 1392: else {
  6051                           ;usb.c: 1394: ;
  6052                           ;usb.c: 1395: if (ep_buf[USTATbits.ENDP].flags & 0x1)
  6053  003BC0  3061               	rrcf	3937,w,c	;volatile
  6054  003BC2  32E8               	rrcf	wreg,f,c
  6055  003BC4  32E8               	rrcf	wreg,f,c
  6056  003BC6  0B0F               	andlw	15
  6057  003BC8  6E47               	movwf	??_usb_service& (0+255),c
  6058  003BCA  5047               	movf	??_usb_service,w,c
  6059  003BCC  0D07               	mullw	7
  6060  003BCE  0E06               	movlw	6
  6061  003BD0  26F3               	addwf	prodl,f,c
  6062  003BD2  0E00               	movlw	0
  6063  003BD4  22F4               	addwfc	prodh,f,c
  6064  003BD6  0E00               	movlw	low _ep_buf
  6065  003BD8  24F3               	addwf	prodl,w,c
  6066  003BDA  6ED9               	movwf	fsr2l,c
  6067  003BDC  0E01               	movlw	high _ep_buf
  6068  003BDE  20F4               	addwfc	prodh,w,c
  6069  003BE0  6EDA               	movwf	fsr2h,c
  6070  003BE2  0101               	movlb	1	; () banked
  6071  003BE4  A0DF               	btfss	indf2,0,c
  6072  003BE6  D007               	goto	i2l3804
  6073                           
  6074                           ; BSR set to: 1
  6075                           ;usb.c: 1396: stall_ep_out(USTATbits.ENDP);
  6076  003BE8  3061               	rrcf	3937,w,c	;volatile
  6077  003BEA  32E8               	rrcf	wreg,f,c
  6078  003BEC  32E8               	rrcf	wreg,f,c
  6079  003BEE  0B0F               	andlw	15
  6080  003BF0  ECAA  F023         	call	_stall_ep_out
  6081  003BF4  D007               	goto	i2l287
  6082  003BF6                     i2l3804:
  6083                           
  6084                           ;usb.c: 1397: else {
  6085                           ;usb.c: 1399: app_out_transaction_callback(USTATbits.ENDP);
  6086  003BF6  3061               	rrcf	3937,w,c	;volatile
  6087  003BF8  32E8               	rrcf	wreg,f,c
  6088  003BFA  32E8               	rrcf	wreg,f,c
  6089  003BFC  0B0F               	andlw	15
  6090  003BFE  EC23  F025         	call	_app_out_transaction_callback
  6091                           
  6092                           ;usb.c: 1404: else {
  6093                           ;usb.c: 1407: ;
  6094                           
  6095                           ;usb.c: 1401: }
  6096                           ;usb.c: 1402: }
  6097                           ;usb.c: 1403: }
  6098  003C02  D000               	goto	i2l287
  6099  003C04                     i2l287:
  6100                           
  6101                           ;usb.c: 1408: }
  6102                           ;usb.c: 1410: UIRbits.TRNIF = 0;
  6103  003C04  9665               	bcf	3941,3,c	;volatile
  6104  003C06                     i2l279:
  6105                           
  6106                           ;usb.c: 1411: }
  6107                           ;usb.c: 1414: if (UIRbits.SOFIF) {
  6108  003C06  AC65               	btfss	3941,6,c	;volatile
  6109  003C08  D004               	goto	i2l3810
  6110                           
  6111                           ;usb.c: 1416: app_start_of_frame_callback();
  6112  003C0A  EC22  F025         	call	_app_start_of_frame_callback	;wreg free
  6113                           
  6114                           ;usb.c: 1418: UIRbits.SOFIF = 0;
  6115  003C0E  9C65               	bcf	3941,6,c	;volatile
  6116  003C10  D000               	goto	i2l3810
  6117  003C12                     i2l3810:
  6118                           
  6119                           ;usb.c: 1419: }
  6120                           ;usb.c: 1422: if (USBIF) {
  6121  003C12  A4A4               	btfss	4004,2,c	;volatile
  6122  003C14  0012               	return	
  6123                           
  6124                           ;usb.c: 1423: USBIF = 0;
  6125  003C16  94A4               	bcf	4004,2,c	;volatile
  6126  003C18  0012               	return	
  6127  003C1A  0012               	return		;funcret
  6128  003C1C                     __end_of_usb_service:
  6129                           	opt stack 0
  6130                           pclatu	equ	0xFFB
  6131                           pclath	equ	0xFFA
  6132                           tblptru	equ	0xFF8
  6133                           tblptrh	equ	0xFF7
  6134                           tblptrl	equ	0xFF6
  6135                           tablat	equ	0xFF5
  6136                           prodh	equ	0xFF4
  6137                           prodl	equ	0xFF3
  6138                           intcon	equ	0xFF2
  6139                           postinc0	equ	0xFEE
  6140                           fsr0h	equ	0xFEA
  6141                           fsr0l	equ	0xFE9
  6142                           wreg	equ	0xFE8
  6143                           indf1	equ	0xFE7
  6144                           postinc1	equ	0xFE6
  6145                           postdec1	equ	0xFE5
  6146                           fsr1h	equ	0xFE2
  6147                           fsr1l	equ	0xFE1
  6148                           indf2	equ	0xFDF
  6149                           postinc2	equ	0xFDE
  6150                           postdec2	equ	0xFDD
  6151                           fsr2h	equ	0xFDA
  6152                           fsr2l	equ	0xFD9
  6153                           status	equ	0xFD8
  6154                           
  6155 ;; *************** function i2_usb_init *****************
  6156 ;; Defined at:
  6157 ;;		line 487 in file "usb.c"
  6158 ;; Parameters:    Size  Location     Type
  6159 ;;		None
  6160 ;; Auto vars:     Size  Location     Type
  6161 ;;  usb_init        2   10[COMRAM] PTR volatile struct .
  6162 ;;		 -> UEP0(1), 
  6163 ;;  usb_init        1   12[COMRAM] unsigned char 
  6164 ;; Return value:  Size  Location     Type
  6165 ;;		None               void
  6166 ;; Registers used:
  6167 ;;		wreg, fsr1l, fsr1h, fsr2l, fsr2h, status,2, status,0, prodl, prodh, cstack
  6168 ;; Tracked objects:
  6169 ;;		On entry : 0/0
  6170 ;;		On exit  : 0/0
  6171 ;;		Unchanged: 0/0
  6172 ;; Data sizes:     COMRAM   BANK0   BANK1   BANK2   BANK3   BANK4   BANK5   BANK6   BANK7
  6173 ;;      Params:         0       0       0       0       0       0       0       0       0
  6174 ;;      Locals:         3       0       0       0       0       0       0       0       0
  6175 ;;      Temps:          2       0       0       0       0       0       0       0       0
  6176 ;;      Totals:         5       0       0       0       0       0       0       0       0
  6177 ;;Total ram usage:        5 bytes
  6178 ;; Hardware stack levels used:    1
  6179 ;; Hardware stack levels required when called:    1
  6180 ;; This function calls:
  6181 ;;		i2_memset
  6182 ;;		i2_reset_ep0_data_stage
  6183 ;; This function is called by:
  6184 ;;		_usb_service
  6185 ;; This function uses a non-reentrant model
  6186 ;;
  6187                           
  6188                           	psect	text25
  6189  003674                     __ptext25:
  6190                           	opt stack 0
  6191  003674                     i2_usb_init:
  6192                           	opt stack 24
  6193                           
  6194                           ;incstack = 0
  6195                           ;usb.c: 489: uint8_t i;
  6196                           ;usb.c: 493: do { UCFGbits.PPB0 = 0 & 1; UCFGbits.PPB1 = (0 & 2)? 1: 0; } while (0);
  6197  003674  9062               	bcf	3938,0,c	;volatile
  6198  003676  9262               	bcf	3938,1,c	;volatile
  6199  003678  D000               	goto	i2l3510
  6200  00367A                     i2l3510:
  6201                           
  6202                           ;usb.c: 499: UIE = 0x0;
  6203  00367A  0E00               	movlw	0
  6204  00367C  6E64               	movwf	3940,c	;volatile
  6205                           
  6206                           ;usb.c: 500: UEIE = 0x0;
  6207  00367E  0E00               	movlw	0
  6208  003680  6E66               	movwf	3942,c	;volatile
  6209                           
  6210                           ;usb.c: 502: UCONbits.USBEN = 1;
  6211  003682  8660               	bsf	3936,3,c	;volatile
  6212                           
  6213                           ;usb.c: 510: UCFGbits.UPUEN = 1;
  6214  003684  8862               	bsf	3938,4,c	;volatile
  6215                           
  6216                           ;usb.c: 514: UCFGbits.UTRDIS = 0;
  6217  003686  9662               	bcf	3938,3,c	;volatile
  6218                           
  6219                           ;usb.c: 518: UCFGbits.FSEN = 1;
  6220  003688  8462               	bsf	3938,2,c	;volatile
  6221                           
  6222                           ;usb.c: 521: UIRbits.TRNIF = 0;
  6223  00368A  9665               	bcf	3941,3,c	;volatile
  6224                           
  6225                           ;usb.c: 522: UIRbits.TRNIF = 0;
  6226  00368C  9665               	bcf	3941,3,c	;volatile
  6227                           
  6228                           ;usb.c: 523: UIRbits.TRNIF = 0;
  6229  00368E  9665               	bcf	3941,3,c	;volatile
  6230                           
  6231                           ;usb.c: 524: UIRbits.TRNIF = 0;
  6232  003690  9665               	bcf	3941,3,c	;volatile
  6233                           
  6234                           ;usb.c: 526: UIR = 0;
  6235  003692  0E00               	movlw	0
  6236  003694  6E65               	movwf	3941,c	;volatile
  6237                           
  6238                           ;usb.c: 529: UIEbits.TRNIE = 1;
  6239  003696  8664               	bsf	3940,3,c	;volatile
  6240                           
  6241                           ;usb.c: 530: UIEbits.STALLIE = 1;
  6242  003698  8A64               	bsf	3940,5,c	;volatile
  6243                           
  6244                           ;usb.c: 531: UIEbits.URSTIE = 1;
  6245  00369A  8064               	bsf	3940,0,c	;volatile
  6246                           
  6247                           ;usb.c: 533: UIEbits.SOFIE = 1;
  6248  00369C  8C64               	bsf	3940,6,c	;volatile
  6249                           
  6250                           ;usb.c: 576: memset(((UEP1bits_t*) (&UEP0 + 1 * (0))), 0x0, sizeof(*((UEP1bits_t*) (&UEP
      +                          0 + 1 * (0)))) * 16);
  6251  00369E  0E6A               	movlw	106
  6252  0036A0  6E01               	movwf	i2memset@p1,c
  6253  0036A2  0E0F               	movlw	15
  6254  0036A4  6E02               	movwf	i2memset@p1+1,c
  6255  0036A6  0E00               	movlw	0
  6256  0036A8  6E04               	movwf	i2memset@c+1,c
  6257  0036AA  0E00               	movlw	0
  6258  0036AC  6E03               	movwf	i2memset@c,c
  6259  0036AE  0E00               	movlw	0
  6260  0036B0  6E06               	movwf	i2memset@n+1,c
  6261  0036B2  0E10               	movlw	16
  6262  0036B4  6E05               	movwf	i2memset@n,c
  6263  0036B6  ECDC  F023         	call	i2_memset	;wreg free
  6264                           
  6265                           ;usb.c: 579: ((UEP1bits_t*) (&UEP0 + 1 * (0)))->EPHSHK = 1;
  6266  0036BA  886A               	bsf	3946,4,c
  6267                           
  6268                           ;usb.c: 580: ((UEP1bits_t*) (&UEP0 + 1 * (0)))->EPCONDIS = 0;
  6269  0036BC  966A               	bcf	3946,3,c
  6270                           
  6271                           ;usb.c: 581: ((UEP1bits_t*) (&UEP0 + 1 * (0)))->EPOUTEN = 1;
  6272  0036BE  846A               	bsf	3946,2,c
  6273                           
  6274                           ;usb.c: 582: ((UEP1bits_t*) (&UEP0 + 1 * (0)))->EPINEN = 1;
  6275  0036C0  826A               	bsf	3946,1,c
  6276                           
  6277                           ;usb.c: 583: ((UEP1bits_t*) (&UEP0 + 1 * (0)))->EPSTALL = 0;
  6278  0036C2  906A               	bcf	3946,0,c
  6279                           
  6280                           ;usb.c: 585: for (i = 1; i <= 2; i++) {
  6281  0036C4  0E01               	movlw	1
  6282  0036C6  6E0D               	movwf	i2usb_init@i,c
  6283  0036C8                     i2l3550:
  6284  0036C8  0E02               	movlw	2
  6285  0036CA  640D               	cpfsgt	i2usb_init@i,c
  6286  0036CC  D001               	goto	i2l3554
  6287  0036CE  D023               	goto	i2l3570
  6288  0036D0                     i2l3554:
  6289                           
  6290                           ;usb.c: 586: volatile UEP1bits_t *ep = ((UEP1bits_t*) (&UEP0 + 1 * (i)));
  6291  0036D0  500D               	movf	i2usb_init@i,w,c
  6292  0036D2  0D01               	mullw	1
  6293  0036D4  0E6A               	movlw	106
  6294  0036D6  24F3               	addwf	prodl,w,c
  6295  0036D8  6E0B               	movwf	i2usb_init@ep,c
  6296  0036DA  0E0F               	movlw	15
  6297  0036DC  20F4               	addwfc	prodh,w,c
  6298  0036DE  6E0C               	movwf	i2usb_init@ep+1,c
  6299                           
  6300                           ;usb.c: 587: ep->EPHSHK = 1;
  6301  0036E0  C00B  FFD9         	movff	i2usb_init@ep,fsr2l
  6302  0036E4  C00C  FFDA         	movff	i2usb_init@ep+1,fsr2h
  6303  0036E8  88DF               	bsf	indf2,4,c
  6304                           
  6305                           ;usb.c: 588: ep->EPCONDIS = 1;
  6306  0036EA  C00B  FFD9         	movff	i2usb_init@ep,fsr2l
  6307  0036EE  C00C  FFDA         	movff	i2usb_init@ep+1,fsr2h
  6308  0036F2  86DF               	bsf	indf2,3,c
  6309                           
  6310                           ;usb.c: 589: ep->EPOUTEN = 1;
  6311  0036F4  C00B  FFD9         	movff	i2usb_init@ep,fsr2l
  6312  0036F8  C00C  FFDA         	movff	i2usb_init@ep+1,fsr2h
  6313  0036FC  84DF               	bsf	indf2,2,c
  6314                           
  6315                           ;usb.c: 590: ep->EPINEN = 1;
  6316  0036FE  C00B  FFD9         	movff	i2usb_init@ep,fsr2l
  6317  003702  C00C  FFDA         	movff	i2usb_init@ep+1,fsr2h
  6318  003706  82DF               	bsf	indf2,1,c
  6319                           
  6320                           ;usb.c: 591: ep->EPSTALL = 0;
  6321  003708  C00B  FFD9         	movff	i2usb_init@ep,fsr2l
  6322  00370C  C00C  FFDA         	movff	i2usb_init@ep+1,fsr2h
  6323  003710  90DF               	bcf	indf2,0,c
  6324  003712  2A0D               	incf	i2usb_init@i,f,c
  6325  003714  D7D9               	goto	i2l3550
  6326  003716                     i2l3570:
  6327                           
  6328                           ;usb.c: 592: }
  6329                           ;usb.c: 595: UADDR = 0x0;
  6330  003716  0E00               	movlw	0
  6331  003718  6E63               	movwf	3939,c	;volatile
  6332                           
  6333                           ;usb.c: 596: addr_pending = 0;
  6334  00371A  0E00               	movlw	0
  6335  00371C  0100               	movlb	0	; () banked
  6336  00371E  6FF3               	movwf	_addr_pending& (0+255),b
  6337                           
  6338                           ;usb.c: 597: g_configuration = 0;
  6339  003720  0E00               	movlw	0
  6340  003722  6E5F               	movwf	_g_configuration,c
  6341                           
  6342                           ;usb.c: 598: ep0_buf.flags = 0;
  6343  003724  0E00               	movlw	0
  6344  003726  0100               	movlb	0	; () banked
  6345  003728  6FFF               	movwf	(_ep0_buf+4)& (0+255),b
  6346                           
  6347                           ;usb.c: 599: for (i = 0; i <= 2; i++) {
  6348  00372A  0E00               	movlw	0
  6349  00372C  6E0D               	movwf	i2usb_init@i,c
  6350  00372E                     i2l3572:
  6351                           
  6352                           ; BSR set to: 0
  6353  00372E  0E02               	movlw	2
  6354  003730  640D               	cpfsgt	i2usb_init@i,c
  6355  003732  D001               	goto	i2l3576
  6356                           
  6357                           ; BSR set to: 0
  6358  003734  D010               	goto	i2l3582
  6359  003736                     i2l3576:
  6360                           
  6361                           ;usb.c: 603: ep_buf[i].flags = 0x4;
  6362  003736  500D               	movf	i2usb_init@i,w,c
  6363  003738  0D07               	mullw	7
  6364  00373A  0E06               	movlw	6
  6365  00373C  26F3               	addwf	prodl,f,c
  6366  00373E  0E00               	movlw	0
  6367  003740  22F4               	addwfc	prodh,f,c
  6368  003742  0E00               	movlw	low _ep_buf
  6369  003744  24F3               	addwf	prodl,w,c
  6370  003746  6ED9               	movwf	fsr2l,c
  6371  003748  0E01               	movlw	high _ep_buf
  6372  00374A  20F4               	addwfc	prodh,w,c
  6373  00374C  6EDA               	movwf	fsr2h,c
  6374  00374E  0E04               	movlw	4
  6375  003750  6EDF               	movwf	indf2,c
  6376  003752  2A0D               	incf	i2usb_init@i,f,c
  6377  003754  D7EC               	goto	i2l3572
  6378  003756                     i2l3582:
  6379                           
  6380                           ;usb.c: 605: }
  6381                           ;usb.c: 607: memset(bds, 0x0, sizeof(bds));
  6382  003756  0E00               	movlw	0
  6383  003758  6E01               	movwf	i2memset@p1,c
  6384  00375A  0E04               	movlw	4
  6385  00375C  6E02               	movwf	i2memset@p1+1,c
  6386  00375E  0E00               	movlw	0
  6387  003760  6E04               	movwf	i2memset@c+1,c
  6388  003762  0E00               	movlw	0
  6389  003764  6E03               	movwf	i2memset@c,c
  6390  003766  0E00               	movlw	0
  6391  003768  6E06               	movwf	i2memset@n+1,c
  6392  00376A  0E18               	movlw	24
  6393  00376C  6E05               	movwf	i2memset@n,c
  6394  00376E  ECDC  F023         	call	i2_memset	;wreg free
  6395                           
  6396                           ;usb.c: 611: bds[0].BDnADR = (uint16_t) (ep0_buf.out);
  6397  003772  C0FB  F402         	movff	_ep0_buf,1026
  6398  003776  C0FC  F403         	movff	_ep0_buf+1,1027
  6399  00377A  D000               	goto	i2l3586
  6400  00377C                     i2l3586:
  6401  00377C  0E08               	movlw	8
  6402  00377E  0104               	movlb	4	; () banked
  6403  003780  6F01               	movwf	1,b
  6404                           
  6405                           ; BSR set to: 4
  6406  003782  0E80               	movlw	128
  6407  003784  0104               	movlb	4	; () banked
  6408  003786  6F00               	movwf	0,b
  6409  003788  D000               	goto	i2l3590
  6410  00378A                     i2l3590:
  6411                           
  6412                           ; BSR set to: 4
  6413                           ;usb.c: 621: bds[1].BDnADR = (uint16_t) (ep0_buf.in);
  6414  00378A  C0FD  F406         	movff	_ep0_buf+2,1030
  6415  00378E  C0FE  F407         	movff	_ep0_buf+3,1031
  6416  003792  D000               	goto	i2l3592
  6417  003794                     i2l3592:
  6418                           
  6419                           ; BSR set to: 4
  6420  003794  0E08               	movlw	8
  6421  003796  0104               	movlb	4	; () banked
  6422  003798  6F05               	movwf	5,b
  6423                           
  6424                           ; BSR set to: 4
  6425  00379A  0E00               	movlw	0
  6426  00379C  0104               	movlb	4	; () banked
  6427  00379E  6F04               	movwf	4,b
  6428  0037A0  D000               	goto	i2l3596
  6429  0037A2                     i2l3596:
  6430                           
  6431                           ; BSR set to: 4
  6432                           ;usb.c: 628: for (i = 1; i <= 2; i++) {
  6433  0037A2  0E01               	movlw	1
  6434  0037A4  6E0D               	movwf	i2usb_init@i,c
  6435  0037A6                     i2l3598:
  6436                           
  6437                           ; BSR set to: 4
  6438  0037A6  0E02               	movlw	2
  6439  0037A8  640D               	cpfsgt	i2usb_init@i,c
  6440  0037AA  D001               	goto	i2l3602
  6441                           
  6442                           ; BSR set to: 4
  6443  0037AC  D0A3               	goto	i2l3616
  6444  0037AE                     i2l3602:
  6445                           
  6446                           ;usb.c: 631: bds[(i) * 2].BDnADR = (uint16_t) (ep_buf[i].out);
  6447  0037AE  500D               	movf	i2usb_init@i,w,c
  6448  0037B0  0D07               	mullw	7
  6449  0037B2  0E00               	movlw	low _ep_buf
  6450  0037B4  24F3               	addwf	prodl,w,c
  6451  0037B6  6ED9               	movwf	fsr2l,c
  6452  0037B8  0E01               	movlw	high _ep_buf
  6453  0037BA  20F4               	addwfc	prodh,w,c
  6454  0037BC  6EDA               	movwf	fsr2h,c
  6455  0037BE  500D               	movf	i2usb_init@i,w,c
  6456  0037C0  0D08               	mullw	8
  6457  0037C2  0E02               	movlw	2
  6458  0037C4  26F3               	addwf	prodl,f,c
  6459  0037C6  0E00               	movlw	0
  6460  0037C8  22F4               	addwfc	prodh,f,c
  6461  0037CA  0E00               	movlw	0
  6462  0037CC  24F3               	addwf	prodl,w,c
  6463  0037CE  6EE1               	movwf	fsr1l,c
  6464  0037D0  0E04               	movlw	4
  6465  0037D2  20F4               	addwfc	prodh,w,c
  6466  0037D4  6EE2               	movwf	fsr1h,c
  6467  0037D6  CFDE FFE6          	movff	postinc2,postinc1
  6468  0037DA  CFDD FFE5          	movff	postdec2,postdec1
  6469                           
  6470                           ;usb.c: 632: do { (bds[(i) * 2]).BDnCNT = (ep_buf[i].out_len); (bds[(i) * 2]).STAT.BDnST
      +                          AT = (0x80|0x08); } while(0);
  6471  0037DE  500D               	movf	i2usb_init@i,w,c
  6472  0037E0  0D07               	mullw	7
  6473  0037E2  0E04               	movlw	4
  6474  0037E4  26F3               	addwf	prodl,f,c
  6475  0037E6  0E00               	movlw	0
  6476  0037E8  22F4               	addwfc	prodh,f,c
  6477  0037EA  0E00               	movlw	low _ep_buf
  6478  0037EC  24F3               	addwf	prodl,w,c
  6479  0037EE  6ED9               	movwf	fsr2l,c
  6480  0037F0  0E01               	movlw	high _ep_buf
  6481  0037F2  20F4               	addwfc	prodh,w,c
  6482  0037F4  6EDA               	movwf	fsr2h,c
  6483  0037F6  500D               	movf	i2usb_init@i,w,c
  6484  0037F8  0D08               	mullw	8
  6485  0037FA  0E01               	movlw	1
  6486  0037FC  26F3               	addwf	prodl,f,c
  6487  0037FE  0E00               	movlw	0
  6488  003800  22F4               	addwfc	prodh,f,c
  6489  003802  0E00               	movlw	0
  6490  003804  24F3               	addwf	prodl,w,c
  6491  003806  6EE1               	movwf	fsr1l,c
  6492  003808  0E04               	movlw	4
  6493  00380A  20F4               	addwfc	prodh,w,c
  6494  00380C  6EE2               	movwf	fsr1h,c
  6495  00380E  CFDF FFE7          	movff	indf2,indf1
  6496  003812  500D               	movf	i2usb_init@i,w,c
  6497  003814  0D08               	mullw	8
  6498  003816  0E00               	movlw	0
  6499  003818  24F3               	addwf	prodl,w,c
  6500  00381A  6ED9               	movwf	fsr2l,c
  6501  00381C  0E04               	movlw	4
  6502  00381E  20F4               	addwfc	prodh,w,c
  6503  003820  6EDA               	movwf	fsr2h,c
  6504  003822  0E88               	movlw	136
  6505  003824  6EDF               	movwf	indf2,c
  6506  003826  D000               	goto	i2l3606
  6507  003828                     i2l3606:
  6508                           
  6509                           ;usb.c: 640: bds[(i) * 2 + 1].BDnADR = (uint16_t) (ep_buf[i].in);
  6510  003828  500D               	movf	i2usb_init@i,w,c
  6511  00382A  0D07               	mullw	7
  6512  00382C  0E02               	movlw	2
  6513  00382E  26F3               	addwf	prodl,f,c
  6514  003830  0E00               	movlw	0
  6515  003832  22F4               	addwfc	prodh,f,c
  6516  003834  0E00               	movlw	low _ep_buf
  6517  003836  24F3               	addwf	prodl,w,c
  6518  003838  6ED9               	movwf	fsr2l,c
  6519  00383A  0E01               	movlw	high _ep_buf
  6520  00383C  20F4               	addwfc	prodh,w,c
  6521  00383E  6EDA               	movwf	fsr2h,c
  6522  003840  500D               	movf	i2usb_init@i,w,c
  6523  003842  6E09               	movwf	??i2_usb_init& (0+255),c
  6524  003844  6A0A               	clrf	(??i2_usb_init+1)& (0+255),c
  6525  003846  90D8               	bcf	status,0,c
  6526  003848  3609               	rlcf	??i2_usb_init,f,c
  6527  00384A  360A               	rlcf	??i2_usb_init+1,f,c
  6528  00384C  90D8               	bcf	status,0,c
  6529  00384E  3609               	rlcf	??i2_usb_init,f,c
  6530  003850  360A               	rlcf	??i2_usb_init+1,f,c
  6531  003852  90D8               	bcf	status,0,c
  6532  003854  3609               	rlcf	??i2_usb_init,f,c
  6533  003856  360A               	rlcf	??i2_usb_init+1,f,c
  6534  003858  0E06               	movlw	6
  6535  00385A  2609               	addwf	??i2_usb_init,f,c
  6536  00385C  0E00               	movlw	0
  6537  00385E  220A               	addwfc	??i2_usb_init+1,f,c
  6538  003860  0E00               	movlw	0
  6539  003862  2409               	addwf	??i2_usb_init,w,c
  6540  003864  6EE1               	movwf	fsr1l,c
  6541  003866  0E04               	movlw	4
  6542  003868  200A               	addwfc	??i2_usb_init+1,w,c
  6543  00386A  6EE2               	movwf	fsr1h,c
  6544  00386C  CFDE FFE6          	movff	postinc2,postinc1
  6545  003870  CFDD FFE5          	movff	postdec2,postdec1
  6546  003874  D000               	goto	i2l3608
  6547  003876                     i2l3608:
  6548  003876  500D               	movf	i2usb_init@i,w,c
  6549  003878  0D07               	mullw	7
  6550  00387A  0E05               	movlw	5
  6551  00387C  26F3               	addwf	prodl,f,c
  6552  00387E  0E00               	movlw	0
  6553  003880  22F4               	addwfc	prodh,f,c
  6554  003882  0E00               	movlw	low _ep_buf
  6555  003884  24F3               	addwf	prodl,w,c
  6556  003886  6ED9               	movwf	fsr2l,c
  6557  003888  0E01               	movlw	high _ep_buf
  6558  00388A  20F4               	addwfc	prodh,w,c
  6559  00388C  6EDA               	movwf	fsr2h,c
  6560  00388E  500D               	movf	i2usb_init@i,w,c
  6561  003890  6E09               	movwf	??i2_usb_init& (0+255),c
  6562  003892  6A0A               	clrf	(??i2_usb_init+1)& (0+255),c
  6563  003894  90D8               	bcf	status,0,c
  6564  003896  3609               	rlcf	??i2_usb_init,f,c
  6565  003898  360A               	rlcf	??i2_usb_init+1,f,c
  6566  00389A  90D8               	bcf	status,0,c
  6567  00389C  3609               	rlcf	??i2_usb_init,f,c
  6568  00389E  360A               	rlcf	??i2_usb_init+1,f,c
  6569  0038A0  90D8               	bcf	status,0,c
  6570  0038A2  3609               	rlcf	??i2_usb_init,f,c
  6571  0038A4  360A               	rlcf	??i2_usb_init+1,f,c
  6572  0038A6  0E05               	movlw	5
  6573  0038A8  2609               	addwf	??i2_usb_init,f,c
  6574  0038AA  0E00               	movlw	0
  6575  0038AC  220A               	addwfc	??i2_usb_init+1,f,c
  6576  0038AE  0E00               	movlw	0
  6577  0038B0  2409               	addwf	??i2_usb_init,w,c
  6578  0038B2  6EE1               	movwf	fsr1l,c
  6579  0038B4  0E04               	movlw	4
  6580  0038B6  200A               	addwfc	??i2_usb_init+1,w,c
  6581  0038B8  6EE2               	movwf	fsr1h,c
  6582  0038BA  CFDF FFE7          	movff	indf2,indf1
  6583  0038BE  500D               	movf	i2usb_init@i,w,c
  6584  0038C0  6E09               	movwf	??i2_usb_init& (0+255),c
  6585  0038C2  6A0A               	clrf	(??i2_usb_init+1)& (0+255),c
  6586  0038C4  90D8               	bcf	status,0,c
  6587  0038C6  3609               	rlcf	??i2_usb_init,f,c
  6588  0038C8  360A               	rlcf	??i2_usb_init+1,f,c
  6589  0038CA  90D8               	bcf	status,0,c
  6590  0038CC  3609               	rlcf	??i2_usb_init,f,c
  6591  0038CE  360A               	rlcf	??i2_usb_init+1,f,c
  6592  0038D0  90D8               	bcf	status,0,c
  6593  0038D2  3609               	rlcf	??i2_usb_init,f,c
  6594  0038D4  360A               	rlcf	??i2_usb_init+1,f,c
  6595  0038D6  0E04               	movlw	4
  6596  0038D8  2609               	addwf	??i2_usb_init,f,c
  6597  0038DA  0E00               	movlw	0
  6598  0038DC  220A               	addwfc	??i2_usb_init+1,f,c
  6599  0038DE  0E00               	movlw	0
  6600  0038E0  2409               	addwf	??i2_usb_init,w,c
  6601  0038E2  6ED9               	movwf	fsr2l,c
  6602  0038E4  0E04               	movlw	4
  6603  0038E6  200A               	addwfc	??i2_usb_init+1,w,c
  6604  0038E8  6EDA               	movwf	fsr2h,c
  6605  0038EA  0E00               	movlw	0
  6606  0038EC  6EDF               	movwf	indf2,c
  6607  0038EE  D000               	goto	i2l3612
  6608  0038F0                     i2l3612:
  6609  0038F0  2A0D               	incf	i2usb_init@i,f,c
  6610  0038F2  D759               	goto	i2l3598
  6611  0038F4                     i2l3616:
  6612                           
  6613                           ;usb.c: 647: }
  6614                           ;usb.c: 657: reset_ep0_data_stage();
  6615  0038F4  EC34  F024         	call	i2_reset_ep0_data_stage	;wreg free
  6616                           
  6617                           ;usb.c: 660: USBIE = 1;
  6618  0038F8  84A3               	bsf	4003,2,c	;volatile
  6619  0038FA  0012               	return		;funcret
  6620  0038FC                     __end_ofi2_usb_init:
  6621                           	opt stack 0
  6622                           pclatu	equ	0xFFB
  6623                           pclath	equ	0xFFA
  6624                           tblptru	equ	0xFF8
  6625                           tblptrh	equ	0xFF7
  6626                           tblptrl	equ	0xFF6
  6627                           tablat	equ	0xFF5
  6628                           prodh	equ	0xFF4
  6629                           prodl	equ	0xFF3
  6630                           intcon	equ	0xFF2
  6631                           postinc0	equ	0xFEE
  6632                           fsr0h	equ	0xFEA
  6633                           fsr0l	equ	0xFE9
  6634                           wreg	equ	0xFE8
  6635                           indf1	equ	0xFE7
  6636                           postinc1	equ	0xFE6
  6637                           postdec1	equ	0xFE5
  6638                           fsr1h	equ	0xFE2
  6639                           fsr1l	equ	0xFE1
  6640                           indf2	equ	0xFDF
  6641                           postinc2	equ	0xFDE
  6642                           postdec2	equ	0xFDD
  6643                           fsr2h	equ	0xFDA
  6644                           fsr2l	equ	0xFD9
  6645                           status	equ	0xFD8
  6646                           
  6647 ;; *************** function i2_memset *****************
  6648 ;; Defined at:
  6649 ;;		line 8 in file "C:\Program Files (x86)\Microchip\xc8\v1.34\sources\common\memset.c"
  6650 ;; Parameters:    Size  Location     Type
  6651 ;;  p1              2    0[COMRAM] PTR void 
  6652 ;;		 -> bds(24), UEP0(1), 
  6653 ;;  c               2    2[COMRAM] int 
  6654 ;;  n               2    4[COMRAM] unsigned int 
  6655 ;; Auto vars:     Size  Location     Type
  6656 ;;  memset          2    6[COMRAM] PTR unsigned char 
  6657 ;;		 -> bds(24), UEP0(1), 
  6658 ;; Return value:  Size  Location     Type
  6659 ;;                  2    0[COMRAM] PTR void 
  6660 ;; Registers used:
  6661 ;;		wreg, fsr2l, fsr2h, status,2, status,0
  6662 ;; Tracked objects:
  6663 ;;		On entry : 0/0
  6664 ;;		On exit  : 0/0
  6665 ;;		Unchanged: 0/0
  6666 ;; Data sizes:     COMRAM   BANK0   BANK1   BANK2   BANK3   BANK4   BANK5   BANK6   BANK7
  6667 ;;      Params:         6       0       0       0       0       0       0       0       0
  6668 ;;      Locals:         2       0       0       0       0       0       0       0       0
  6669 ;;      Temps:          0       0       0       0       0       0       0       0       0
  6670 ;;      Totals:         8       0       0       0       0       0       0       0       0
  6671 ;;Total ram usage:        8 bytes
  6672 ;; Hardware stack levels used:    1
  6673 ;; This function calls:
  6674 ;;		Nothing
  6675 ;; This function is called by:
  6676 ;;		i2_usb_init
  6677 ;; This function uses a non-reentrant model
  6678 ;;
  6679                           
  6680                           	psect	text26
  6681  0047B8                     __ptext26:
  6682                           	opt stack 0
  6683  0047B8                     i2_memset:
  6684                           	opt stack 24
  6685                           
  6686                           ;incstack = 0
  6687  0047B8  C001  F007         	movff	i2memset@p1,i2memset@p
  6688  0047BC  C002  F008         	movff	i2memset@p1+1,i2memset@p+1
  6689  0047C0  D009               	goto	i2l3298
  6690  0047C2                     i2l3294:
  6691  0047C2  C007  FFD9         	movff	i2memset@p,fsr2l
  6692  0047C6  C008  FFDA         	movff	i2memset@p+1,fsr2h
  6693  0047CA  C003  FFDF         	movff	i2memset@c,indf2
  6694  0047CE  4A07               	infsnz	i2memset@p,f,c
  6695  0047D0  2A08               	incf	i2memset@p+1,f,c
  6696  0047D2  D000               	goto	i2l3298
  6697  0047D4                     i2l3298:
  6698  0047D4  0605               	decf	i2memset@n,f,c
  6699  0047D6  A0D8               	btfss	status,0,c
  6700  0047D8  0606               	decf	i2memset@n+1,f,c
  6701  0047DA  2805               	incf	i2memset@n,w,c
  6702  0047DC  E1F2               	bnz	i2l3294
  6703  0047DE  2806               	incf	i2memset@n+1,w,c
  6704  0047E0  A4D8               	btfss	status,2,c
  6705  0047E2  D7EF               	goto	i2l3294
  6706                           
  6707                           ;	Return value of i2_memset is never used
  6708  0047E4  0012               	return		;funcret
  6709  0047E6                     __end_ofi2_memset:
  6710                           	opt stack 0
  6711                           pclatu	equ	0xFFB
  6712                           pclath	equ	0xFFA
  6713                           tblptru	equ	0xFF8
  6714                           tblptrh	equ	0xFF7
  6715                           tblptrl	equ	0xFF6
  6716                           tablat	equ	0xFF5
  6717                           prodh	equ	0xFF4
  6718                           prodl	equ	0xFF3
  6719                           intcon	equ	0xFF2
  6720                           postinc0	equ	0xFEE
  6721                           fsr0h	equ	0xFEA
  6722                           fsr0l	equ	0xFE9
  6723                           wreg	equ	0xFE8
  6724                           indf1	equ	0xFE7
  6725                           postinc1	equ	0xFE6
  6726                           postdec1	equ	0xFE5
  6727                           fsr1h	equ	0xFE2
  6728                           fsr1l	equ	0xFE1
  6729                           indf2	equ	0xFDF
  6730                           postinc2	equ	0xFDE
  6731                           postdec2	equ	0xFDD
  6732                           fsr2h	equ	0xFDA
  6733                           fsr2l	equ	0xFD9
  6734                           status	equ	0xFD8
  6735                           
  6736 ;; *************** function _reset_bd0_out *****************
  6737 ;; Defined at:
  6738 ;;		line 666 in file "usb.c"
  6739 ;; Parameters:    Size  Location     Type
  6740 ;;		None
  6741 ;; Auto vars:     Size  Location     Type
  6742 ;;		None
  6743 ;; Return value:  Size  Location     Type
  6744 ;;		None               void
  6745 ;; Registers used:
  6746 ;;		wreg, status,2
  6747 ;; Tracked objects:
  6748 ;;		On entry : 0/0
  6749 ;;		On exit  : 0/0
  6750 ;;		Unchanged: 0/0
  6751 ;; Data sizes:     COMRAM   BANK0   BANK1   BANK2   BANK3   BANK4   BANK5   BANK6   BANK7
  6752 ;;      Params:         0       0       0       0       0       0       0       0       0
  6753 ;;      Locals:         0       0       0       0       0       0       0       0       0
  6754 ;;      Temps:          0       0       0       0       0       0       0       0       0
  6755 ;;      Totals:         0       0       0       0       0       0       0       0       0
  6756 ;;Total ram usage:        0 bytes
  6757 ;; Hardware stack levels used:    1
  6758 ;; This function calls:
  6759 ;;		Nothing
  6760 ;; This function is called by:
  6761 ;;		_usb_service
  6762 ;; This function uses a non-reentrant model
  6763 ;;
  6764                           
  6765                           	psect	text27
  6766  004998                     __ptext27:
  6767                           	opt stack 0
  6768  004998                     _reset_bd0_out:
  6769                           	opt stack 25
  6770                           
  6771                           ;incstack = 0
  6772                           ;usb.c: 674: do { (bds[0]).BDnCNT = (8); (bds[0]).STAT.BDnSTAT = (0x80); } while(0);
  6773  004998  0E08               	movlw	8
  6774  00499A  0104               	movlb	4	; () banked
  6775  00499C  6F01               	movwf	1,b
  6776  00499E  0E80               	movlw	128
  6777  0049A0  0104               	movlb	4	; () banked
  6778  0049A2  6F00               	movwf	0,b
  6779  0049A4  0012               	return	
  6780                           
  6781                           ; BSR set to: 4
  6782                           
  6783                           ; BSR set to: 4
  6784  0049A6  0012               	return		;funcret
  6785  0049A8                     __end_of_reset_bd0_out:
  6786                           	opt stack 0
  6787                           pclatu	equ	0xFFB
  6788                           pclath	equ	0xFFA
  6789                           tblptru	equ	0xFF8
  6790                           tblptrh	equ	0xFF7
  6791                           tblptrl	equ	0xFF6
  6792                           tablat	equ	0xFF5
  6793                           prodh	equ	0xFF4
  6794                           prodl	equ	0xFF3
  6795                           intcon	equ	0xFF2
  6796                           postinc0	equ	0xFEE
  6797                           fsr0h	equ	0xFEA
  6798                           fsr0l	equ	0xFE9
  6799                           wreg	equ	0xFE8
  6800                           indf1	equ	0xFE7
  6801                           postinc1	equ	0xFE6
  6802                           postdec1	equ	0xFE5
  6803                           fsr1h	equ	0xFE2
  6804                           fsr1l	equ	0xFE1
  6805                           indf2	equ	0xFDF
  6806                           postinc2	equ	0xFDE
  6807                           postdec2	equ	0xFDD
  6808                           fsr2h	equ	0xFDA
  6809                           fsr2l	equ	0xFD9
  6810                           status	equ	0xFD8
  6811                           
  6812 ;; *************** function _handle_ep0_setup *****************
  6813 ;; Defined at:
  6814 ;;		line 1117 in file "usb.c"
  6815 ;; Parameters:    Size  Location     Type
  6816 ;;		None
  6817 ;; Auto vars:     Size  Location     Type
  6818 ;;  setup           2   68[COMRAM] PTR struct setup_packet
  6819 ;;		 -> ep_buffers(155), 
  6820 ;;  res             1   67[COMRAM] char 
  6821 ;; Return value:  Size  Location     Type
  6822 ;;		None               void
  6823 ;; Registers used:
  6824 ;;		wreg, fsr1l, fsr1h, fsr2l, fsr2h, status,2, status,0, pclat, tosl, tblptrl, tblptrh, tblptru, prodl, prodh, cstack
  6825 ;; Tracked objects:
  6826 ;;		On entry : 0/0
  6827 ;;		On exit  : 0/0
  6828 ;;		Unchanged: 0/0
  6829 ;; Data sizes:     COMRAM   BANK0   BANK1   BANK2   BANK3   BANK4   BANK5   BANK6   BANK7
  6830 ;;      Params:         0       0       0       0       0       0       0       0       0
  6831 ;;      Locals:         3       0       0       0       0       0       0       0       0
  6832 ;;      Temps:          0       0       0       0       0       0       0       0       0
  6833 ;;      Totals:         3       0       0       0       0       0       0       0       0
  6834 ;;Total ram usage:        3 bytes
  6835 ;; Hardware stack levels used:    1
  6836 ;; Hardware stack levels required when called:    6
  6837 ;; This function calls:
  6838 ;;		Absolute function
  6839 ;;		_app_unknown_setup_request_callback
  6840 ;;		_clear_ep0_stall
  6841 ;;		_handle_standard_control_request
  6842 ;;		_set_line_coding
  6843 ;;		_set_or_clear_comm_feature_callback
  6844 ;;		_stall_ep0
  6845 ;;		i2_reset_ep0_data_stage
  6846 ;; This function is called by:
  6847 ;;		_usb_service
  6848 ;; This function uses a non-reentrant model
  6849 ;;
  6850                           
  6851                           	psect	text28
  6852  0041AC                     __ptext28:
  6853                           	opt stack 0
  6854  0041AC                     _handle_ep0_setup:
  6855                           	opt stack 19
  6856                           
  6857                           ;usb.c: 1119: struct setup_packet *setup;
  6858                           ;usb.c: 1126: setup = (struct setup_packet*) ep0_buf.out;
  6859                           
  6860                           ; BSR set to: 4
  6861                           ;incstack = 0
  6862  0041AC  C0FB  F045         	movff	_ep0_buf,handle_ep0_setup@setup
  6863  0041B0  C0FC  F046         	movff	_ep0_buf+1,handle_ep0_setup@setup+1
  6864                           
  6865                           ;usb.c: 1129: ep0_data_stage_direc = setup->REQUEST.direction;
  6866  0041B4  C045  FFD9         	movff	handle_ep0_setup@setup,fsr2l
  6867  0041B8  C046  FFDA         	movff	handle_ep0_setup@setup+1,fsr2h
  6868  0041BC  0E00               	movlw	0
  6869  0041BE  BEDF               	btfsc	indf2,7,c
  6870  0041C0  0E01               	movlw	1
  6871  0041C2  0100               	movlb	0	; () banked
  6872  0041C4  6FF6               	movwf	_ep0_data_stage_direc& (0+255),b
  6873                           
  6874                           ; BSR set to: 0
  6875                           ;usb.c: 1130: int8_t res;
  6876                           ;usb.c: 1136: clear_ep0_stall();
  6877  0041C6  ECD4  F024         	call	_clear_ep0_stall	;wreg free
  6878                           
  6879                           ;usb.c: 1138: if (ep0_data_stage_buf_remaining) {
  6880  0041CA  505B               	movf	_ep0_data_stage_buf_remaining,w,c
  6881  0041CC  105C               	iorwf	_ep0_data_stage_buf_remaining+1,w,c
  6882  0041CE  B4D8               	btfsc	status,2,c
  6883  0041D0  D018               	goto	i2l3330
  6884                           
  6885                           ;usb.c: 1143: if (ep0_data_stage_callback)
  6886  0041D2  505D               	movf	_ep0_data_stage_callback,w,c
  6887  0041D4  105E               	iorwf	_ep0_data_stage_callback+1,w,c
  6888  0041D6  B4D8               	btfsc	status,2,c
  6889  0041D8  D011               	goto	i2l3328
  6890                           
  6891                           ;usb.c: 1144: ep0_data_stage_callback(0 , ep0_data_stage_context);
  6892  0041DA  D801               	call	i2u307_48
  6893  0041DC  D00F               	goto	i2l3328
  6894  0041DE                     i2u307_48:
  6895  0041DE  0005               	push	
  6896  0041E0  6EFA               	movwf	pclath,c
  6897  0041E2  505D               	movf	_ep0_data_stage_callback,w,c
  6898  0041E4  6EFD               	movwf	tosl,c
  6899  0041E6  505E               	movf	_ep0_data_stage_callback+1,w,c
  6900  0041E8  6EFE               	movwf	tosh,c
  6901  0041EA  50F8               	movf	tblptru,w,c
  6902  0041EC  6EFF               	movwf	tosu,c
  6903  0041EE  50FA               	movf	pclath,w,c
  6904  0041F0  C0F0  F003         	movff	_ep0_data_stage_context,set_line_coding@context
  6905  0041F4  C0F1  F004         	movff	_ep0_data_stage_context+1,set_line_coding@context+1
  6906  0041F8  0E00               	movlw	0
  6907  0041FA  0012               	return		;indir
  6908  0041FC                     i2l3328:
  6909                           
  6910                           ;usb.c: 1146: reset_ep0_data_stage();
  6911  0041FC  EC34  F024         	call	i2_reset_ep0_data_stage
  6912  004200  D000               	goto	i2l3330
  6913  004202                     i2l3330:
  6914                           
  6915                           ;usb.c: 1147: }
  6916                           ;usb.c: 1149: if (setup->REQUEST.type == REQUEST_TYPE_STANDARD) {
  6917  004202  C045  FFD9         	movff	handle_ep0_setup@setup,fsr2l
  6918  004206  C046  FFDA         	movff	handle_ep0_setup@setup+1,fsr2h
  6919  00420A  38DF               	swapf	indf2,w,c
  6920  00420C  32E8               	rrcf	wreg,f,c
  6921  00420E  0B03               	andlw	3
  6922  004210  0900               	iorlw	0
  6923  004212  A4D8               	btfss	status,2,c
  6924  004214  D00A               	goto	i2l3338
  6925                           
  6926                           ;usb.c: 1150: res = handle_standard_control_request();
  6927  004216  EC96  F011         	call	_handle_standard_control_request	;wreg free
  6928  00421A  6E44               	movwf	handle_ep0_setup@res,c
  6929                           
  6930                           ;usb.c: 1151: if (res < 0)
  6931  00421C  BE44               	btfsc	handle_ep0_setup@res,7,c
  6932  00421E  D005               	goto	i2l3338
  6933  004220  D010               	goto	i2l237
  6934                           
  6935                           ;usb.c: 1152: goto handle_unknown;
  6936  004222  D003               	goto	i2l3338
  6937                           
  6938                           ;usb.c: 1153: }
  6939  004224  D00E               	goto	i2l237
  6940                           
  6941                           ;usb.c: 1178: else
  6942                           ;usb.c: 1179: goto handle_unknown;
  6943  004226  D001               	goto	i2l3338
  6944                           
  6945                           ;usb.c: 1181: goto out;
  6946  004228  D00C               	goto	i2l237
  6947  00422A                     i2l3338:
  6948                           
  6949                           ;usb.c: 1186: res = app_unknown_setup_request_callback(setup);
  6950  00422A  C045  F042         	movff	handle_ep0_setup@setup,app_unknown_setup_request_callback@setup
  6951  00422E  C046  F043         	movff	handle_ep0_setup@setup+1,app_unknown_setup_request_callback@setup+1
  6952  004232  ECDC  F024         	call	_app_unknown_setup_request_callback	;wreg free
  6953  004236  6E44               	movwf	handle_ep0_setup@res,c
  6954                           
  6955                           ;usb.c: 1187: if (res < 0)
  6956  004238  AE44               	btfss	handle_ep0_setup@res,7,c
  6957  00423A  D003               	goto	i2l237
  6958                           
  6959                           ;usb.c: 1188: stall_ep0();
  6960  00423C  ECE4  F024         	call	_stall_ep0	;wreg free
  6961  004240  D000               	goto	i2l237
  6962  004242                     i2l237:
  6963                           
  6964                           ;usb.c: 1204: UCONbits.PKTDIS = 0;
  6965  004242  9860               	bcf	3936,4,c	;volatile
  6966  004244  0012               	return		;funcret
  6967  004246                     __end_of_handle_ep0_setup:
  6968                           	opt stack 0
  6969                           tosu	equ	0xFFF
  6970                           tosh	equ	0xFFE
  6971                           tosl	equ	0xFFD
  6972                           pclatu	equ	0xFFB
  6973                           pclath	equ	0xFFA
  6974                           tblptru	equ	0xFF8
  6975                           tblptrh	equ	0xFF7
  6976                           tblptrl	equ	0xFF6
  6977                           tablat	equ	0xFF5
  6978                           prodh	equ	0xFF4
  6979                           prodl	equ	0xFF3
  6980                           intcon	equ	0xFF2
  6981                           postinc0	equ	0xFEE
  6982                           fsr0h	equ	0xFEA
  6983                           fsr0l	equ	0xFE9
  6984                           wreg	equ	0xFE8
  6985                           indf1	equ	0xFE7
  6986                           postinc1	equ	0xFE6
  6987                           postdec1	equ	0xFE5
  6988                           fsr1h	equ	0xFE2
  6989                           fsr1l	equ	0xFE1
  6990                           indf2	equ	0xFDF
  6991                           postinc2	equ	0xFDE
  6992                           postdec2	equ	0xFDD
  6993                           fsr2h	equ	0xFDA
  6994                           fsr2l	equ	0xFD9
  6995                           status	equ	0xFD8
  6996                           
  6997 ;; *************** function _handle_standard_control_request *****************
  6998 ;; Defined at:
  6999 ;;		line 825 in file "usb.c"
  7000 ;; Parameters:    Size  Location     Type
  7001 ;;		None
  7002 ;; Auto vars:     Size  Location     Type
  7003 ;;  ep_num          1   53[COMRAM] unsigned char 
  7004 ;;  ep_dir          1   47[COMRAM] unsigned char 
  7005 ;;  ret             2   30[COMRAM] unsigned char [2]
  7006 ;;  flags           1   46[COMRAM] unsigned char 
  7007 ;;  desc            2   51[COMRAM] PTR const void 
  7008 ;;		 -> fake_serial_num(120), cdc_data_string(38), cdc_interface_string(28), product_string(26), 
  7009 ;;		 -> vendor_string(48), str00(4), 
  7010 ;;  len             2   40[COMRAM] int 
  7011 ;;  ep_num          1   45[COMRAM] unsigned char 
  7012 ;;  ret             2   32[COMRAM] unsigned int 
  7013 ;;  len             2   42[COMRAM] int 
  7014 ;;  desc            2   36[COMRAM] PTR const void 
  7015 ;;  desc            2   38[COMRAM] PTR const struct configu
  7016 ;;		 -> configuration_1(70), 
  7017 ;;  stall           1   35[COMRAM] unsigned char 
  7018 ;;  ret             1   48[COMRAM] char 
  7019 ;;  res             1   29[COMRAM] char 
  7020 ;;  req             1   44[COMRAM] unsigned char 
  7021 ;;  descriptor_i    1   50[COMRAM] unsigned char 
  7022 ;;  descriptor      1   49[COMRAM] unsigned char 
  7023 ;;  setup           2   54[COMRAM] PTR struct setup_packet
  7024 ;;		 -> ep_buffers(155), 
  7025 ;;  res             1   34[COMRAM] char 
  7026 ;; Return value:  Size  Location     Type
  7027 ;;                  1    wreg      char 
  7028 ;; Registers used:
  7029 ;;		wreg, fsr1l, fsr1h, fsr2l, fsr2h, status,2, status,0, tblptrl, tblptrh, tblptru, prodl, prodh, cstack
  7030 ;; Tracked objects:
  7031 ;;		On entry : 0/0
  7032 ;;		On exit  : 0/0
  7033 ;;		Unchanged: 0/0
  7034 ;; Data sizes:     COMRAM   BANK0   BANK1   BANK2   BANK3   BANK4   BANK5   BANK6   BANK7
  7035 ;;      Params:         0       0       0       0       0       0       0       0       0
  7036 ;;      Locals:        29       0       0       0       0       0       0       0       0
  7037 ;;      Temps:          2       0       0       0       0       0       0       0       0
  7038 ;;      Totals:        31       0       0       0       0       0       0       0       0
  7039 ;;Total ram usage:       31 bytes
  7040 ;; Hardware stack levels used:    1
  7041 ;; Hardware stack levels required when called:    3
  7042 ;; This function calls:
  7043 ;;		_app_endpoint_halt_callback
  7044 ;;		_app_get_device_status_callback
  7045 ;;		_app_get_interface_callback
  7046 ;;		_app_set_configuration_callback
  7047 ;;		_app_set_interface_callback
  7048 ;;		_app_unknown_get_descriptor_callback
  7049 ;;		_send_zero_length_packet_ep0
  7050 ;;		_stall_ep0
  7051 ;;		_stall_ep_in
  7052 ;;		_stall_ep_out
  7053 ;;		_start_control_return
  7054 ;;		_usb_application_get_string
  7055 ;; This function is called by:
  7056 ;;		_handle_ep0_setup
  7057 ;; This function uses a non-reentrant model
  7058 ;;
  7059                           
  7060                           	psect	text29
  7061  00232C                     __ptext29:
  7062                           	opt stack 0
  7063  00232C                     _handle_standard_control_request:
  7064                           	opt stack 21
  7065                           
  7066                           ;usb.c: 827: struct setup_packet *setup;
  7067                           ;usb.c: 828: int8_t res = 0;
  7068                           
  7069                           ;incstack = 0
  7070  00232C  0E00               	movlw	0
  7071  00232E  6E23               	movwf	handle_standard_control_request@res,c
  7072                           
  7073                           ;usb.c: 836: setup = (struct setup_packet*) ep0_buf.out;
  7074  002330  C0FB  F037         	movff	_ep0_buf,handle_standard_control_request@setup
  7075  002334  C0FC  F038         	movff	_ep0_buf+1,handle_standard_control_request@setup+1
  7076                           
  7077                           ;usb.c: 839: if (setup->bRequest == GET_DESCRIPTOR &&
  7078                           ;usb.c: 840: setup->REQUEST.bmRequestType == 0x80 ) {
  7079  002338  EE20 F001          	lfsr	2,1
  7080  00233C  5037               	movf	handle_standard_control_request@setup,w,c
  7081  00233E  26D9               	addwf	fsr2l,f,c
  7082  002340  5038               	movf	handle_standard_control_request@setup+1,w,c
  7083  002342  22DA               	addwfc	fsr2h,f,c
  7084  002344  0E06               	movlw	6
  7085  002346  18DE               	xorwf	postinc2,w,c
  7086  002348  A4D8               	btfss	status,2,c
  7087  00234A  D0C3               	goto	i2l3140
  7088  00234C  C037  FFD9         	movff	handle_standard_control_request@setup,fsr2l
  7089  002350  C038  FFDA         	movff	handle_standard_control_request@setup+1,fsr2h
  7090  002354  0E80               	movlw	128
  7091  002356  18DE               	xorwf	postinc2,w,c
  7092  002358  A4D8               	btfss	status,2,c
  7093  00235A  D0BB               	goto	i2l3140
  7094                           
  7095                           ;usb.c: 841: char descriptor = ((setup->wValue >> 8) & 0x00ff);
  7096  00235C  EE20 F002          	lfsr	2,2
  7097  002360  5037               	movf	handle_standard_control_request@setup,w,c
  7098  002362  26D9               	addwf	fsr2l,f,c
  7099  002364  5038               	movf	handle_standard_control_request@setup+1,w,c
  7100  002366  22DA               	addwfc	fsr2h,f,c
  7101  002368  CFDE F01A          	movff	postinc2,??_handle_standard_control_request
  7102  00236C  CFDD F01B          	movff	postdec2,??_handle_standard_control_request+1
  7103  002370  C01B  F01A         	movff	??_handle_standard_control_request+1,??_handle_standard_control_request
  7104  002374  6A1B               	clrf	??_handle_standard_control_request+1,c
  7105  002376  501A               	movf	??_handle_standard_control_request,w,c
  7106  002378  6E32               	movwf	handle_standard_control_request@descriptor,c
  7107                           
  7108                           ;usb.c: 842: uint8_t descriptor_index = setup->wValue & 0x00ff;
  7109  00237A  EE20 F002          	lfsr	2,2
  7110  00237E  5037               	movf	handle_standard_control_request@setup,w,c
  7111  002380  26D9               	addwf	fsr2l,f,c
  7112  002382  5038               	movf	handle_standard_control_request@setup+1,w,c
  7113  002384  22DA               	addwfc	fsr2h,f,c
  7114  002386  50DF               	movf	indf2,w,c
  7115  002388  6E33               	movwf	handle_standard_control_request@descriptor_index,c
  7116                           
  7117                           ;usb.c: 844: if (descriptor == DESC_DEVICE) {
  7118  00238A  0432               	decf	handle_standard_control_request@descriptor,w,c
  7119  00238C  A4D8               	btfss	status,2,c
  7120  00238E  D019               	goto	i2l3112
  7121                           
  7122                           ;usb.c: 845: ;
  7123                           ;usb.c: 848: start_control_return(&this_device_descriptor, this_device_descriptor.bLengt
      +                          h, setup->wLength);
  7124  002390  0E49               	movlw	low _this_device_descriptor
  7125  002392  6E0B               	movwf	start_control_return@ptr,c
  7126  002394  0E22               	movlw	high _this_device_descriptor
  7127  002396  6E0C               	movwf	start_control_return@ptr+1,c
  7128  002398  0E49               	movlw	low _this_device_descriptor
  7129  00239A  6EF6               	movwf	tblptrl,c
  7130  00239C                     	if	1	;There is more than 1 active tblptr byte
  7131  00239C  0E22               	movlw	high _this_device_descriptor
  7132  00239E  6EF7               	movwf	tblptrh,c
  7133  0023A0                     	endif
  7134  0023A0                     	if	0	;There are less than 3 active tblptr bytes
  7135  0023A0                     	endif
  7136  0023A0  0008               	tblrd		*
  7137  0023A2  50F5               	movf	tablat,w,c
  7138  0023A4  6E0D               	movwf	start_control_return@len,c
  7139  0023A6  6A0E               	clrf	start_control_return@len+1,c
  7140  0023A8  EE20 F006          	lfsr	2,6
  7141  0023AC  5037               	movf	handle_standard_control_request@setup,w,c
  7142  0023AE  26D9               	addwf	fsr2l,f,c
  7143  0023B0  5038               	movf	handle_standard_control_request@setup+1,w,c
  7144  0023B2  22DA               	addwfc	fsr2h,f,c
  7145  0023B4  CFDE F00F          	movff	postinc2,start_control_return@bytes_asked_for
  7146  0023B8  CFDD F010          	movff	postdec2,start_control_return@bytes_asked_for+1
  7147  0023BC  EC6B  F020         	call	_start_control_return	;wreg free
  7148                           
  7149                           ;usb.c: 849: }
  7150  0023C0  D2EB               	goto	i2l3268
  7151  0023C2                     i2l3112:
  7152                           
  7153                           ;usb.c: 850: else if (descriptor == DESC_CONFIGURATION) {
  7154  0023C2  0E02               	movlw	2
  7155  0023C4  1832               	xorwf	handle_standard_control_request@descriptor,w,c
  7156  0023C6  A4D8               	btfss	status,2,c
  7157  0023C8  D033               	goto	i2l3122
  7158                           
  7159                           ;usb.c: 851: const struct configuration_descriptor *desc;
  7160                           ;usb.c: 852: if (descriptor_index >= 1)
  7161  0023CA  5033               	movf	handle_standard_control_request@descriptor_index,w,c
  7162  0023CC  B4D8               	btfsc	status,2,c
  7163  0023CE  D003               	goto	i2l3118
  7164                           
  7165                           ;usb.c: 853: stall_ep0();
  7166  0023D0  ECE4  F024         	call	_stall_ep0	;wreg free
  7167  0023D4  D2E1               	goto	i2l3268
  7168  0023D6                     i2l3118:
  7169                           
  7170                           ;usb.c: 854: else {
  7171                           ;usb.c: 855: desc = usb_application_config_descs[descriptor_index];
  7172  0023D6  5033               	movf	handle_standard_control_request@descriptor_index,w,c
  7173  0023D8  0D02               	mullw	2
  7174  0023DA  0E15               	movlw	low _usb_application_config_descs
  7175  0023DC  24F3               	addwf	prodl,w,c
  7176  0023DE  6ED9               	movwf	fsr2l,c
  7177  0023E0  0E01               	movlw	high _usb_application_config_descs
  7178  0023E2  20F4               	addwfc	prodh,w,c
  7179  0023E4  6EDA               	movwf	fsr2h,c
  7180  0023E6  CFDE F027          	movff	postinc2,handle_standard_control_request@desc
  7181  0023EA  CFDD F028          	movff	postdec2,handle_standard_control_request@desc+1
  7182                           
  7183                           ;usb.c: 856: start_control_return(desc, desc->wTotalLength, setup->wLength);
  7184  0023EE  C027  F00B         	movff	handle_standard_control_request@desc,start_control_return@ptr
  7185  0023F2  C028  F00C         	movff	handle_standard_control_request@desc+1,start_control_return@ptr+1
  7186  0023F6  0E02               	movlw	2
  7187  0023F8  2427               	addwf	handle_standard_control_request@desc,w,c
  7188  0023FA  6E1A               	movwf	??_handle_standard_control_request& (0+255),c
  7189  0023FC  0E00               	movlw	0
  7190  0023FE  2028               	addwfc	handle_standard_control_request@desc+1,w,c
  7191  002400  6E1B               	movwf	(??_handle_standard_control_request+1)& (0+255),c
  7192  002402  C01A  FFF6         	movff	??_handle_standard_control_request,tblptrl
  7193  002406  C01B  FFF7         	movff	??_handle_standard_control_request+1,tblptrh
  7194  00240A                     	if	0	;tblptru may be non-zero
  7195  00240A                     	endif
  7196  00240A                     	if	0	;tblptru may be non-zero
  7197  00240A                     	endif
  7198  00240A  0009               	tblrd		*+
  7199  00240C  CFF5 F00D          	movff	tablat,start_control_return@len
  7200  002410  000A               	tblrd		*-
  7201  002412  CFF5 F00E          	movff	tablat,start_control_return@len+1
  7202  002416  EE20 F006          	lfsr	2,6
  7203  00241A  5037               	movf	handle_standard_control_request@setup,w,c
  7204  00241C  26D9               	addwf	fsr2l,f,c
  7205  00241E  5038               	movf	handle_standard_control_request@setup+1,w,c
  7206  002420  22DA               	addwfc	fsr2h,f,c
  7207  002422  CFDE F00F          	movff	postinc2,start_control_return@bytes_asked_for
  7208  002426  CFDD F010          	movff	postdec2,start_control_return@bytes_asked_for+1
  7209  00242A  EC6B  F020         	call	_start_control_return	;wreg free
  7210                           
  7211                           ;usb.c: 857: }
  7212                           ;usb.c: 858: }
  7213  00242E  D2B4               	goto	i2l3268
  7214  002430                     i2l3122:
  7215                           
  7216                           ;usb.c: 859: else if (descriptor == DESC_STRING) {
  7217  002430  0E03               	movlw	3
  7218  002432  1832               	xorwf	handle_standard_control_request@descriptor,w,c
  7219  002434  A4D8               	btfss	status,2,c
  7220  002436  D025               	goto	i2l3132
  7221                           
  7222                           ;usb.c: 881: {
  7223                           ;usb.c: 883: const void *desc;
  7224                           ;usb.c: 884: int16_t len;
  7225                           ;usb.c: 885: {
  7226                           ;usb.c: 886: len = usb_application_get_string(descriptor_index, &desc);
  7227  002438  0E34               	movlw	low handle_standard_control_request@desc_578
  7228  00243A  6E01               	movwf	usb_application_get_string@ptr,c
  7229  00243C  0E00               	movlw	high handle_standard_control_request@desc_578
  7230  00243E  6E02               	movwf	usb_application_get_string@ptr+1,c
  7231  002440  5033               	movf	handle_standard_control_request@descriptor_index,w,c
  7232  002442  ECFD  F01F         	call	_usb_application_get_string
  7233  002446  C001  F029         	movff	?_usb_application_get_string,handle_standard_control_request@len
  7234  00244A  C002  F02A         	movff	?_usb_application_get_string+1,handle_standard_control_request@len+1
  7235                           
  7236                           ;usb.c: 887: if (len < 0) {
  7237  00244E  AE2A               	btfss	handle_standard_control_request@len+1,7,c
  7238  002450  D003               	goto	i2l3130
  7239                           
  7240                           ;usb.c: 888: stall_ep0();
  7241  002452  ECE4  F024         	call	_stall_ep0	;wreg free
  7242                           
  7243                           ;usb.c: 889: ;
  7244                           ;usb.c: 890: }
  7245  002456  D2A0               	goto	i2l3268
  7246  002458                     i2l3130:
  7247                           
  7248                           ;usb.c: 891: else
  7249                           ;usb.c: 892: start_control_return(desc, len, setup->wLength);
  7250  002458  C034  F00B         	movff	handle_standard_control_request@desc_578,start_control_return@ptr
  7251  00245C  C035  F00C         	movff	handle_standard_control_request@desc_578+1,start_control_return@ptr+1
  7252  002460  C029  F00D         	movff	handle_standard_control_request@len,start_control_return@len
  7253  002464  C02A  F00E         	movff	handle_standard_control_request@len+1,start_control_return@len+1
  7254  002468  EE20 F006          	lfsr	2,6
  7255  00246C  5037               	movf	handle_standard_control_request@setup,w,c
  7256  00246E  26D9               	addwf	fsr2l,f,c
  7257  002470  5038               	movf	handle_standard_control_request@setup+1,w,c
  7258  002472  22DA               	addwfc	fsr2h,f,c
  7259  002474  CFDE F00F          	movff	postinc2,start_control_return@bytes_asked_for
  7260  002478  CFDD F010          	movff	postdec2,start_control_return@bytes_asked_for+1
  7261  00247C  EC6B  F020         	call	_start_control_return	;wreg free
  7262                           
  7263                           ;usb.c: 893: }
  7264                           ;usb.c: 898: }
  7265                           ;usb.c: 899: }
  7266  002480  D28B               	goto	i2l3268
  7267  002482                     i2l3132:
  7268                           
  7269                           ;usb.c: 900: else {
  7270                           ;usb.c: 902: int16_t len;
  7271                           ;usb.c: 903: const void *desc;
  7272                           ;usb.c: 904: len = app_unknown_get_descriptor_callback(setup, &desc);
  7273  002482  C037  F001         	movff	handle_standard_control_request@setup,app_unknown_get_descriptor_callback@pkt
  7274  002486  C038  F002         	movff	handle_standard_control_request@setup+1,app_unknown_get_descriptor_callback@pkt+1
  7275  00248A  0E25               	movlw	low handle_standard_control_request@desc_581
  7276  00248C  6E03               	movwf	app_unknown_get_descriptor_callback@descriptor,c
  7277  00248E  0E00               	movlw	high handle_standard_control_request@desc_581
  7278  002490  6E04               	movwf	app_unknown_get_descriptor_callback@descriptor+1,c
  7279  002492  ECFE  F024         	call	_app_unknown_get_descriptor_callback	;wreg free
  7280  002496  C001  F02B         	movff	?_app_unknown_get_descriptor_callback,handle_standard_control_request@len_580
  7281  00249A  C002  F02C         	movff	?_app_unknown_get_descriptor_callback+1,handle_standard_control_request@len_580+1
  7282                           
  7283                           ;usb.c: 905: if (len < 0) {
  7284  00249E  AE2C               	btfss	handle_standard_control_request@len_580+1,7,c
  7285  0024A0  D003               	goto	i2l3138
  7286                           
  7287                           ;usb.c: 906: stall_ep0();
  7288  0024A2  ECE4  F024         	call	_stall_ep0	;wreg free
  7289                           
  7290                           ;usb.c: 907: ;
  7291                           ;usb.c: 908: }
  7292  0024A6  D278               	goto	i2l3268
  7293  0024A8                     i2l3138:
  7294                           
  7295                           ;usb.c: 909: else
  7296                           ;usb.c: 910: start_control_return(desc, len, setup->wLength);
  7297  0024A8  C025  F00B         	movff	handle_standard_control_request@desc_581,start_control_return@ptr
  7298  0024AC  C026  F00C         	movff	handle_standard_control_request@desc_581+1,start_control_return@ptr+1
  7299  0024B0  C02B  F00D         	movff	handle_standard_control_request@len_580,start_control_return@len
  7300  0024B4  C02C  F00E         	movff	handle_standard_control_request@len_580+1,start_control_return@len+1
  7301  0024B8  EE20 F006          	lfsr	2,6
  7302  0024BC  5037               	movf	handle_standard_control_request@setup,w,c
  7303  0024BE  26D9               	addwf	fsr2l,f,c
  7304  0024C0  5038               	movf	handle_standard_control_request@setup+1,w,c
  7305  0024C2  22DA               	addwfc	fsr2h,f,c
  7306  0024C4  CFDE F00F          	movff	postinc2,start_control_return@bytes_asked_for
  7307  0024C8  CFDD F010          	movff	postdec2,start_control_return@bytes_asked_for+1
  7308  0024CC  EC6B  F020         	call	_start_control_return	;wreg free
  7309                           
  7310                           ;usb.c: 917: }
  7311                           ;usb.c: 918: }
  7312  0024D0  D263               	goto	i2l3268
  7313  0024D2                     i2l3140:
  7314                           
  7315                           ;usb.c: 919: else if (setup->bRequest == SET_ADDRESS) {
  7316  0024D2  EE20 F001          	lfsr	2,1
  7317  0024D6  5037               	movf	handle_standard_control_request@setup,w,c
  7318  0024D8  26D9               	addwf	fsr2l,f,c
  7319  0024DA  5038               	movf	handle_standard_control_request@setup+1,w,c
  7320  0024DC  22DA               	addwfc	fsr2h,f,c
  7321  0024DE  0E05               	movlw	5
  7322  0024E0  18DE               	xorwf	postinc2,w,c
  7323  0024E2  A4D8               	btfss	status,2,c
  7324  0024E4  D00F               	goto	i2l3148
  7325                           
  7326                           ;usb.c: 922: addr_pending = 1;
  7327  0024E6  0E01               	movlw	1
  7328  0024E8  0100               	movlb	0	; () banked
  7329  0024EA  6FF3               	movwf	_addr_pending& (0+255),b
  7330                           
  7331                           ; BSR set to: 0
  7332                           ;usb.c: 923: addr = setup->wValue;
  7333  0024EC  EE20 F002          	lfsr	2,2
  7334  0024F0  5037               	movf	handle_standard_control_request@setup,w,c
  7335  0024F2  26D9               	addwf	fsr2l,f,c
  7336  0024F4  5038               	movf	handle_standard_control_request@setup+1,w,c
  7337  0024F6  22DA               	addwfc	fsr2h,f,c
  7338  0024F8  50DF               	movf	indf2,w,c
  7339  0024FA  0100               	movlb	0	; () banked
  7340  0024FC  6FF2               	movwf	_addr& (0+255),b
  7341                           
  7342                           ; BSR set to: 0
  7343                           ;usb.c: 925: send_zero_length_packet_ep0();
  7344  0024FE  ECC1  F024         	call	_send_zero_length_packet_ep0	;wreg free
  7345                           
  7346                           ;usb.c: 926: }
  7347  002502  D24A               	goto	i2l3268
  7348  002504                     i2l3148:
  7349                           
  7350                           ;usb.c: 927: else if (setup->bRequest == SET_CONFIGURATION) {
  7351  002504  EE20 F001          	lfsr	2,1
  7352  002508  5037               	movf	handle_standard_control_request@setup,w,c
  7353  00250A  26D9               	addwf	fsr2l,f,c
  7354  00250C  5038               	movf	handle_standard_control_request@setup+1,w,c
  7355  00250E  22DA               	addwfc	fsr2h,f,c
  7356  002510  0E09               	movlw	9
  7357  002512  18DE               	xorwf	postinc2,w,c
  7358  002514  A4D8               	btfss	status,2,c
  7359  002516  D010               	goto	i2l3158
  7360                           
  7361                           ;usb.c: 931: uint8_t req = setup->wValue & 0x00ff;
  7362  002518  EE20 F002          	lfsr	2,2
  7363  00251C  5037               	movf	handle_standard_control_request@setup,w,c
  7364  00251E  26D9               	addwf	fsr2l,f,c
  7365  002520  5038               	movf	handle_standard_control_request@setup+1,w,c
  7366  002522  22DA               	addwfc	fsr2h,f,c
  7367  002524  50DF               	movf	indf2,w,c
  7368  002526  6E2D               	movwf	handle_standard_control_request@req,c
  7369                           
  7370                           ;usb.c: 933: app_set_configuration_callback(req);
  7371  002528  502D               	movf	handle_standard_control_request@req,w,c
  7372  00252A  EC1C  F025         	call	_app_set_configuration_callback
  7373                           
  7374                           ;usb.c: 935: send_zero_length_packet_ep0();
  7375  00252E  ECC1  F024         	call	_send_zero_length_packet_ep0	;wreg free
  7376                           
  7377                           ;usb.c: 936: g_configuration = req;
  7378  002532  C02D  F05F         	movff	handle_standard_control_request@req,_g_configuration
  7379                           
  7380                           ;usb.c: 938: ;
  7381                           ;usb.c: 939: ;
  7382                           ;usb.c: 940: }
  7383  002536  D230               	goto	i2l3268
  7384  002538                     i2l3158:
  7385                           
  7386                           ;usb.c: 941: else if (setup->bRequest == GET_CONFIGURATION) {
  7387  002538  EE20 F001          	lfsr	2,1
  7388  00253C  5037               	movf	handle_standard_control_request@setup,w,c
  7389  00253E  26D9               	addwf	fsr2l,f,c
  7390  002540  5038               	movf	handle_standard_control_request@setup+1,w,c
  7391  002542  22DA               	addwfc	fsr2h,f,c
  7392  002544  0E08               	movlw	8
  7393  002546  18DE               	xorwf	postinc2,w,c
  7394  002548  A4D8               	btfss	status,2,c
  7395  00254A  D015               	goto	i2l3162
  7396                           
  7397                           ;usb.c: 943: ;
  7398                           ;usb.c: 944: ;
  7399                           ;usb.c: 946: start_control_return(&g_configuration, 1, setup->wLength);
  7400  00254C  0E5F               	movlw	low _g_configuration
  7401  00254E  6E0B               	movwf	start_control_return@ptr,c
  7402  002550  0E00               	movlw	high _g_configuration
  7403  002552  6E0C               	movwf	start_control_return@ptr+1,c
  7404  002554  0E00               	movlw	0
  7405  002556  6E0E               	movwf	start_control_return@len+1,c
  7406  002558  0E01               	movlw	1
  7407  00255A  6E0D               	movwf	start_control_return@len,c
  7408  00255C  EE20 F006          	lfsr	2,6
  7409  002560  5037               	movf	handle_standard_control_request@setup,w,c
  7410  002562  26D9               	addwf	fsr2l,f,c
  7411  002564  5038               	movf	handle_standard_control_request@setup+1,w,c
  7412  002566  22DA               	addwfc	fsr2h,f,c
  7413  002568  CFDE F00F          	movff	postinc2,start_control_return@bytes_asked_for
  7414  00256C  CFDD F010          	movff	postdec2,start_control_return@bytes_asked_for+1
  7415  002570  EC6B  F020         	call	_start_control_return	;wreg free
  7416                           
  7417                           ;usb.c: 947: }
  7418  002574  D211               	goto	i2l3268
  7419  002576                     i2l3162:
  7420                           
  7421                           ;usb.c: 948: else if (setup->bRequest == GET_STATUS) {
  7422  002576  EE20 F001          	lfsr	2,1
  7423  00257A  5037               	movf	handle_standard_control_request@setup,w,c
  7424  00257C  26D9               	addwf	fsr2l,f,c
  7425  00257E  5038               	movf	handle_standard_control_request@setup+1,w,c
  7426  002580  22DA               	addwfc	fsr2h,f,c
  7427  002582  50DF               	movf	indf2,w,c
  7428  002584  A4D8               	btfss	status,2,c
  7429  002586  D083               	goto	i2l3192
  7430                           
  7431                           ;usb.c: 950: ;
  7432                           ;usb.c: 951: ;
  7433                           ;usb.c: 952: ;
  7434                           ;usb.c: 954: if (setup->REQUEST.destination == 0 ) {
  7435  002588  C037  FFD9         	movff	handle_standard_control_request@setup,fsr2l
  7436  00258C  C038  FFDA         	movff	handle_standard_control_request@setup+1,fsr2h
  7437  002590  50DF               	movf	indf2,w,c
  7438  002592  0B1F               	andlw	31
  7439  002594  0900               	iorlw	0
  7440  002596  A4D8               	btfss	status,2,c
  7441  002598  D01B               	goto	i2l3170
  7442                           
  7443                           ;usb.c: 957: uint16_t ret;
  7444                           ;usb.c: 959: ret = app_get_device_status_callback();
  7445  00259A  ECEC  F024         	call	_app_get_device_status_callback	;wreg free
  7446  00259E  C001  F021         	movff	?_app_get_device_status_callback,handle_standard_control_request@ret
  7447  0025A2  C002  F022         	movff	?_app_get_device_status_callback+1,handle_standard_control_request@ret+1
  7448                           
  7449                           ;usb.c: 963: start_control_return(&ret, 2, setup->wLength);
  7450  0025A6  0E21               	movlw	low handle_standard_control_request@ret
  7451  0025A8  6E0B               	movwf	start_control_return@ptr,c
  7452  0025AA  0E00               	movlw	high handle_standard_control_request@ret
  7453  0025AC  6E0C               	movwf	start_control_return@ptr+1,c
  7454  0025AE  0E00               	movlw	0
  7455  0025B0  6E0E               	movwf	start_control_return@len+1,c
  7456  0025B2  0E02               	movlw	2
  7457  0025B4  6E0D               	movwf	start_control_return@len,c
  7458  0025B6  EE20 F006          	lfsr	2,6
  7459  0025BA  5037               	movf	handle_standard_control_request@setup,w,c
  7460  0025BC  26D9               	addwf	fsr2l,f,c
  7461  0025BE  5038               	movf	handle_standard_control_request@setup+1,w,c
  7462  0025C0  22DA               	addwfc	fsr2h,f,c
  7463  0025C2  CFDE F00F          	movff	postinc2,start_control_return@bytes_asked_for
  7464  0025C6  CFDD F010          	movff	postdec2,start_control_return@bytes_asked_for+1
  7465  0025CA  EC6B  F020         	call	_start_control_return	;wreg free
  7466                           
  7467                           ;usb.c: 964: }
  7468  0025CE  D1E4               	goto	i2l3268
  7469  0025D0                     i2l3170:
  7470                           
  7471                           ;usb.c: 965: else if (setup->REQUEST.destination == 2 ) {
  7472  0025D0  C037  FFD9         	movff	handle_standard_control_request@setup,fsr2l
  7473  0025D4  C038  FFDA         	movff	handle_standard_control_request@setup+1,fsr2h
  7474  0025D8  50DF               	movf	indf2,w,c
  7475  0025DA  0B1F               	andlw	31
  7476  0025DC  0A02               	xorlw	2
  7477  0025DE  A4D8               	btfss	status,2,c
  7478  0025E0  D053               	goto	i2l3190
  7479                           
  7480                           ;usb.c: 967: uint8_t ep_num = setup->wIndex & 0x0f;
  7481  0025E2  EE20 F004          	lfsr	2,4
  7482  0025E6  5037               	movf	handle_standard_control_request@setup,w,c
  7483  0025E8  26D9               	addwf	fsr2l,f,c
  7484  0025EA  5038               	movf	handle_standard_control_request@setup+1,w,c
  7485  0025EC  22DA               	addwfc	fsr2h,f,c
  7486  0025EE  50DF               	movf	indf2,w,c
  7487  0025F0  0B0F               	andlw	15
  7488  0025F2  6E2E               	movwf	handle_standard_control_request@ep_num,c
  7489                           
  7490                           ;usb.c: 968: if (ep_num <= 2) {
  7491  0025F4  0E03               	movlw	3
  7492  0025F6  602E               	cpfslt	handle_standard_control_request@ep_num,c
  7493  0025F8  D044               	goto	i2l3188
  7494                           
  7495                           ;usb.c: 969: uint8_t flags = ep_buf[ep_num].flags;
  7496  0025FA  502E               	movf	handle_standard_control_request@ep_num,w,c
  7497  0025FC  0D07               	mullw	7
  7498  0025FE  0E06               	movlw	6
  7499  002600  26F3               	addwf	prodl,f,c
  7500  002602  0E00               	movlw	0
  7501  002604  22F4               	addwfc	prodh,f,c
  7502  002606  0E00               	movlw	low _ep_buf
  7503  002608  24F3               	addwf	prodl,w,c
  7504  00260A  6ED9               	movwf	fsr2l,c
  7505  00260C  0E01               	movlw	high _ep_buf
  7506  00260E  20F4               	addwfc	prodh,w,c
  7507  002610  6EDA               	movwf	fsr2h,c
  7508  002612  50DF               	movf	indf2,w,c
  7509  002614  6E2F               	movwf	handle_standard_control_request@flags,c
  7510                           
  7511                           ;usb.c: 970: uint8_t ret[2];
  7512                           ;usb.c: 971: ret[0] = ((setup->wIndex & 0x80) ?
  7513                           ;usb.c: 972: flags & 0x2 :
  7514                           ;usb.c: 973: flags & 0x1) != 0;
  7515  002616  EE20 F004          	lfsr	2,4
  7516  00261A  5037               	movf	handle_standard_control_request@setup,w,c
  7517  00261C  26D9               	addwf	fsr2l,f,c
  7518  00261E  5038               	movf	handle_standard_control_request@setup+1,w,c
  7519  002620  22DA               	addwfc	fsr2h,f,c
  7520  002622  CFDE F01A          	movff	postinc2,??_handle_standard_control_request
  7521  002626  CFDD F01B          	movff	postdec2,??_handle_standard_control_request+1
  7522  00262A  BE1A               	btfsc	??_handle_standard_control_request,7,c
  7523  00262C  D004               	goto	i2l3182
  7524  00262E  C02F  F01A         	movff	handle_standard_control_request@flags,??_handle_standard_control_request
  7525  002632  0E01               	movlw	1
  7526  002634  D003               	goto	L6
  7527  002636                     i2l3182:
  7528  002636  C02F  F01A         	movff	handle_standard_control_request@flags,??_handle_standard_control_request
  7529  00263A  0E02               	movlw	2
  7530  00263C                     L6:
  7531  00263C  161A               	andwf	??_handle_standard_control_request,f,c
  7532  00263E  501A               	movf	??_handle_standard_control_request,w,c
  7533  002640  6E1C               	movwf	_handle_standard_control_request$591,c
  7534  002642  6A1D               	clrf	_handle_standard_control_request$591+1,c
  7535  002644  501C               	movf	_handle_standard_control_request$591,w,c
  7536  002646  101D               	iorwf	_handle_standard_control_request$591+1,w,c
  7537  002648  B4D8               	btfsc	status,2,c
  7538  00264A  D002               	goto	i2u279_40
  7539  00264C  0E01               	movlw	1
  7540  00264E  D001               	goto	i2u280_40
  7541  002650                     i2u279_40:
  7542  002650  0E00               	movlw	0
  7543  002652                     i2u280_40:
  7544  002652  6E1F               	movwf	handle_standard_control_request@ret_590,c
  7545                           
  7546                           ;usb.c: 974: ret[1] = 0;
  7547  002654  0E00               	movlw	0
  7548  002656  6E20               	movwf	handle_standard_control_request@ret_590+1,c
  7549                           
  7550                           ;usb.c: 975: start_control_return(ret, 2, setup->wLength);
  7551  002658  0E1F               	movlw	low handle_standard_control_request@ret_590
  7552  00265A  6E0B               	movwf	start_control_return@ptr,c
  7553  00265C  0E00               	movlw	high handle_standard_control_request@ret_590
  7554  00265E  6E0C               	movwf	start_control_return@ptr+1,c
  7555  002660  0E00               	movlw	0
  7556  002662  6E0E               	movwf	start_control_return@len+1,c
  7557  002664  0E02               	movlw	2
  7558  002666  6E0D               	movwf	start_control_return@len,c
  7559  002668  EE20 F006          	lfsr	2,6
  7560  00266C  5037               	movf	handle_standard_control_request@setup,w,c
  7561  00266E  26D9               	addwf	fsr2l,f,c
  7562  002670  5038               	movf	handle_standard_control_request@setup+1,w,c
  7563  002672  22DA               	addwfc	fsr2h,f,c
  7564  002674  CFDE F00F          	movff	postinc2,start_control_return@bytes_asked_for
  7565  002678  CFDD F010          	movff	postdec2,start_control_return@bytes_asked_for+1
  7566  00267C  EC6B  F020         	call	_start_control_return	;wreg free
  7567                           
  7568                           ;usb.c: 976: }
  7569  002680  D18B               	goto	i2l3268
  7570  002682                     i2l3188:
  7571                           
  7572                           ;usb.c: 977: else {
  7573                           ;usb.c: 979: stall_ep0();
  7574  002682  ECE4  F024         	call	_stall_ep0	;wreg free
  7575                           
  7576                           ;usb.c: 980: }
  7577                           ;usb.c: 981: }
  7578  002686  D188               	goto	i2l3268
  7579  002688                     i2l3190:
  7580                           
  7581                           ;usb.c: 982: else {
  7582                           ;usb.c: 983: stall_ep0();
  7583  002688  ECE4  F024         	call	_stall_ep0	;wreg free
  7584                           
  7585                           ;usb.c: 986: }
  7586                           ;usb.c: 988: }
  7587                           
  7588                           ;usb.c: 984: ;
  7589                           ;usb.c: 985: ;
  7590  00268C  D185               	goto	i2l3268
  7591  00268E                     i2l3192:
  7592                           
  7593                           ;usb.c: 989: else if (setup->bRequest == SET_INTERFACE) {
  7594  00268E  EE20 F001          	lfsr	2,1
  7595  002692  5037               	movf	handle_standard_control_request@setup,w,c
  7596  002694  26D9               	addwf	fsr2l,f,c
  7597  002696  5038               	movf	handle_standard_control_request@setup+1,w,c
  7598  002698  22DA               	addwfc	fsr2h,f,c
  7599  00269A  0E0B               	movlw	11
  7600  00269C  18DE               	xorwf	postinc2,w,c
  7601  00269E  A4D8               	btfss	status,2,c
  7602  0026A0  D01A               	goto	i2l3202
  7603                           
  7604                           ;usb.c: 994: int8_t res;
  7605                           ;usb.c: 995: res = app_set_interface_callback(setup->wIndex, setup->wValue);
  7606  0026A2  EE20 F002          	lfsr	2,2
  7607  0026A6  5037               	movf	handle_standard_control_request@setup,w,c
  7608  0026A8  26D9               	addwf	fsr2l,f,c
  7609  0026AA  5038               	movf	handle_standard_control_request@setup+1,w,c
  7610  0026AC  22DA               	addwfc	fsr2h,f,c
  7611  0026AE  50DF               	movf	indf2,w,c
  7612  0026B0  6E01               	movwf	app_set_interface_callback@alt_setting,c
  7613  0026B2  EE20 F004          	lfsr	2,4
  7614  0026B6  5037               	movf	handle_standard_control_request@setup,w,c
  7615  0026B8  26D9               	addwf	fsr2l,f,c
  7616  0026BA  5038               	movf	handle_standard_control_request@setup+1,w,c
  7617  0026BC  22DA               	addwfc	fsr2h,f,c
  7618  0026BE  50DF               	movf	indf2,w,c
  7619  0026C0  EC01  F025         	call	_app_set_interface_callback
  7620  0026C4  6E1E               	movwf	handle_standard_control_request@res_592,c
  7621                           
  7622                           ;usb.c: 996: if (res < 0) {
  7623  0026C6  AE1E               	btfss	handle_standard_control_request@res_592,7,c
  7624  0026C8  D003               	goto	i2l3200
  7625                           
  7626                           ;usb.c: 997: stall_ep0();
  7627  0026CA  ECE4  F024         	call	_stall_ep0	;wreg free
  7628                           
  7629                           ;usb.c: 998: }
  7630  0026CE  D164               	goto	i2l3268
  7631  0026D0                     i2l3200:
  7632                           
  7633                           ;usb.c: 999: else
  7634                           ;usb.c: 1000: send_zero_length_packet_ep0();
  7635  0026D0  ECC1  F024         	call	_send_zero_length_packet_ep0	;wreg free
  7636                           
  7637                           ;usb.c: 1007: }
  7638  0026D4  D161               	goto	i2l3268
  7639  0026D6                     i2l3202:
  7640                           
  7641                           ;usb.c: 1008: else if (setup->bRequest == GET_INTERFACE) {
  7642  0026D6  EE20 F001          	lfsr	2,1
  7643  0026DA  5037               	movf	handle_standard_control_request@setup,w,c
  7644  0026DC  26D9               	addwf	fsr2l,f,c
  7645  0026DE  5038               	movf	handle_standard_control_request@setup+1,w,c
  7646  0026E0  22DA               	addwfc	fsr2h,f,c
  7647  0026E2  0E0A               	movlw	10
  7648  0026E4  18DE               	xorwf	postinc2,w,c
  7649  0026E6  A4D8               	btfss	status,2,c
  7650  0026E8  D024               	goto	i2l3212
  7651                           
  7652                           ;usb.c: 1009: int8_t ret;
  7653                           ;usb.c: 1010: ;
  7654                           ;usb.c: 1011: ;
  7655                           ;usb.c: 1012: ;
  7656                           ;usb.c: 1013: ;
  7657                           ;usb.c: 1014: ;
  7658                           ;usb.c: 1016: ret = app_get_interface_callback(setup->wIndex);
  7659  0026EA  EE20 F004          	lfsr	2,4
  7660  0026EE  5037               	movf	handle_standard_control_request@setup,w,c
  7661  0026F0  26D9               	addwf	fsr2l,f,c
  7662  0026F2  5038               	movf	handle_standard_control_request@setup+1,w,c
  7663  0026F4  22DA               	addwfc	fsr2h,f,c
  7664  0026F6  50DF               	movf	indf2,w,c
  7665  0026F8  EC04  F025         	call	_app_get_interface_callback
  7666  0026FC  6E31               	movwf	handle_standard_control_request@ret_593,c
  7667                           
  7668                           ;usb.c: 1017: if (ret < 0)
  7669  0026FE  AE31               	btfss	handle_standard_control_request@ret_593,7,c
  7670  002700  D003               	goto	i2l3210
  7671                           
  7672                           ;usb.c: 1018: stall_ep0();
  7673  002702  ECE4  F024         	call	_stall_ep0	;wreg free
  7674  002706  D148               	goto	i2l3268
  7675  002708                     i2l3210:
  7676                           
  7677                           ;usb.c: 1019: else {
  7678                           ;usb.c: 1022: start_control_return(&ret, 1, setup->wLength);
  7679  002708  0E31               	movlw	low handle_standard_control_request@ret_593
  7680  00270A  6E0B               	movwf	start_control_return@ptr,c
  7681  00270C  0E00               	movlw	high handle_standard_control_request@ret_593
  7682  00270E  6E0C               	movwf	start_control_return@ptr+1,c
  7683  002710  0E00               	movlw	0
  7684  002712  6E0E               	movwf	start_control_return@len+1,c
  7685  002714  0E01               	movlw	1
  7686  002716  6E0D               	movwf	start_control_return@len,c
  7687  002718  EE20 F006          	lfsr	2,6
  7688  00271C  5037               	movf	handle_standard_control_request@setup,w,c
  7689  00271E  26D9               	addwf	fsr2l,f,c
  7690  002720  5038               	movf	handle_standard_control_request@setup+1,w,c
  7691  002722  22DA               	addwfc	fsr2h,f,c
  7692  002724  CFDE F00F          	movff	postinc2,start_control_return@bytes_asked_for
  7693  002728  CFDD F010          	movff	postdec2,start_control_return@bytes_asked_for+1
  7694  00272C  EC6B  F020         	call	_start_control_return	;wreg free
  7695                           
  7696                           ;usb.c: 1023: }
  7697                           ;usb.c: 1032: }
  7698  002730  D133               	goto	i2l3268
  7699  002732                     i2l3212:
  7700                           
  7701                           ;usb.c: 1033: else if (setup->bRequest == CLEAR_FEATURE || setup->bRequest == SET_FEATUR
      +                          E) {
  7702  002732  EE20 F001          	lfsr	2,1
  7703  002736  5037               	movf	handle_standard_control_request@setup,w,c
  7704  002738  26D9               	addwf	fsr2l,f,c
  7705  00273A  5038               	movf	handle_standard_control_request@setup+1,w,c
  7706  00273C  22DA               	addwfc	fsr2h,f,c
  7707  00273E  04DE               	decf	postinc2,w,c
  7708  002740  B4D8               	btfsc	status,2,c
  7709  002742  D00A               	goto	i2l3216
  7710  002744  EE20 F001          	lfsr	2,1
  7711  002748  5037               	movf	handle_standard_control_request@setup,w,c
  7712  00274A  26D9               	addwf	fsr2l,f,c
  7713  00274C  5038               	movf	handle_standard_control_request@setup+1,w,c
  7714  00274E  22DA               	addwfc	fsr2h,f,c
  7715  002750  0E03               	movlw	3
  7716  002752  18DE               	xorwf	postinc2,w,c
  7717  002754  A4D8               	btfss	status,2,c
  7718  002756  D11E               	goto	i2l208
  7719  002758                     i2l3216:
  7720                           
  7721                           ;usb.c: 1034: uint8_t stall = 1;
  7722  002758  0E01               	movlw	1
  7723  00275A  6E24               	movwf	handle_standard_control_request@stall,c
  7724  00275C  D000               	goto	i2l3220
  7725  00275E                     i2l3220:
  7726                           
  7727                           ;usb.c: 1038: }
  7728                           ;usb.c: 1040: if (setup->REQUEST.destination == 2 ) {
  7729  00275E  C037  FFD9         	movff	handle_standard_control_request@setup,fsr2l
  7730  002762  C038  FFDA         	movff	handle_standard_control_request@setup+1,fsr2h
  7731  002766  50DF               	movf	indf2,w,c
  7732  002768  0B1F               	andlw	31
  7733  00276A  0A02               	xorlw	2
  7734  00276C  A4D8               	btfss	status,2,c
  7735  00276E  D109               	goto	i2l3262
  7736                           
  7737                           ;usb.c: 1041: if (setup->wValue == 0 ) {
  7738  002770  EE20 F002          	lfsr	2,2
  7739  002774  5037               	movf	handle_standard_control_request@setup,w,c
  7740  002776  26D9               	addwf	fsr2l,f,c
  7741  002778  5038               	movf	handle_standard_control_request@setup+1,w,c
  7742  00277A  22DA               	addwfc	fsr2h,f,c
  7743  00277C  50DE               	movf	postinc2,w,c
  7744  00277E  10DE               	iorwf	postinc2,w,c
  7745  002780  A4D8               	btfss	status,2,c
  7746  002782  D0FF               	goto	i2l3262
  7747                           
  7748                           ;usb.c: 1042: uint8_t ep_num = setup->wIndex & 0x0f;
  7749  002784  EE20 F004          	lfsr	2,4
  7750  002788  5037               	movf	handle_standard_control_request@setup,w,c
  7751  00278A  26D9               	addwf	fsr2l,f,c
  7752  00278C  5038               	movf	handle_standard_control_request@setup+1,w,c
  7753  00278E  22DA               	addwfc	fsr2h,f,c
  7754  002790  50DF               	movf	indf2,w,c
  7755  002792  0B0F               	andlw	15
  7756  002794  6E36               	movwf	handle_standard_control_request@ep_num_595,c
  7757                           
  7758                           ;usb.c: 1043: uint8_t ep_dir = setup->wIndex & 0x80;
  7759  002796  EE20 F004          	lfsr	2,4
  7760  00279A  5037               	movf	handle_standard_control_request@setup,w,c
  7761  00279C  26D9               	addwf	fsr2l,f,c
  7762  00279E  5038               	movf	handle_standard_control_request@setup+1,w,c
  7763  0027A0  22DA               	addwfc	fsr2h,f,c
  7764  0027A2  50DF               	movf	indf2,w,c
  7765  0027A4  0B80               	andlw	128
  7766  0027A6  6E30               	movwf	handle_standard_control_request@ep_dir,c
  7767                           
  7768                           ;usb.c: 1044: if (ep_num <= 2) {
  7769  0027A8  0E03               	movlw	3
  7770  0027AA  6036               	cpfslt	handle_standard_control_request@ep_num_595,c
  7771  0027AC  D0EA               	goto	i2l3262
  7772                           
  7773                           ;usb.c: 1045: if (setup->bRequest == SET_FEATURE) {
  7774  0027AE  EE20 F001          	lfsr	2,1
  7775  0027B2  5037               	movf	handle_standard_control_request@setup,w,c
  7776  0027B4  26D9               	addwf	fsr2l,f,c
  7777  0027B6  5038               	movf	handle_standard_control_request@setup+1,w,c
  7778  0027B8  22DA               	addwfc	fsr2h,f,c
  7779  0027BA  0E03               	movlw	3
  7780  0027BC  18DE               	xorwf	postinc2,w,c
  7781  0027BE  A4D8               	btfss	status,2,c
  7782  0027C0  D027               	goto	i2l3240
  7783                           
  7784                           ;usb.c: 1048: if (ep_dir) {
  7785  0027C2  5030               	movf	handle_standard_control_request@ep_dir,w,c
  7786  0027C4  B4D8               	btfsc	status,2,c
  7787  0027C6  D012               	goto	i2l3236
  7788                           
  7789                           ;usb.c: 1049: ep_buf[ep_num].flags |= 0x2;
  7790  0027C8  5036               	movf	handle_standard_control_request@ep_num_595,w,c
  7791  0027CA  0D07               	mullw	7
  7792  0027CC  0E06               	movlw	6
  7793  0027CE  26F3               	addwf	prodl,f,c
  7794  0027D0  0E00               	movlw	0
  7795  0027D2  22F4               	addwfc	prodh,f,c
  7796  0027D4  0E00               	movlw	low _ep_buf
  7797  0027D6  24F3               	addwf	prodl,w,c
  7798  0027D8  6ED9               	movwf	fsr2l,c
  7799  0027DA  0E01               	movlw	high _ep_buf
  7800  0027DC  20F4               	addwfc	prodh,w,c
  7801  0027DE  6EDA               	movwf	fsr2h,c
  7802  0027E0  0E00               	movlw	0
  7803  0027E2  82DB               	bsf	plusw2,1,c
  7804                           
  7805                           ;usb.c: 1050: stall_ep_in(ep_num);
  7806  0027E4  5036               	movf	handle_standard_control_request@ep_num_595,w,c
  7807  0027E6  EC64  F021         	call	_stall_ep_in
  7808                           
  7809                           ;usb.c: 1051: }
  7810  0027EA  D0B1               	goto	i2l3258
  7811  0027EC                     i2l3236:
  7812                           
  7813                           ;usb.c: 1052: else {
  7814                           ;usb.c: 1053: ep_buf[ep_num].flags |= 0x1;
  7815  0027EC  5036               	movf	handle_standard_control_request@ep_num_595,w,c
  7816  0027EE  0D07               	mullw	7
  7817  0027F0  0E06               	movlw	6
  7818  0027F2  26F3               	addwf	prodl,f,c
  7819  0027F4  0E00               	movlw	0
  7820  0027F6  22F4               	addwfc	prodh,f,c
  7821  0027F8  0E00               	movlw	low _ep_buf
  7822  0027FA  24F3               	addwf	prodl,w,c
  7823  0027FC  6ED9               	movwf	fsr2l,c
  7824  0027FE  0E01               	movlw	high _ep_buf
  7825  002800  20F4               	addwfc	prodh,w,c
  7826  002802  6EDA               	movwf	fsr2h,c
  7827  002804  0E00               	movlw	0
  7828  002806  80DB               	bsf	plusw2,0,c
  7829                           
  7830                           ;usb.c: 1054: stall_ep_out(ep_num);
  7831  002808  5036               	movf	handle_standard_control_request@ep_num_595,w,c
  7832  00280A  ECAA  F023         	call	_stall_ep_out
  7833                           
  7834                           ;usb.c: 1055: }
  7835                           ;usb.c: 1056: }
  7836  00280E  D09F               	goto	i2l3258
  7837  002810                     i2l3240:
  7838                           
  7839                           ;usb.c: 1057: else {
  7840                           ;usb.c: 1060: if (ep_dir) {
  7841  002810  5030               	movf	handle_standard_control_request@ep_dir,w,c
  7842  002812  B4D8               	btfsc	status,2,c
  7843  002814  D05A               	goto	i2l3250
  7844                           
  7845                           ;usb.c: 1065: do { (bds[(ep_num) * 2 + 1]).BDnCNT = (ep_buf[ep_num].in_len); (bds[(ep_nu
      +                          m) * 2 + 1]).STAT.BDnSTAT = (0); } while(0);
  7846  002816  5036               	movf	handle_standard_control_request@ep_num_595,w,c
  7847  002818  0D07               	mullw	7
  7848  00281A  0E05               	movlw	5
  7849  00281C  26F3               	addwf	prodl,f,c
  7850  00281E  0E00               	movlw	0
  7851  002820  22F4               	addwfc	prodh,f,c
  7852  002822  0E00               	movlw	low _ep_buf
  7853  002824  24F3               	addwf	prodl,w,c
  7854  002826  6ED9               	movwf	fsr2l,c
  7855  002828  0E01               	movlw	high _ep_buf
  7856  00282A  20F4               	addwfc	prodh,w,c
  7857  00282C  6EDA               	movwf	fsr2h,c
  7858  00282E  5036               	movf	handle_standard_control_request@ep_num_595,w,c
  7859  002830  6E1A               	movwf	??_handle_standard_control_request& (0+255),c
  7860  002832  6A1B               	clrf	(??_handle_standard_control_request+1)& (0+255),c
  7861  002834  90D8               	bcf	status,0,c
  7862  002836  361A               	rlcf	??_handle_standard_control_request,f,c
  7863  002838  361B               	rlcf	??_handle_standard_control_request+1,f,c
  7864  00283A  90D8               	bcf	status,0,c
  7865  00283C  361A               	rlcf	??_handle_standard_control_request,f,c
  7866  00283E  361B               	rlcf	??_handle_standard_control_request+1,f,c
  7867  002840  90D8               	bcf	status,0,c
  7868  002842  361A               	rlcf	??_handle_standard_control_request,f,c
  7869  002844  361B               	rlcf	??_handle_standard_control_request+1,f,c
  7870  002846  0E05               	movlw	5
  7871  002848  261A               	addwf	??_handle_standard_control_request,f,c
  7872  00284A  0E00               	movlw	0
  7873  00284C  221B               	addwfc	??_handle_standard_control_request+1,f,c
  7874  00284E  0E00               	movlw	0
  7875  002850  241A               	addwf	??_handle_standard_control_request,w,c
  7876  002852  6EE1               	movwf	fsr1l,c
  7877  002854  0E04               	movlw	4
  7878  002856  201B               	addwfc	??_handle_standard_control_request+1,w,c
  7879  002858  6EE2               	movwf	fsr1h,c
  7880  00285A  CFDF FFE7          	movff	indf2,indf1
  7881  00285E  5036               	movf	handle_standard_control_request@ep_num_595,w,c
  7882  002860  6E1A               	movwf	??_handle_standard_control_request& (0+255),c
  7883  002862  6A1B               	clrf	(??_handle_standard_control_request+1)& (0+255),c
  7884  002864  90D8               	bcf	status,0,c
  7885  002866  361A               	rlcf	??_handle_standard_control_request,f,c
  7886  002868  361B               	rlcf	??_handle_standard_control_request+1,f,c
  7887  00286A  90D8               	bcf	status,0,c
  7888  00286C  361A               	rlcf	??_handle_standard_control_request,f,c
  7889  00286E  361B               	rlcf	??_handle_standard_control_request+1,f,c
  7890  002870  90D8               	bcf	status,0,c
  7891  002872  361A               	rlcf	??_handle_standard_control_request,f,c
  7892  002874  361B               	rlcf	??_handle_standard_control_request+1,f,c
  7893  002876  0E04               	movlw	4
  7894  002878  261A               	addwf	??_handle_standard_control_request,f,c
  7895  00287A  0E00               	movlw	0
  7896  00287C  221B               	addwfc	??_handle_standard_control_request+1,f,c
  7897  00287E  0E00               	movlw	0
  7898  002880  241A               	addwf	??_handle_standard_control_request,w,c
  7899  002882  6ED9               	movwf	fsr2l,c
  7900  002884  0E04               	movlw	4
  7901  002886  201B               	addwfc	??_handle_standard_control_request+1,w,c
  7902  002888  6EDA               	movwf	fsr2h,c
  7903  00288A  0E00               	movlw	0
  7904  00288C  6EDF               	movwf	indf2,c
  7905  00288E  D000               	goto	i2l3246
  7906  002890                     i2l3246:
  7907                           
  7908                           ;usb.c: 1068: ep_buf[ep_num].flags &= ~0x8;
  7909  002890  5036               	movf	handle_standard_control_request@ep_num_595,w,c
  7910  002892  0D07               	mullw	7
  7911  002894  0E06               	movlw	6
  7912  002896  26F3               	addwf	prodl,f,c
  7913  002898  0E00               	movlw	0
  7914  00289A  22F4               	addwfc	prodh,f,c
  7915  00289C  0E00               	movlw	low _ep_buf
  7916  00289E  24F3               	addwf	prodl,w,c
  7917  0028A0  6ED9               	movwf	fsr2l,c
  7918  0028A2  0E01               	movlw	high _ep_buf
  7919  0028A4  20F4               	addwfc	prodh,w,c
  7920  0028A6  6EDA               	movwf	fsr2h,c
  7921  0028A8  0EF7               	movlw	247
  7922  0028AA  16DF               	andwf	indf2,f,c
  7923                           
  7924                           ;usb.c: 1070: ep_buf[ep_num].flags &= ~(0x2);
  7925  0028AC  5036               	movf	handle_standard_control_request@ep_num_595,w,c
  7926  0028AE  0D07               	mullw	7
  7927  0028B0  0E06               	movlw	6
  7928  0028B2  26F3               	addwf	prodl,f,c
  7929  0028B4  0E00               	movlw	0
  7930  0028B6  22F4               	addwfc	prodh,f,c
  7931  0028B8  0E00               	movlw	low _ep_buf
  7932  0028BA  24F3               	addwf	prodl,w,c
  7933  0028BC  6ED9               	movwf	fsr2l,c
  7934  0028BE  0E01               	movlw	high _ep_buf
  7935  0028C0  20F4               	addwfc	prodh,w,c
  7936  0028C2  6EDA               	movwf	fsr2h,c
  7937  0028C4  0EFD               	movlw	253
  7938  0028C6  D041               	goto	L7
  7939                           
  7940                           ;usb.c: 1071: }
  7941  0028C8  D000               	goto	i2l3250
  7942  0028CA                     i2l3250:
  7943  0028CA  5036               	movf	handle_standard_control_request@ep_num_595,w,c
  7944  0028CC  0D07               	mullw	7
  7945  0028CE  0E04               	movlw	4
  7946  0028D0  26F3               	addwf	prodl,f,c
  7947  0028D2  0E00               	movlw	0
  7948  0028D4  22F4               	addwfc	prodh,f,c
  7949  0028D6  0E00               	movlw	low _ep_buf
  7950  0028D8  24F3               	addwf	prodl,w,c
  7951  0028DA  6ED9               	movwf	fsr2l,c
  7952  0028DC  0E01               	movlw	high _ep_buf
  7953  0028DE  20F4               	addwfc	prodh,w,c
  7954  0028E0  6EDA               	movwf	fsr2h,c
  7955  0028E2  5036               	movf	handle_standard_control_request@ep_num_595,w,c
  7956  0028E4  0D08               	mullw	8
  7957  0028E6  0E01               	movlw	1
  7958  0028E8  26F3               	addwf	prodl,f,c
  7959  0028EA  0E00               	movlw	0
  7960  0028EC  22F4               	addwfc	prodh,f,c
  7961  0028EE  0E00               	movlw	0
  7962  0028F0  24F3               	addwf	prodl,w,c
  7963  0028F2  6EE1               	movwf	fsr1l,c
  7964  0028F4  0E04               	movlw	4
  7965  0028F6  20F4               	addwfc	prodh,w,c
  7966  0028F8  6EE2               	movwf	fsr1h,c
  7967  0028FA  CFDF FFE7          	movff	indf2,indf1
  7968  0028FE  5036               	movf	handle_standard_control_request@ep_num_595,w,c
  7969  002900  0D08               	mullw	8
  7970  002902  0E00               	movlw	0
  7971  002904  24F3               	addwf	prodl,w,c
  7972  002906  6ED9               	movwf	fsr2l,c
  7973  002908  0E04               	movlw	4
  7974  00290A  20F4               	addwfc	prodh,w,c
  7975  00290C  6EDA               	movwf	fsr2h,c
  7976  00290E  0E88               	movlw	136
  7977  002910  6EDF               	movwf	indf2,c
  7978  002912  D000               	goto	i2l3254
  7979  002914                     i2l3254:
  7980                           
  7981                           ;usb.c: 1085: ep_buf[ep_num].flags |= 0x4;
  7982  002914  5036               	movf	handle_standard_control_request@ep_num_595,w,c
  7983  002916  0D07               	mullw	7
  7984  002918  0E06               	movlw	6
  7985  00291A  26F3               	addwf	prodl,f,c
  7986  00291C  0E00               	movlw	0
  7987  00291E  22F4               	addwfc	prodh,f,c
  7988  002920  0E00               	movlw	low _ep_buf
  7989  002922  24F3               	addwf	prodl,w,c
  7990  002924  6ED9               	movwf	fsr2l,c
  7991  002926  0E01               	movlw	high _ep_buf
  7992  002928  20F4               	addwfc	prodh,w,c
  7993  00292A  6EDA               	movwf	fsr2h,c
  7994  00292C  0E00               	movlw	0
  7995  00292E  84DB               	bsf	plusw2,2,c
  7996                           
  7997                           ;usb.c: 1087: ep_buf[ep_num].flags &= ~(0x1);
  7998  002930  5036               	movf	handle_standard_control_request@ep_num_595,w,c
  7999  002932  0D07               	mullw	7
  8000  002934  0E06               	movlw	6
  8001  002936  26F3               	addwf	prodl,f,c
  8002  002938  0E00               	movlw	0
  8003  00293A  22F4               	addwfc	prodh,f,c
  8004  00293C  0E00               	movlw	low _ep_buf
  8005  00293E  24F3               	addwf	prodl,w,c
  8006  002940  6ED9               	movwf	fsr2l,c
  8007  002942  0E01               	movlw	high _ep_buf
  8008  002944  20F4               	addwfc	prodh,w,c
  8009  002946  6EDA               	movwf	fsr2h,c
  8010  002948  0EFE               	movlw	254
  8011  00294A                     L7:
  8012  00294A  16DF               	andwf	indf2,f,c
  8013  00294C  D000               	goto	i2l3258
  8014  00294E                     i2l3258:
  8015                           
  8016                           ;usb.c: 1088: }
  8017                           ;usb.c: 1089: }
  8018                           ;usb.c: 1091: app_endpoint_halt_callback(setup->wIndex, (setup->bRequest == SET_FEATURE)
      +                          );
  8019  00294E  EE20 F001          	lfsr	2,1
  8020  002952  5037               	movf	handle_standard_control_request@setup,w,c
  8021  002954  26D9               	addwf	fsr2l,f,c
  8022  002956  5038               	movf	handle_standard_control_request@setup+1,w,c
  8023  002958  22DA               	addwfc	fsr2h,f,c
  8024  00295A  0E03               	movlw	3
  8025  00295C  18DE               	xorwf	postinc2,w,c
  8026  00295E  A4D8               	btfss	status,2,c
  8027  002960  D002               	goto	i2u293_40
  8028  002962  0E01               	movlw	1
  8029  002964  D001               	goto	i2u294_40
  8030  002966                     i2u293_40:
  8031  002966  0E00               	movlw	0
  8032  002968                     i2u294_40:
  8033  002968  6E01               	movwf	app_endpoint_halt_callback@halted,c
  8034  00296A  EE20 F004          	lfsr	2,4
  8035  00296E  5037               	movf	handle_standard_control_request@setup,w,c
  8036  002970  26D9               	addwf	fsr2l,f,c
  8037  002972  5038               	movf	handle_standard_control_request@setup+1,w,c
  8038  002974  22DA               	addwfc	fsr2h,f,c
  8039  002976  50DF               	movf	indf2,w,c
  8040  002978  EC1D  F025         	call	_app_endpoint_halt_callback
  8041                           
  8042                           ;usb.c: 1093: stall = 0;
  8043  00297C  0E00               	movlw	0
  8044  00297E  6E24               	movwf	handle_standard_control_request@stall,c
  8045  002980  D000               	goto	i2l3262
  8046  002982                     i2l3262:
  8047                           
  8048                           ;usb.c: 1094: }
  8049                           ;usb.c: 1095: }
  8050                           ;usb.c: 1096: }
  8051                           ;usb.c: 1098: if (!stall) {
  8052  002982  5024               	movf	handle_standard_control_request@stall,w,c
  8053  002984  A4D8               	btfss	status,2,c
  8054  002986  D003               	goto	i2l3266
  8055                           
  8056                           ;usb.c: 1099: send_zero_length_packet_ep0();
  8057  002988  ECC1  F024         	call	_send_zero_length_packet_ep0	;wreg free
  8058                           
  8059                           ;usb.c: 1100: }
  8060  00298C  D005               	goto	i2l3268
  8061  00298E                     i2l3266:
  8062                           
  8063                           ;usb.c: 1101: else
  8064                           ;usb.c: 1102: stall_ep0();
  8065  00298E  ECE4  F024         	call	_stall_ep0	;wreg free
  8066                           
  8067                           ;usb.c: 1103: }
  8068  002992  D002               	goto	i2l3268
  8069  002994                     i2l208:
  8070                           
  8071                           ;usb.c: 1104: else {
  8072                           ;usb.c: 1105: res = -1;
  8073  002994  6823               	setf	handle_standard_control_request@res,c
  8074                           
  8075                           ;usb.c: 1107: ;
  8076                           ;usb.c: 1108: ;
  8077                           ;usb.c: 1109: ;
  8078                           ;usb.c: 1110: ;
  8079                           ;usb.c: 1111: ;
  8080  002996  D000               	goto	i2l3268
  8081  002998                     i2l3268:
  8082                           
  8083                           ;usb.c: 1112: }
  8084                           ;usb.c: 1114: return res;
  8085  002998  5023               	movf	handle_standard_control_request@res,w,c
  8086  00299A  0012               	return	
  8087  00299C  0012               	return		;funcret
  8088  00299E                     __end_of_handle_standard_control_request:
  8089                           	opt stack 0
  8090                           tosu	equ	0xFFF
  8091                           tosh	equ	0xFFE
  8092                           tosl	equ	0xFFD
  8093                           pclatu	equ	0xFFB
  8094                           pclath	equ	0xFFA
  8095                           tblptru	equ	0xFF8
  8096                           tblptrh	equ	0xFF7
  8097                           tblptrl	equ	0xFF6
  8098                           tablat	equ	0xFF5
  8099                           prodh	equ	0xFF4
  8100                           prodl	equ	0xFF3
  8101                           intcon	equ	0xFF2
  8102                           postinc0	equ	0xFEE
  8103                           fsr0h	equ	0xFEA
  8104                           fsr0l	equ	0xFE9
  8105                           wreg	equ	0xFE8
  8106                           indf1	equ	0xFE7
  8107                           postinc1	equ	0xFE6
  8108                           postdec1	equ	0xFE5
  8109                           fsr1h	equ	0xFE2
  8110                           fsr1l	equ	0xFE1
  8111                           indf2	equ	0xFDF
  8112                           postinc2	equ	0xFDE
  8113                           postdec2	equ	0xFDD
  8114                           plusw2	equ	0xFDB
  8115                           fsr2h	equ	0xFDA
  8116                           fsr2l	equ	0xFD9
  8117                           status	equ	0xFD8
  8118                           
  8119 ;; *************** function _usb_application_get_string *****************
  8120 ;; Defined at:
  8121 ;;		line 287 in file "usb_descriptors.c"
  8122 ;; Parameters:    Size  Location     Type
  8123 ;;  string_numbe    1    wreg     unsigned char 
  8124 ;;  ptr             2    0[COMRAM] PTR PTR const void 
  8125 ;;		 -> handle_standard_control_request@desc_578(2), 
  8126 ;; Auto vars:     Size  Location     Type
  8127 ;;  string_numbe    1    2[COMRAM] unsigned char 
  8128 ;; Return value:  Size  Location     Type
  8129 ;;                  2    0[COMRAM] int 
  8130 ;; Registers used:
  8131 ;;		wreg, fsr2l, fsr2h, status,2, status,0
  8132 ;; Tracked objects:
  8133 ;;		On entry : 0/0
  8134 ;;		On exit  : 0/0
  8135 ;;		Unchanged: 0/0
  8136 ;; Data sizes:     COMRAM   BANK0   BANK1   BANK2   BANK3   BANK4   BANK5   BANK6   BANK7
  8137 ;;      Params:         2       0       0       0       0       0       0       0       0
  8138 ;;      Locals:         1       0       0       0       0       0       0       0       0
  8139 ;;      Temps:          0       0       0       0       0       0       0       0       0
  8140 ;;      Totals:         3       0       0       0       0       0       0       0       0
  8141 ;;Total ram usage:        3 bytes
  8142 ;; Hardware stack levels used:    1
  8143 ;; This function calls:
  8144 ;;		Nothing
  8145 ;; This function is called by:
  8146 ;;		_handle_standard_control_request
  8147 ;; This function uses a non-reentrant model
  8148 ;;
  8149                           
  8150                           	psect	text30
  8151  003FFA                     __ptext30:
  8152                           	opt stack 0
  8153  003FFA                     _usb_application_get_string:
  8154                           	opt stack 23
  8155                           
  8156                           ;incstack = 0
  8157                           ;usb_application_get_string@string_number stored from wreg
  8158  003FFA  6E03               	movwf	usb_application_get_string@string_number,c
  8159                           
  8160                           ;usb_descriptors.c: 289: if (string_number == 0) {
  8161  003FFC  5003               	movf	usb_application_get_string@string_number,w,c
  8162  003FFE  A4D8               	btfss	status,2,c
  8163  004000  D00E               	goto	i2l2840
  8164                           
  8165                           ;usb_descriptors.c: 290: *ptr = &str00;
  8166  004002  C001  FFD9         	movff	usb_application_get_string@ptr,fsr2l
  8167  004006  C002  FFDA         	movff	usb_application_get_string@ptr+1,fsr2h
  8168  00400A  0E5B               	movlw	low _str00
  8169  00400C  6EDE               	movwf	postinc2,c
  8170  00400E  0E22               	movlw	high _str00
  8171  004010  6EDD               	movwf	postdec2,c
  8172                           
  8173                           ;usb_descriptors.c: 291: return sizeof(str00);
  8174  004012  0E00               	movlw	0
  8175  004014  6E02               	movwf	?_usb_application_get_string+1,c
  8176  004016  0E04               	movlw	4
  8177  004018                     L8:
  8178  004018  6E01               	movwf	?_usb_application_get_string,c
  8179  00401A  0012               	return	
  8180                           
  8181                           ;usb_descriptors.c: 292: }
  8182  00401C  D059               	goto	i2l608
  8183  00401E                     i2l2840:
  8184                           
  8185                           ;usb_descriptors.c: 293: else if (string_number == 1) {
  8186  00401E  0403               	decf	usb_application_get_string@string_number,w,c
  8187  004020  A4D8               	btfss	status,2,c
  8188  004022  D00E               	goto	i2l2850
  8189                           
  8190                           ;usb_descriptors.c: 294: *ptr = &vendor_string;
  8191  004024  C001  FFD9         	movff	usb_application_get_string@ptr,fsr2l
  8192  004028  C002  FFDA         	movff	usb_application_get_string@ptr+1,fsr2h
  8193  00402C  0EBD               	movlw	low _vendor_string
  8194  00402E  6EDE               	movwf	postinc2,c
  8195  004030  0E21               	movlw	high _vendor_string
  8196  004032  6EDD               	movwf	postdec2,c
  8197                           
  8198                           ;usb_descriptors.c: 295: return sizeof(vendor_string);
  8199  004034  0E00               	movlw	0
  8200  004036  6E02               	movwf	?_usb_application_get_string+1,c
  8201  004038  0E30               	movlw	48
  8202  00403A  D7EE               	goto	L8
  8203  00403C  0012               	return	
  8204                           
  8205                           ;usb_descriptors.c: 296: }
  8206  00403E  D048               	goto	i2l608
  8207  004040                     i2l2850:
  8208                           
  8209                           ;usb_descriptors.c: 297: else if (string_number == 2) {
  8210  004040  0E02               	movlw	2
  8211  004042  1803               	xorwf	usb_application_get_string@string_number,w,c
  8212  004044  A4D8               	btfss	status,2,c
  8213  004046  D00E               	goto	i2l2860
  8214                           
  8215                           ;usb_descriptors.c: 298: *ptr = &product_string;
  8216  004048  C001  FFD9         	movff	usb_application_get_string@ptr,fsr2l
  8217  00404C  C002  FFDA         	movff	usb_application_get_string@ptr+1,fsr2h
  8218  004050  0E2F               	movlw	low _product_string
  8219  004052  6EDE               	movwf	postinc2,c
  8220  004054  0E22               	movlw	high _product_string
  8221  004056  6EDD               	movwf	postdec2,c
  8222                           
  8223                           ;usb_descriptors.c: 299: return sizeof(product_string);
  8224  004058  0E00               	movlw	0
  8225  00405A  6E02               	movwf	?_usb_application_get_string+1,c
  8226  00405C  0E1A               	movlw	26
  8227  00405E  D7DC               	goto	L8
  8228  004060  0012               	return	
  8229                           
  8230                           ;usb_descriptors.c: 300: }
  8231  004062  D036               	goto	i2l608
  8232  004064                     i2l2860:
  8233                           
  8234                           ;usb_descriptors.c: 301: else if (string_number == 3) {
  8235  004064  0E03               	movlw	3
  8236  004066  1803               	xorwf	usb_application_get_string@string_number,w,c
  8237  004068  A4D8               	btfss	status,2,c
  8238  00406A  D00E               	goto	i2l2870
  8239                           
  8240                           ;usb_descriptors.c: 302: *ptr = &cdc_interface_string;
  8241  00406C  C001  FFD9         	movff	usb_application_get_string@ptr,fsr2l
  8242  004070  C002  FFDA         	movff	usb_application_get_string@ptr+1,fsr2h
  8243  004074  0E13               	movlw	low _cdc_interface_string
  8244  004076  6EDE               	movwf	postinc2,c
  8245  004078  0E22               	movlw	high _cdc_interface_string
  8246  00407A  6EDD               	movwf	postdec2,c
  8247                           
  8248                           ;usb_descriptors.c: 303: return sizeof(cdc_interface_string);
  8249  00407C  0E00               	movlw	0
  8250  00407E  6E02               	movwf	?_usb_application_get_string+1,c
  8251  004080  0E1C               	movlw	28
  8252  004082  D7CA               	goto	L8
  8253  004084  0012               	return	
  8254                           
  8255                           ;usb_descriptors.c: 304: }
  8256  004086  D024               	goto	i2l608
  8257  004088                     i2l2870:
  8258                           
  8259                           ;usb_descriptors.c: 305: else if (string_number == 4) {
  8260  004088  0E04               	movlw	4
  8261  00408A  1803               	xorwf	usb_application_get_string@string_number,w,c
  8262  00408C  A4D8               	btfss	status,2,c
  8263  00408E  D00E               	goto	i2l2880
  8264                           
  8265                           ;usb_descriptors.c: 306: *ptr = &cdc_data_string;
  8266  004090  C001  FFD9         	movff	usb_application_get_string@ptr,fsr2l
  8267  004094  C002  FFDA         	movff	usb_application_get_string@ptr+1,fsr2h
  8268  004098  0EED               	movlw	low _cdc_data_string
  8269  00409A  6EDE               	movwf	postinc2,c
  8270  00409C  0E21               	movlw	high _cdc_data_string
  8271  00409E  6EDD               	movwf	postdec2,c
  8272                           
  8273                           ;usb_descriptors.c: 307: return sizeof(cdc_data_string);
  8274  0040A0  0E00               	movlw	0
  8275  0040A2  6E02               	movwf	?_usb_application_get_string+1,c
  8276  0040A4  0E26               	movlw	38
  8277  0040A6  D7B8               	goto	L8
  8278  0040A8  0012               	return	
  8279                           
  8280                           ;usb_descriptors.c: 308: }
  8281  0040AA  D012               	goto	i2l608
  8282  0040AC                     i2l2880:
  8283                           
  8284                           ;usb_descriptors.c: 309: else if (string_number == 5) {
  8285  0040AC  0E05               	movlw	5
  8286  0040AE  1803               	xorwf	usb_application_get_string@string_number,w,c
  8287  0040B0  A4D8               	btfss	status,2,c
  8288  0040B2  D00E               	goto	i2l608
  8289                           
  8290                           ;usb_descriptors.c: 318: *ptr = &fake_serial_num;
  8291  0040B4  C001  FFD9         	movff	usb_application_get_string@ptr,fsr2l
  8292  0040B8  C002  FFDA         	movff	usb_application_get_string@ptr+1,fsr2h
  8293  0040BC  0EFF               	movlw	low _fake_serial_num
  8294  0040BE  6EDE               	movwf	postinc2,c
  8295  0040C0  0E20               	movlw	high _fake_serial_num
  8296  0040C2  6EDD               	movwf	postdec2,c
  8297                           
  8298                           ;usb_descriptors.c: 319: return sizeof(fake_serial_num);
  8299  0040C4  0E00               	movlw	0
  8300  0040C6  6E02               	movwf	?_usb_application_get_string+1,c
  8301  0040C8  0E78               	movlw	120
  8302  0040CA  D7A6               	goto	L8
  8303  0040CC  0012               	return	
  8304  0040CE  D000               	goto	i2l608
  8305  0040D0                     i2l608:
  8306                           
  8307                           ;usb_descriptors.c: 320: }
  8308                           ;usb_descriptors.c: 322: return -1;
  8309  0040D0  6801               	setf	?_usb_application_get_string,c
  8310  0040D2  6802               	setf	?_usb_application_get_string+1,c
  8311  0040D4  0012               	return		;funcret
  8312  0040D6                     __end_of_usb_application_get_string:
  8313                           	opt stack 0
  8314                           tosu	equ	0xFFF
  8315                           tosh	equ	0xFFE
  8316                           tosl	equ	0xFFD
  8317                           pclatu	equ	0xFFB
  8318                           pclath	equ	0xFFA
  8319                           tblptru	equ	0xFF8
  8320                           tblptrh	equ	0xFF7
  8321                           tblptrl	equ	0xFF6
  8322                           tablat	equ	0xFF5
  8323                           prodh	equ	0xFF4
  8324                           prodl	equ	0xFF3
  8325                           intcon	equ	0xFF2
  8326                           postinc0	equ	0xFEE
  8327                           fsr0h	equ	0xFEA
  8328                           fsr0l	equ	0xFE9
  8329                           wreg	equ	0xFE8
  8330                           indf1	equ	0xFE7
  8331                           postinc1	equ	0xFE6
  8332                           postdec1	equ	0xFE5
  8333                           fsr1h	equ	0xFE2
  8334                           fsr1l	equ	0xFE1
  8335                           indf2	equ	0xFDF
  8336                           postinc2	equ	0xFDE
  8337                           postdec2	equ	0xFDD
  8338                           plusw2	equ	0xFDB
  8339                           fsr2h	equ	0xFDA
  8340                           fsr2l	equ	0xFD9
  8341                           status	equ	0xFD8
  8342                           
  8343 ;; *************** function _stall_ep_out *****************
  8344 ;; Defined at:
  8345 ;;		line 716 in file "usb.c"
  8346 ;; Parameters:    Size  Location     Type
  8347 ;;  ep              1    wreg     unsigned char 
  8348 ;; Auto vars:     Size  Location     Type
  8349 ;;  ep              1    0[COMRAM] unsigned char 
  8350 ;; Return value:  Size  Location     Type
  8351 ;;		None               void
  8352 ;; Registers used:
  8353 ;;		wreg, fsr2l, fsr2h, status,2, status,0, prodl, prodh
  8354 ;; Tracked objects:
  8355 ;;		On entry : 0/0
  8356 ;;		On exit  : 0/0
  8357 ;;		Unchanged: 0/0
  8358 ;; Data sizes:     COMRAM   BANK0   BANK1   BANK2   BANK3   BANK4   BANK5   BANK6   BANK7
  8359 ;;      Params:         0       0       0       0       0       0       0       0       0
  8360 ;;      Locals:         1       0       0       0       0       0       0       0       0
  8361 ;;      Temps:          0       0       0       0       0       0       0       0       0
  8362 ;;      Totals:         1       0       0       0       0       0       0       0       0
  8363 ;;Total ram usage:        1 bytes
  8364 ;; Hardware stack levels used:    1
  8365 ;; This function calls:
  8366 ;;		Nothing
  8367 ;; This function is called by:
  8368 ;;		_handle_standard_control_request
  8369 ;;		_usb_service
  8370 ;; This function uses a non-reentrant model
  8371 ;;
  8372                           
  8373                           	psect	text31
  8374  004754                     __ptext31:
  8375                           	opt stack 0
  8376  004754                     _stall_ep_out:
  8377                           	opt stack 25
  8378                           
  8379                           ;incstack = 0
  8380                           ;stall_ep_out@ep stored from wreg
  8381  004754  6E01               	movwf	stall_ep_out@ep,c
  8382                           
  8383                           ;usb.c: 721: do { (bds[(ep) * 2]).BDnCNT = (0); (bds[(ep) * 2]).STAT.BDnSTAT = (0x80|0x0
      +                          4); } while(0);
  8384  004756  5001               	movf	stall_ep_out@ep,w,c
  8385  004758  0D08               	mullw	8
  8386  00475A  0E01               	movlw	1
  8387  00475C  26F3               	addwf	prodl,f,c
  8388  00475E  0E00               	movlw	0
  8389  004760  22F4               	addwfc	prodh,f,c
  8390  004762  0E00               	movlw	0
  8391  004764  24F3               	addwf	prodl,w,c
  8392  004766  6ED9               	movwf	fsr2l,c
  8393  004768  0E04               	movlw	4
  8394  00476A  20F4               	addwfc	prodh,w,c
  8395  00476C  6EDA               	movwf	fsr2h,c
  8396  00476E  0E00               	movlw	0
  8397  004770  6EDF               	movwf	indf2,c
  8398  004772  5001               	movf	stall_ep_out@ep,w,c
  8399  004774  0D08               	mullw	8
  8400  004776  0E00               	movlw	0
  8401  004778  24F3               	addwf	prodl,w,c
  8402  00477A  6ED9               	movwf	fsr2l,c
  8403  00477C  0E04               	movlw	4
  8404  00477E  20F4               	addwfc	prodh,w,c
  8405  004780  6EDA               	movwf	fsr2h,c
  8406  004782  0E84               	movlw	132
  8407  004784  6EDF               	movwf	indf2,c
  8408  004786  0012               	return	
  8409  004788  0012               	return		;funcret
  8410  00478A                     __end_of_stall_ep_out:
  8411                           	opt stack 0
  8412                           tosu	equ	0xFFF
  8413                           tosh	equ	0xFFE
  8414                           tosl	equ	0xFFD
  8415                           pclatu	equ	0xFFB
  8416                           pclath	equ	0xFFA
  8417                           tblptru	equ	0xFF8
  8418                           tblptrh	equ	0xFF7
  8419                           tblptrl	equ	0xFF6
  8420                           tablat	equ	0xFF5
  8421                           prodh	equ	0xFF4
  8422                           prodl	equ	0xFF3
  8423                           intcon	equ	0xFF2
  8424                           postinc0	equ	0xFEE
  8425                           fsr0h	equ	0xFEA
  8426                           fsr0l	equ	0xFE9
  8427                           wreg	equ	0xFE8
  8428                           indf1	equ	0xFE7
  8429                           postinc1	equ	0xFE6
  8430                           postdec1	equ	0xFE5
  8431                           fsr1h	equ	0xFE2
  8432                           fsr1l	equ	0xFE1
  8433                           indf2	equ	0xFDF
  8434                           postinc2	equ	0xFDE
  8435                           postdec2	equ	0xFDD
  8436                           plusw2	equ	0xFDB
  8437                           fsr2h	equ	0xFDA
  8438                           fsr2l	equ	0xFD9
  8439                           status	equ	0xFD8
  8440                           
  8441 ;; *************** function _stall_ep_in *****************
  8442 ;; Defined at:
  8443 ;;		line 705 in file "usb.c"
  8444 ;; Parameters:    Size  Location     Type
  8445 ;;  ep              1    wreg     unsigned char 
  8446 ;; Auto vars:     Size  Location     Type
  8447 ;;  ep              1    2[COMRAM] unsigned char 
  8448 ;; Return value:  Size  Location     Type
  8449 ;;		None               void
  8450 ;; Registers used:
  8451 ;;		wreg, fsr1l, fsr1h, fsr2l, fsr2h, status,2, status,0, prodl, prodh
  8452 ;; Tracked objects:
  8453 ;;		On entry : 0/0
  8454 ;;		On exit  : 0/0
  8455 ;;		Unchanged: 0/0
  8456 ;; Data sizes:     COMRAM   BANK0   BANK1   BANK2   BANK3   BANK4   BANK5   BANK6   BANK7
  8457 ;;      Params:         0       0       0       0       0       0       0       0       0
  8458 ;;      Locals:         1       0       0       0       0       0       0       0       0
  8459 ;;      Temps:          2       0       0       0       0       0       0       0       0
  8460 ;;      Totals:         3       0       0       0       0       0       0       0       0
  8461 ;;Total ram usage:        3 bytes
  8462 ;; Hardware stack levels used:    1
  8463 ;; This function calls:
  8464 ;;		Nothing
  8465 ;; This function is called by:
  8466 ;;		_handle_standard_control_request
  8467 ;;		_usb_service
  8468 ;; This function uses a non-reentrant model
  8469 ;;
  8470                           
  8471                           	psect	text32
  8472  0042C8                     __ptext32:
  8473                           	opt stack 0
  8474  0042C8                     _stall_ep_in:
  8475                           	opt stack 25
  8476                           
  8477                           ;incstack = 0
  8478                           ;stall_ep_in@ep stored from wreg
  8479  0042C8  6E03               	movwf	stall_ep_in@ep,c
  8480                           
  8481                           ;usb.c: 710: do { (bds[(ep) * 2 + 1]).BDnCNT = (ep_buf[ep].in_len); (bds[(ep) * 2 + 1]).
      +                          STAT.BDnSTAT = (0x80|0x04); } while(0);
  8482  0042CA  5003               	movf	stall_ep_in@ep,w,c
  8483  0042CC  0D07               	mullw	7
  8484  0042CE  0E05               	movlw	5
  8485  0042D0  26F3               	addwf	prodl,f,c
  8486  0042D2  0E00               	movlw	0
  8487  0042D4  22F4               	addwfc	prodh,f,c
  8488  0042D6  0E00               	movlw	low _ep_buf
  8489  0042D8  24F3               	addwf	prodl,w,c
  8490  0042DA  6ED9               	movwf	fsr2l,c
  8491  0042DC  0E01               	movlw	high _ep_buf
  8492  0042DE  20F4               	addwfc	prodh,w,c
  8493  0042E0  6EDA               	movwf	fsr2h,c
  8494  0042E2  5003               	movf	stall_ep_in@ep,w,c
  8495  0042E4  6E01               	movwf	??_stall_ep_in& (0+255),c
  8496  0042E6  6A02               	clrf	(??_stall_ep_in+1)& (0+255),c
  8497  0042E8  90D8               	bcf	status,0,c
  8498  0042EA  3601               	rlcf	??_stall_ep_in,f,c
  8499  0042EC  3602               	rlcf	??_stall_ep_in+1,f,c
  8500  0042EE  90D8               	bcf	status,0,c
  8501  0042F0  3601               	rlcf	??_stall_ep_in,f,c
  8502  0042F2  3602               	rlcf	??_stall_ep_in+1,f,c
  8503  0042F4  90D8               	bcf	status,0,c
  8504  0042F6  3601               	rlcf	??_stall_ep_in,f,c
  8505  0042F8  3602               	rlcf	??_stall_ep_in+1,f,c
  8506  0042FA  0E05               	movlw	5
  8507  0042FC  2601               	addwf	??_stall_ep_in,f,c
  8508  0042FE  0E00               	movlw	0
  8509  004300  2202               	addwfc	??_stall_ep_in+1,f,c
  8510  004302  0E00               	movlw	0
  8511  004304  2401               	addwf	??_stall_ep_in,w,c
  8512  004306  6EE1               	movwf	fsr1l,c
  8513  004308  0E04               	movlw	4
  8514  00430A  2002               	addwfc	??_stall_ep_in+1,w,c
  8515  00430C  6EE2               	movwf	fsr1h,c
  8516  00430E  CFDF FFE7          	movff	indf2,indf1
  8517  004312  5003               	movf	stall_ep_in@ep,w,c
  8518  004314  6E01               	movwf	??_stall_ep_in& (0+255),c
  8519  004316  6A02               	clrf	(??_stall_ep_in+1)& (0+255),c
  8520  004318  90D8               	bcf	status,0,c
  8521  00431A  3601               	rlcf	??_stall_ep_in,f,c
  8522  00431C  3602               	rlcf	??_stall_ep_in+1,f,c
  8523  00431E  90D8               	bcf	status,0,c
  8524  004320  3601               	rlcf	??_stall_ep_in,f,c
  8525  004322  3602               	rlcf	??_stall_ep_in+1,f,c
  8526  004324  90D8               	bcf	status,0,c
  8527  004326  3601               	rlcf	??_stall_ep_in,f,c
  8528  004328  3602               	rlcf	??_stall_ep_in+1,f,c
  8529  00432A  0E04               	movlw	4
  8530  00432C  2601               	addwf	??_stall_ep_in,f,c
  8531  00432E  0E00               	movlw	0
  8532  004330  2202               	addwfc	??_stall_ep_in+1,f,c
  8533  004332  0E00               	movlw	0
  8534  004334  2401               	addwf	??_stall_ep_in,w,c
  8535  004336  6ED9               	movwf	fsr2l,c
  8536  004338  0E04               	movlw	4
  8537  00433A  2002               	addwfc	??_stall_ep_in+1,w,c
  8538  00433C  6EDA               	movwf	fsr2h,c
  8539  00433E  0E84               	movlw	132
  8540  004340  6EDF               	movwf	indf2,c
  8541  004342  0012               	return	
  8542  004344  0012               	return		;funcret
  8543  004346                     __end_of_stall_ep_in:
  8544                           	opt stack 0
  8545                           tosu	equ	0xFFF
  8546                           tosh	equ	0xFFE
  8547                           tosl	equ	0xFFD
  8548                           pclatu	equ	0xFFB
  8549                           pclath	equ	0xFFA
  8550                           tblptru	equ	0xFF8
  8551                           tblptrh	equ	0xFF7
  8552                           tblptrl	equ	0xFF6
  8553                           tablat	equ	0xFF5
  8554                           prodh	equ	0xFF4
  8555                           prodl	equ	0xFF3
  8556                           intcon	equ	0xFF2
  8557                           postinc0	equ	0xFEE
  8558                           fsr0h	equ	0xFEA
  8559                           fsr0l	equ	0xFE9
  8560                           wreg	equ	0xFE8
  8561                           indf1	equ	0xFE7
  8562                           postinc1	equ	0xFE6
  8563                           postdec1	equ	0xFE5
  8564                           fsr1h	equ	0xFE2
  8565                           fsr1l	equ	0xFE1
  8566                           indf2	equ	0xFDF
  8567                           postinc2	equ	0xFDE
  8568                           postdec2	equ	0xFDD
  8569                           plusw2	equ	0xFDB
  8570                           fsr2h	equ	0xFDA
  8571                           fsr2l	equ	0xFD9
  8572                           status	equ	0xFD8
  8573                           
  8574 ;; *************** function _app_unknown_get_descriptor_callback *****************
  8575 ;; Defined at:
  8576 ;;		line 296 in file "main.c"
  8577 ;; Parameters:    Size  Location     Type
  8578 ;;  pkt             2    0[COMRAM] PTR const struct setup_p
  8579 ;;		 -> ep_buffers(155), 
  8580 ;;  descriptor      2    2[COMRAM] PTR PTR const void 
  8581 ;;		 -> handle_standard_control_request@desc_581(2), 
  8582 ;; Auto vars:     Size  Location     Type
  8583 ;;		None
  8584 ;; Return value:  Size  Location     Type
  8585 ;;                  2    0[COMRAM] int 
  8586 ;; Registers used:
  8587 ;;		None
  8588 ;; Tracked objects:
  8589 ;;		On entry : 0/0
  8590 ;;		On exit  : 0/0
  8591 ;;		Unchanged: 0/0
  8592 ;; Data sizes:     COMRAM   BANK0   BANK1   BANK2   BANK3   BANK4   BANK5   BANK6   BANK7
  8593 ;;      Params:         4       0       0       0       0       0       0       0       0
  8594 ;;      Locals:         0       0       0       0       0       0       0       0       0
  8595 ;;      Temps:          0       0       0       0       0       0       0       0       0
  8596 ;;      Totals:         4       0       0       0       0       0       0       0       0
  8597 ;;Total ram usage:        4 bytes
  8598 ;; Hardware stack levels used:    1
  8599 ;; This function calls:
  8600 ;;		Nothing
  8601 ;; This function is called by:
  8602 ;;		_handle_standard_control_request
  8603 ;; This function uses a non-reentrant model
  8604 ;;
  8605                           
  8606                           	psect	text33
  8607  0049FC                     __ptext33:
  8608                           	opt stack 0
  8609  0049FC                     _app_unknown_get_descriptor_callback:
  8610                           	opt stack 23
  8611                           
  8612                           ;main.c: 298: return -1;
  8613                           
  8614                           ;incstack = 0
  8615  0049FC  6801               	setf	?_app_unknown_get_descriptor_callback,c
  8616  0049FE  6802               	setf	?_app_unknown_get_descriptor_callback+1,c
  8617  004A00  0012               	return		;funcret
  8618  004A02                     __end_of_app_unknown_get_descriptor_callback:
  8619                           	opt stack 0
  8620                           tosu	equ	0xFFF
  8621                           tosh	equ	0xFFE
  8622                           tosl	equ	0xFFD
  8623                           pclatu	equ	0xFFB
  8624                           pclath	equ	0xFFA
  8625                           tblptru	equ	0xFF8
  8626                           tblptrh	equ	0xFF7
  8627                           tblptrl	equ	0xFF6
  8628                           tablat	equ	0xFF5
  8629                           prodh	equ	0xFF4
  8630                           prodl	equ	0xFF3
  8631                           intcon	equ	0xFF2
  8632                           postinc0	equ	0xFEE
  8633                           fsr0h	equ	0xFEA
  8634                           fsr0l	equ	0xFE9
  8635                           wreg	equ	0xFE8
  8636                           indf1	equ	0xFE7
  8637                           postinc1	equ	0xFE6
  8638                           postdec1	equ	0xFE5
  8639                           fsr1h	equ	0xFE2
  8640                           fsr1l	equ	0xFE1
  8641                           indf2	equ	0xFDF
  8642                           postinc2	equ	0xFDE
  8643                           postdec2	equ	0xFDD
  8644                           plusw2	equ	0xFDB
  8645                           fsr2h	equ	0xFDA
  8646                           fsr2l	equ	0xFD9
  8647                           status	equ	0xFD8
  8648                           
  8649 ;; *************** function _app_set_interface_callback *****************
  8650 ;; Defined at:
  8651 ;;		line 263 in file "main.c"
  8652 ;; Parameters:    Size  Location     Type
  8653 ;;  interface       1    wreg     unsigned char 
  8654 ;;  alt_setting     1    0[COMRAM] unsigned char 
  8655 ;; Auto vars:     Size  Location     Type
  8656 ;;  interface       1    0[COMRAM] unsigned char 
  8657 ;; Return value:  Size  Location     Type
  8658 ;;                  1    wreg      char 
  8659 ;; Registers used:
  8660 ;;		wreg
  8661 ;; Tracked objects:
  8662 ;;		On entry : 0/0
  8663 ;;		On exit  : 0/0
  8664 ;;		Unchanged: 0/0
  8665 ;; Data sizes:     COMRAM   BANK0   BANK1   BANK2   BANK3   BANK4   BANK5   BANK6   BANK7
  8666 ;;      Params:         1       0       0       0       0       0       0       0       0
  8667 ;;      Locals:         0       0       0       0       0       0       0       0       0
  8668 ;;      Temps:          0       0       0       0       0       0       0       0       0
  8669 ;;      Totals:         1       0       0       0       0       0       0       0       0
  8670 ;;Total ram usage:        1 bytes
  8671 ;; Hardware stack levels used:    1
  8672 ;; This function calls:
  8673 ;;		Nothing
  8674 ;; This function is called by:
  8675 ;;		_handle_standard_control_request
  8676 ;; This function uses a non-reentrant model
  8677 ;;
  8678                           
  8679                           	psect	text34
  8680  004A02                     __ptext34:
  8681                           	opt stack 0
  8682  004A02                     _app_set_interface_callback:
  8683                           	opt stack 23
  8684                           
  8685                           ;main.c: 265: return 0;
  8686                           
  8687                           ;incstack = 0
  8688  004A02  0E00               	movlw	0
  8689  004A04  0012               	return	
  8690  004A06  0012               	return		;funcret
  8691  004A08                     __end_of_app_set_interface_callback:
  8692                           	opt stack 0
  8693                           tosu	equ	0xFFF
  8694                           tosh	equ	0xFFE
  8695                           tosl	equ	0xFFD
  8696                           pclatu	equ	0xFFB
  8697                           pclath	equ	0xFFA
  8698                           tblptru	equ	0xFF8
  8699                           tblptrh	equ	0xFF7
  8700                           tblptrl	equ	0xFF6
  8701                           tablat	equ	0xFF5
  8702                           prodh	equ	0xFF4
  8703                           prodl	equ	0xFF3
  8704                           intcon	equ	0xFF2
  8705                           postinc0	equ	0xFEE
  8706                           fsr0h	equ	0xFEA
  8707                           fsr0l	equ	0xFE9
  8708                           wreg	equ	0xFE8
  8709                           indf1	equ	0xFE7
  8710                           postinc1	equ	0xFE6
  8711                           postdec1	equ	0xFE5
  8712                           fsr1h	equ	0xFE2
  8713                           fsr1l	equ	0xFE1
  8714                           indf2	equ	0xFDF
  8715                           postinc2	equ	0xFDE
  8716                           postdec2	equ	0xFDD
  8717                           plusw2	equ	0xFDB
  8718                           fsr2h	equ	0xFDA
  8719                           fsr2l	equ	0xFD9
  8720                           status	equ	0xFD8
  8721                           
  8722 ;; *************** function _app_set_configuration_callback *****************
  8723 ;; Defined at:
  8724 ;;		line 248 in file "main.c"
  8725 ;; Parameters:    Size  Location     Type
  8726 ;;  configuratio    1    wreg     unsigned char 
  8727 ;; Auto vars:     Size  Location     Type
  8728 ;;  configuratio    1    0[COMRAM] unsigned char 
  8729 ;; Return value:  Size  Location     Type
  8730 ;;		None               void
  8731 ;; Registers used:
  8732 ;;		wreg
  8733 ;; Tracked objects:
  8734 ;;		On entry : 0/0
  8735 ;;		On exit  : 0/0
  8736 ;;		Unchanged: 0/0
  8737 ;; Data sizes:     COMRAM   BANK0   BANK1   BANK2   BANK3   BANK4   BANK5   BANK6   BANK7
  8738 ;;      Params:         0       0       0       0       0       0       0       0       0
  8739 ;;      Locals:         0       0       0       0       0       0       0       0       0
  8740 ;;      Temps:          0       0       0       0       0       0       0       0       0
  8741 ;;      Totals:         0       0       0       0       0       0       0       0       0
  8742 ;;Total ram usage:        0 bytes
  8743 ;; Hardware stack levels used:    1
  8744 ;; This function calls:
  8745 ;;		Nothing
  8746 ;; This function is called by:
  8747 ;;		_handle_standard_control_request
  8748 ;; This function uses a non-reentrant model
  8749 ;;
  8750                           
  8751                           	psect	text35
  8752  004A38                     __ptext35:
  8753                           	opt stack 0
  8754  004A38                     _app_set_configuration_callback:
  8755                           	opt stack 23
  8756                           
  8757                           ;incstack = 0
  8758  004A38  0012               	return		;funcret
  8759  004A3A                     __end_of_app_set_configuration_callback:
  8760                           	opt stack 0
  8761                           tosu	equ	0xFFF
  8762                           tosh	equ	0xFFE
  8763                           tosl	equ	0xFFD
  8764                           pclatu	equ	0xFFB
  8765                           pclath	equ	0xFFA
  8766                           tblptru	equ	0xFF8
  8767                           tblptrh	equ	0xFF7
  8768                           tblptrl	equ	0xFF6
  8769                           tablat	equ	0xFF5
  8770                           prodh	equ	0xFF4
  8771                           prodl	equ	0xFF3
  8772                           intcon	equ	0xFF2
  8773                           postinc0	equ	0xFEE
  8774                           fsr0h	equ	0xFEA
  8775                           fsr0l	equ	0xFE9
  8776                           wreg	equ	0xFE8
  8777                           indf1	equ	0xFE7
  8778                           postinc1	equ	0xFE6
  8779                           postdec1	equ	0xFE5
  8780                           fsr1h	equ	0xFE2
  8781                           fsr1l	equ	0xFE1
  8782                           indf2	equ	0xFDF
  8783                           postinc2	equ	0xFDE
  8784                           postdec2	equ	0xFDD
  8785                           plusw2	equ	0xFDB
  8786                           fsr2h	equ	0xFDA
  8787                           fsr2l	equ	0xFD9
  8788                           status	equ	0xFD8
  8789                           
  8790 ;; *************** function _app_get_interface_callback *****************
  8791 ;; Defined at:
  8792 ;;		line 268 in file "main.c"
  8793 ;; Parameters:    Size  Location     Type
  8794 ;;  interface       1    wreg     unsigned char 
  8795 ;; Auto vars:     Size  Location     Type
  8796 ;;  interface       1    0[COMRAM] unsigned char 
  8797 ;; Return value:  Size  Location     Type
  8798 ;;                  1    wreg      char 
  8799 ;; Registers used:
  8800 ;;		wreg
  8801 ;; Tracked objects:
  8802 ;;		On entry : 0/0
  8803 ;;		On exit  : 0/0
  8804 ;;		Unchanged: 0/0
  8805 ;; Data sizes:     COMRAM   BANK0   BANK1   BANK2   BANK3   BANK4   BANK5   BANK6   BANK7
  8806 ;;      Params:         0       0       0       0       0       0       0       0       0
  8807 ;;      Locals:         0       0       0       0       0       0       0       0       0
  8808 ;;      Temps:          0       0       0       0       0       0       0       0       0
  8809 ;;      Totals:         0       0       0       0       0       0       0       0       0
  8810 ;;Total ram usage:        0 bytes
  8811 ;; Hardware stack levels used:    1
  8812 ;; This function calls:
  8813 ;;		Nothing
  8814 ;; This function is called by:
  8815 ;;		_handle_standard_control_request
  8816 ;; This function uses a non-reentrant model
  8817 ;;
  8818                           
  8819                           	psect	text36
  8820  004A08                     __ptext36:
  8821                           	opt stack 0
  8822  004A08                     _app_get_interface_callback:
  8823                           	opt stack 23
  8824                           
  8825                           ;main.c: 270: return 0;
  8826                           
  8827                           ;incstack = 0
  8828  004A08  0E00               	movlw	0
  8829  004A0A  0012               	return	
  8830  004A0C  0012               	return		;funcret
  8831  004A0E                     __end_of_app_get_interface_callback:
  8832                           	opt stack 0
  8833                           tosu	equ	0xFFF
  8834                           tosh	equ	0xFFE
  8835                           tosl	equ	0xFFD
  8836                           pclatu	equ	0xFFB
  8837                           pclath	equ	0xFFA
  8838                           tblptru	equ	0xFF8
  8839                           tblptrh	equ	0xFF7
  8840                           tblptrl	equ	0xFF6
  8841                           tablat	equ	0xFF5
  8842                           prodh	equ	0xFF4
  8843                           prodl	equ	0xFF3
  8844                           intcon	equ	0xFF2
  8845                           postinc0	equ	0xFEE
  8846                           fsr0h	equ	0xFEA
  8847                           fsr0l	equ	0xFE9
  8848                           wreg	equ	0xFE8
  8849                           indf1	equ	0xFE7
  8850                           postinc1	equ	0xFE6
  8851                           postdec1	equ	0xFE5
  8852                           fsr1h	equ	0xFE2
  8853                           fsr1l	equ	0xFE1
  8854                           indf2	equ	0xFDF
  8855                           postinc2	equ	0xFDE
  8856                           postdec2	equ	0xFDD
  8857                           plusw2	equ	0xFDB
  8858                           fsr2h	equ	0xFDA
  8859                           fsr2l	equ	0xFD9
  8860                           status	equ	0xFD8
  8861                           
  8862 ;; *************** function _app_get_device_status_callback *****************
  8863 ;; Defined at:
  8864 ;;		line 253 in file "main.c"
  8865 ;; Parameters:    Size  Location     Type
  8866 ;;		None
  8867 ;; Auto vars:     Size  Location     Type
  8868 ;;		None
  8869 ;; Return value:  Size  Location     Type
  8870 ;;                  2    0[COMRAM] unsigned int 
  8871 ;; Registers used:
  8872 ;;		wreg, status,2
  8873 ;; Tracked objects:
  8874 ;;		On entry : 0/0
  8875 ;;		On exit  : 0/0
  8876 ;;		Unchanged: 0/0
  8877 ;; Data sizes:     COMRAM   BANK0   BANK1   BANK2   BANK3   BANK4   BANK5   BANK6   BANK7
  8878 ;;      Params:         2       0       0       0       0       0       0       0       0
  8879 ;;      Locals:         0       0       0       0       0       0       0       0       0
  8880 ;;      Temps:          0       0       0       0       0       0       0       0       0
  8881 ;;      Totals:         2       0       0       0       0       0       0       0       0
  8882 ;;Total ram usage:        2 bytes
  8883 ;; Hardware stack levels used:    1
  8884 ;; This function calls:
  8885 ;;		Nothing
  8886 ;; This function is called by:
  8887 ;;		_handle_standard_control_request
  8888 ;; This function uses a non-reentrant model
  8889 ;;
  8890                           
  8891                           	psect	text37
  8892  0049D8                     __ptext37:
  8893                           	opt stack 0
  8894  0049D8                     _app_get_device_status_callback:
  8895                           	opt stack 23
  8896                           
  8897                           ;main.c: 255: return 0x0000;
  8898                           
  8899                           ;incstack = 0
  8900  0049D8  0E00               	movlw	0
  8901  0049DA  6E02               	movwf	?_app_get_device_status_callback+1,c
  8902  0049DC  0E00               	movlw	0
  8903  0049DE  6E01               	movwf	?_app_get_device_status_callback,c
  8904  0049E0  0012               	return	
  8905  0049E2  0012               	return		;funcret
  8906  0049E4                     __end_of_app_get_device_status_callback:
  8907                           	opt stack 0
  8908                           tosu	equ	0xFFF
  8909                           tosh	equ	0xFFE
  8910                           tosl	equ	0xFFD
  8911                           pclatu	equ	0xFFB
  8912                           pclath	equ	0xFFA
  8913                           tblptru	equ	0xFF8
  8914                           tblptrh	equ	0xFF7
  8915                           tblptrl	equ	0xFF6
  8916                           tablat	equ	0xFF5
  8917                           prodh	equ	0xFF4
  8918                           prodl	equ	0xFF3
  8919                           intcon	equ	0xFF2
  8920                           postinc0	equ	0xFEE
  8921                           fsr0h	equ	0xFEA
  8922                           fsr0l	equ	0xFE9
  8923                           wreg	equ	0xFE8
  8924                           indf1	equ	0xFE7
  8925                           postinc1	equ	0xFE6
  8926                           postdec1	equ	0xFE5
  8927                           fsr1h	equ	0xFE2
  8928                           fsr1l	equ	0xFE1
  8929                           indf2	equ	0xFDF
  8930                           postinc2	equ	0xFDE
  8931                           postdec2	equ	0xFDD
  8932                           plusw2	equ	0xFDB
  8933                           fsr2h	equ	0xFDA
  8934                           fsr2l	equ	0xFD9
  8935                           status	equ	0xFD8
  8936                           
  8937 ;; *************** function _app_endpoint_halt_callback *****************
  8938 ;; Defined at:
  8939 ;;		line 258 in file "main.c"
  8940 ;; Parameters:    Size  Location     Type
  8941 ;;  endpoint        1    wreg     unsigned char 
  8942 ;;  halted          1    0[COMRAM] unsigned char 
  8943 ;; Auto vars:     Size  Location     Type
  8944 ;;  endpoint        1    0[COMRAM] unsigned char 
  8945 ;; Return value:  Size  Location     Type
  8946 ;;		None               void
  8947 ;; Registers used:
  8948 ;;		wreg
  8949 ;; Tracked objects:
  8950 ;;		On entry : 0/0
  8951 ;;		On exit  : 0/0
  8952 ;;		Unchanged: 0/0
  8953 ;; Data sizes:     COMRAM   BANK0   BANK1   BANK2   BANK3   BANK4   BANK5   BANK6   BANK7
  8954 ;;      Params:         1       0       0       0       0       0       0       0       0
  8955 ;;      Locals:         0       0       0       0       0       0       0       0       0
  8956 ;;      Temps:          0       0       0       0       0       0       0       0       0
  8957 ;;      Totals:         1       0       0       0       0       0       0       0       0
  8958 ;;Total ram usage:        1 bytes
  8959 ;; Hardware stack levels used:    1
  8960 ;; This function calls:
  8961 ;;		Nothing
  8962 ;; This function is called by:
  8963 ;;		_handle_standard_control_request
  8964 ;; This function uses a non-reentrant model
  8965 ;;
  8966                           
  8967                           	psect	text38
  8968  004A3A                     __ptext38:
  8969                           	opt stack 0
  8970  004A3A                     _app_endpoint_halt_callback:
  8971                           	opt stack 23
  8972                           
  8973                           ;incstack = 0
  8974  004A3A  0012               	return		;funcret
  8975  004A3C                     __end_of_app_endpoint_halt_callback:
  8976                           	opt stack 0
  8977                           tosu	equ	0xFFF
  8978                           tosh	equ	0xFFE
  8979                           tosl	equ	0xFFD
  8980                           pclatu	equ	0xFFB
  8981                           pclath	equ	0xFFA
  8982                           tblptru	equ	0xFF8
  8983                           tblptrh	equ	0xFF7
  8984                           tblptrl	equ	0xFF6
  8985                           tablat	equ	0xFF5
  8986                           prodh	equ	0xFF4
  8987                           prodl	equ	0xFF3
  8988                           intcon	equ	0xFF2
  8989                           postinc0	equ	0xFEE
  8990                           fsr0h	equ	0xFEA
  8991                           fsr0l	equ	0xFE9
  8992                           wreg	equ	0xFE8
  8993                           indf1	equ	0xFE7
  8994                           postinc1	equ	0xFE6
  8995                           postdec1	equ	0xFE5
  8996                           fsr1h	equ	0xFE2
  8997                           fsr1l	equ	0xFE1
  8998                           indf2	equ	0xFDF
  8999                           postinc2	equ	0xFDE
  9000                           postdec2	equ	0xFDD
  9001                           plusw2	equ	0xFDB
  9002                           fsr2h	equ	0xFDA
  9003                           fsr2l	equ	0xFD9
  9004                           status	equ	0xFD8
  9005                           
  9006 ;; *************** function _clear_ep0_stall *****************
  9007 ;; Defined at:
  9008 ;;		line 691 in file "usb.c"
  9009 ;; Parameters:    Size  Location     Type
  9010 ;;		None
  9011 ;; Auto vars:     Size  Location     Type
  9012 ;;		None
  9013 ;; Return value:  Size  Location     Type
  9014 ;;		None               void
  9015 ;; Registers used:
  9016 ;;		wreg, status,2
  9017 ;; Tracked objects:
  9018 ;;		On entry : 0/0
  9019 ;;		On exit  : 0/0
  9020 ;;		Unchanged: 0/0
  9021 ;; Data sizes:     COMRAM   BANK0   BANK1   BANK2   BANK3   BANK4   BANK5   BANK6   BANK7
  9022 ;;      Params:         0       0       0       0       0       0       0       0       0
  9023 ;;      Locals:         0       0       0       0       0       0       0       0       0
  9024 ;;      Temps:          0       0       0       0       0       0       0       0       0
  9025 ;;      Totals:         0       0       0       0       0       0       0       0       0
  9026 ;;Total ram usage:        0 bytes
  9027 ;; Hardware stack levels used:    1
  9028 ;; This function calls:
  9029 ;;		Nothing
  9030 ;; This function is called by:
  9031 ;;		_handle_ep0_setup
  9032 ;; This function uses a non-reentrant model
  9033 ;;
  9034                           
  9035                           	psect	text39
  9036  0049A8                     __ptext39:
  9037                           	opt stack 0
  9038  0049A8                     _clear_ep0_stall:
  9039                           	opt stack 24
  9040                           
  9041                           ;incstack = 0
  9042                           ;usb.c: 700: do { (bds[1]).BDnCNT = (8); (bds[1]).STAT.BDnSTAT = (0); } while(0);
  9043  0049A8  0E08               	movlw	8
  9044  0049AA  0104               	movlb	4	; () banked
  9045  0049AC  6F05               	movwf	5,b
  9046  0049AE  0E00               	movlw	0
  9047  0049B0  0104               	movlb	4	; () banked
  9048  0049B2  6F04               	movwf	4,b
  9049  0049B4  0012               	return	
  9050                           
  9051                           ; BSR set to: 4
  9052                           
  9053                           ; BSR set to: 4
  9054  0049B6  0012               	return		;funcret
  9055  0049B8                     __end_of_clear_ep0_stall:
  9056                           	opt stack 0
  9057                           tosu	equ	0xFFF
  9058                           tosh	equ	0xFFE
  9059                           tosl	equ	0xFFD
  9060                           pclatu	equ	0xFFB
  9061                           pclath	equ	0xFFA
  9062                           tblptru	equ	0xFF8
  9063                           tblptrh	equ	0xFF7
  9064                           tblptrl	equ	0xFF6
  9065                           tablat	equ	0xFF5
  9066                           prodh	equ	0xFF4
  9067                           prodl	equ	0xFF3
  9068                           intcon	equ	0xFF2
  9069                           postinc0	equ	0xFEE
  9070                           fsr0h	equ	0xFEA
  9071                           fsr0l	equ	0xFE9
  9072                           wreg	equ	0xFE8
  9073                           indf1	equ	0xFE7
  9074                           postinc1	equ	0xFE6
  9075                           postdec1	equ	0xFE5
  9076                           fsr1h	equ	0xFE2
  9077                           fsr1l	equ	0xFE1
  9078                           indf2	equ	0xFDF
  9079                           postinc2	equ	0xFDE
  9080                           postdec2	equ	0xFDD
  9081                           plusw2	equ	0xFDB
  9082                           fsr2h	equ	0xFDA
  9083                           fsr2l	equ	0xFD9
  9084                           status	equ	0xFD8
  9085                           
  9086 ;; *************** function _app_unknown_setup_request_callback *****************
  9087 ;; Defined at:
  9088 ;;		line 283 in file "main.c"
  9089 ;; Parameters:    Size  Location     Type
  9090 ;;  setup           2   65[COMRAM] PTR const struct setup_p
  9091 ;;		 -> ep_buffers(155), 
  9092 ;; Auto vars:     Size  Location     Type
  9093 ;;		None
  9094 ;; Return value:  Size  Location     Type
  9095 ;;                  1    wreg      char 
  9096 ;; Registers used:
  9097 ;;		wreg, fsr1l, fsr1h, fsr2l, fsr2h, status,2, status,0, tblptrl, tblptrh, tblptru, prodl, prodh, cstack
  9098 ;; Tracked objects:
  9099 ;;		On entry : 0/0
  9100 ;;		On exit  : 0/0
  9101 ;;		Unchanged: 0/0
  9102 ;; Data sizes:     COMRAM   BANK0   BANK1   BANK2   BANK3   BANK4   BANK5   BANK6   BANK7
  9103 ;;      Params:         2       0       0       0       0       0       0       0       0
  9104 ;;      Locals:         0       0       0       0       0       0       0       0       0
  9105 ;;      Temps:          0       0       0       0       0       0       0       0       0
  9106 ;;      Totals:         2       0       0       0       0       0       0       0       0
  9107 ;;Total ram usage:        2 bytes
  9108 ;; Hardware stack levels used:    1
  9109 ;; Hardware stack levels required when called:    5
  9110 ;; This function calls:
  9111 ;;		_process_cdc_setup_request
  9112 ;; This function is called by:
  9113 ;;		_handle_ep0_setup
  9114 ;; This function uses a non-reentrant model
  9115 ;;
  9116                           
  9117                           	psect	text40
  9118  0049B8                     __ptext40:
  9119                           	opt stack 0
  9120  0049B8                     _app_unknown_setup_request_callback:
  9121                           	opt stack 19
  9122                           
  9123                           ;main.c: 293: return process_cdc_setup_request(setup);
  9124                           
  9125                           ; BSR set to: 4
  9126                           ;incstack = 0
  9127  0049B8  C042  F022         	movff	app_unknown_setup_request_callback@setup,process_cdc_setup_request@setup
  9128  0049BC  C043  F023         	movff	app_unknown_setup_request_callback@setup+1,process_cdc_setup_request@setup+1
  9129  0049C0  ECCF  F014         	call	_process_cdc_setup_request	;wreg free
  9130  0049C4  0012               	return	
  9131  0049C6  0012               	return		;funcret
  9132  0049C8                     __end_of_app_unknown_setup_request_callback:
  9133                           	opt stack 0
  9134                           tosu	equ	0xFFF
  9135                           tosh	equ	0xFFE
  9136                           tosl	equ	0xFFD
  9137                           pclatu	equ	0xFFB
  9138                           pclath	equ	0xFFA
  9139                           tblptru	equ	0xFF8
  9140                           tblptrh	equ	0xFF7
  9141                           tblptrl	equ	0xFF6
  9142                           tablat	equ	0xFF5
  9143                           prodh	equ	0xFF4
  9144                           prodl	equ	0xFF3
  9145                           intcon	equ	0xFF2
  9146                           postinc0	equ	0xFEE
  9147                           fsr0h	equ	0xFEA
  9148                           fsr0l	equ	0xFE9
  9149                           wreg	equ	0xFE8
  9150                           indf1	equ	0xFE7
  9151                           postinc1	equ	0xFE6
  9152                           postdec1	equ	0xFE5
  9153                           fsr1h	equ	0xFE2
  9154                           fsr1l	equ	0xFE1
  9155                           indf2	equ	0xFDF
  9156                           postinc2	equ	0xFDE
  9157                           postdec2	equ	0xFDD
  9158                           plusw2	equ	0xFDB
  9159                           fsr2h	equ	0xFDA
  9160                           fsr2l	equ	0xFD9
  9161                           status	equ	0xFD8
  9162                           
  9163 ;; *************** function _process_cdc_setup_request *****************
  9164 ;; Defined at:
  9165 ;;		line 119 in file "usb_cdc.c"
  9166 ;; Parameters:    Size  Location     Type
  9167 ;;  setup           2   33[COMRAM] PTR const struct setup_p
  9168 ;;		 -> ep_buffers(155), 
  9169 ;; Auto vars:     Size  Location     Type
  9170 ;;  res             1   53[COMRAM] char 
  9171 ;;  rts             1   52[COMRAM] unsigned char 
  9172 ;;  dtr             1   51[COMRAM] unsigned char 
  9173 ;;  res             1   50[COMRAM] char 
  9174 ;;  res             1   49[COMRAM] char 
  9175 ;;  data_multipl    1   61[COMRAM] unsigned char 
  9176 ;;  idle_setting    1   60[COMRAM] unsigned char 
  9177 ;;  res             1   48[COMRAM] char 
  9178 ;;  len             2   62[COMRAM] int 
  9179 ;;  context         2   58[COMRAM] PTR void 
  9180 ;;  callback        2   56[COMRAM] PTR FTN(unsigned char ,P
  9181 ;;  response        2   54[COMRAM] PTR const void 
  9182 ;;  res             1   47[COMRAM] char 
  9183 ;;  interface       1   64[COMRAM] unsigned char 
  9184 ;; Return value:  Size  Location     Type
  9185 ;;                  1    wreg      unsigned char 
  9186 ;; Registers used:
  9187 ;;		wreg, fsr1l, fsr1h, fsr2l, fsr2h, status,2, status,0, tblptrl, tblptrh, tblptru, prodl, prodh, cstack
  9188 ;; Tracked objects:
  9189 ;;		On entry : 0/0
  9190 ;;		On exit  : 0/0
  9191 ;;		Unchanged: 0/0
  9192 ;; Data sizes:     COMRAM   BANK0   BANK1   BANK2   BANK3   BANK4   BANK5   BANK6   BANK7
  9193 ;;      Params:         2       0       0       0       0       0       0       0       0
  9194 ;;      Locals:        26       0       0       0       0       0       0       0       0
  9195 ;;      Temps:          4       0       0       0       0       0       0       0       0
  9196 ;;      Totals:        32       0       0       0       0       0       0       0       0
  9197 ;;Total ram usage:       32 bytes
  9198 ;; Hardware stack levels used:    1
  9199 ;; Hardware stack levels required when called:    4
  9200 ;; This function calls:
  9201 ;;		_app_get_comm_feature_callback
  9202 ;;		_app_get_encapsulated_response
  9203 ;;		_app_get_line_coding_callback
  9204 ;;		_app_send_break_callback
  9205 ;;		_app_send_encapsulated_command
  9206 ;;		_app_set_control_line_state_callback
  9207 ;;		_usb_send_data_stage
  9208 ;;		_usb_start_receive_ep0_data_stage
  9209 ;; This function is called by:
  9210 ;;		_app_unknown_setup_request_callback
  9211 ;; This function uses a non-reentrant model
  9212 ;;
  9213                           
  9214                           	psect	text41
  9215  00299E                     __ptext41:
  9216                           	opt stack 0
  9217  00299E                     _process_cdc_setup_request:
  9218                           	opt stack 19
  9219                           
  9220                           ;usb_cdc.c: 123: uint8_t interface = setup->wIndex;
  9221                           
  9222                           ;incstack = 0
  9223  00299E  EE20 F004          	lfsr	2,4
  9224  0029A2  5022               	movf	process_cdc_setup_request@setup,w,c
  9225  0029A4  26D9               	addwf	fsr2l,f,c
  9226  0029A6  5023               	movf	process_cdc_setup_request@setup+1,w,c
  9227  0029A8  22DA               	addwfc	fsr2h,f,c
  9228  0029AA  50DF               	movf	indf2,w,c
  9229  0029AC  6E41               	movwf	process_cdc_setup_request@interface,c
  9230                           
  9231                           ;usb_cdc.c: 135: if (setup->bRequest == CDC_SEND_ENCAPSULATED_COMMAND &&
  9232                           ;usb_cdc.c: 136: setup->REQUEST.bmRequestType == 0x21) {
  9233  0029AE  EE20 F001          	lfsr	2,1
  9234  0029B2  5022               	movf	process_cdc_setup_request@setup,w,c
  9235  0029B4  26D9               	addwf	fsr2l,f,c
  9236  0029B6  5023               	movf	process_cdc_setup_request@setup+1,w,c
  9237  0029B8  22DA               	addwfc	fsr2h,f,c
  9238  0029BA  50DF               	movf	indf2,w,c
  9239  0029BC  A4D8               	btfss	status,2,c
  9240  0029BE  D01C               	goto	i2l2918
  9241  0029C0  C022  FFD9         	movff	process_cdc_setup_request@setup,fsr2l
  9242  0029C4  C023  FFDA         	movff	process_cdc_setup_request@setup+1,fsr2h
  9243  0029C8  0E21               	movlw	33
  9244  0029CA  18DE               	xorwf	postinc2,w,c
  9245  0029CC  A4D8               	btfss	status,2,c
  9246  0029CE  D014               	goto	i2l2918
  9247                           
  9248                           ;usb_cdc.c: 137: int8_t res;
  9249                           ;usb_cdc.c: 138: res = app_send_encapsulated_command(interface,
  9250                           ;usb_cdc.c: 139: setup->wLength);
  9251  0029D0  EE20 F006          	lfsr	2,6
  9252  0029D4  5022               	movf	process_cdc_setup_request@setup,w,c
  9253  0029D6  26D9               	addwf	fsr2l,f,c
  9254  0029D8  5023               	movf	process_cdc_setup_request@setup+1,w,c
  9255  0029DA  22DA               	addwfc	fsr2h,f,c
  9256  0029DC  CFDE F001          	movff	postinc2,app_send_encapsulated_command@length
  9257  0029E0  CFDD F002          	movff	postdec2,app_send_encapsulated_command@length+1
  9258  0029E4  5041               	movf	process_cdc_setup_request@interface,w,c
  9259  0029E6  EC0A  F025         	call	_app_send_encapsulated_command
  9260  0029EA  6E30               	movwf	process_cdc_setup_request@res,c
  9261                           
  9262                           ;usb_cdc.c: 140: if (res < 0)
  9263  0029EC  AE30               	btfss	process_cdc_setup_request@res,7,c
  9264  0029EE  D002               	goto	i2l2914
  9265                           
  9266                           ;usb_cdc.c: 141: return -1;
  9267  0029F0  0EFF               	movlw	255
  9268  0029F2  0012               	return	
  9269  0029F4                     i2l2914:
  9270                           
  9271                           ;usb_cdc.c: 142: return 0;
  9272  0029F4  0E00               	movlw	0
  9273  0029F6  0012               	return	
  9274  0029F8                     i2l2918:
  9275                           
  9276                           ;usb_cdc.c: 143: }
  9277                           ;usb_cdc.c: 147: if (setup->bRequest == CDC_GET_ENCAPSULATED_RESPONSE &&
  9278                           ;usb_cdc.c: 148: setup->REQUEST.bmRequestType == 0xa1) {
  9279  0029F8  EE20 F001          	lfsr	2,1
  9280  0029FC  5022               	movf	process_cdc_setup_request@setup,w,c
  9281  0029FE  26D9               	addwf	fsr2l,f,c
  9282  002A00  5023               	movf	process_cdc_setup_request@setup+1,w,c
  9283  002A02  22DA               	addwfc	fsr2h,f,c
  9284  002A04  04DE               	decf	postinc2,w,c
  9285  002A06  A4D8               	btfss	status,2,c
  9286  002A08  D059               	goto	i2l2940
  9287  002A0A  C022  FFD9         	movff	process_cdc_setup_request@setup,fsr2l
  9288  002A0E  C023  FFDA         	movff	process_cdc_setup_request@setup+1,fsr2h
  9289  002A12  0EA1               	movlw	161
  9290  002A14  18DE               	xorwf	postinc2,w,c
  9291  002A16  A4D8               	btfss	status,2,c
  9292  002A18  D051               	goto	i2l2940
  9293                           
  9294                           ;usb_cdc.c: 149: const void *response;
  9295                           ;usb_cdc.c: 150: int16_t len;
  9296                           ;usb_cdc.c: 151: usb_ep0_data_stage_callback callback;
  9297                           ;usb_cdc.c: 152: void *context;
  9298                           ;usb_cdc.c: 154: len = app_get_encapsulated_response(
  9299                           ;usb_cdc.c: 155: interface, setup->wLength,
  9300                           ;usb_cdc.c: 156: &response, &callback,
  9301                           ;usb_cdc.c: 157: &context);
  9302  002A1A  EE20 F006          	lfsr	2,6
  9303  002A1E  5022               	movf	process_cdc_setup_request@setup,w,c
  9304  002A20  26D9               	addwf	fsr2l,f,c
  9305  002A22  5023               	movf	process_cdc_setup_request@setup+1,w,c
  9306  002A24  22DA               	addwfc	fsr2h,f,c
  9307  002A26  CFDE F001          	movff	postinc2,app_get_encapsulated_response@length
  9308  002A2A  CFDD F002          	movff	postdec2,app_get_encapsulated_response@length+1
  9309  002A2E  0E37               	movlw	low process_cdc_setup_request@response
  9310  002A30  6E03               	movwf	app_get_encapsulated_response@report,c
  9311  002A32  0E00               	movlw	high process_cdc_setup_request@response
  9312  002A34  6E04               	movwf	app_get_encapsulated_response@report+1,c
  9313  002A36  0E39               	movlw	low process_cdc_setup_request@callback
  9314  002A38  6E05               	movwf	app_get_encapsulated_response@callback,c
  9315  002A3A  0E00               	movlw	high process_cdc_setup_request@callback
  9316  002A3C  6E06               	movwf	app_get_encapsulated_response@callback+1,c
  9317  002A3E  0E3B               	movlw	low process_cdc_setup_request@context
  9318  002A40  6E07               	movwf	app_get_encapsulated_response@context,c
  9319  002A42  0E00               	movlw	high process_cdc_setup_request@context
  9320  002A44  6E08               	movwf	app_get_encapsulated_response@context+1,c
  9321  002A46  5041               	movf	process_cdc_setup_request@interface,w,c
  9322  002A48  EC13  F025         	call	_app_get_encapsulated_response
  9323  002A4C  C001  F03F         	movff	?_app_get_encapsulated_response,process_cdc_setup_request@len
  9324  002A50  C002  F040         	movff	?_app_get_encapsulated_response+1,process_cdc_setup_request@len+1
  9325                           
  9326                           ;usb_cdc.c: 158: if (len < 0)
  9327  002A54  AE40               	btfss	process_cdc_setup_request@len+1,7,c
  9328  002A56  D002               	goto	i2l2930
  9329                           
  9330                           ;usb_cdc.c: 159: return -1;
  9331  002A58  0EFF               	movlw	255
  9332  002A5A  0012               	return	
  9333  002A5C                     i2l2930:
  9334                           
  9335                           ;usb_cdc.c: 161: usb_send_data_stage((void*)response,
  9336                           ;usb_cdc.c: 162: (((len) < (setup->wLength)) ? (len) : (setup->wLength)),
  9337                           ;usb_cdc.c: 163: callback, context);
  9338  002A5C  EE20 F006          	lfsr	2,6
  9339  002A60  5022               	movf	process_cdc_setup_request@setup,w,c
  9340  002A62  26D9               	addwf	fsr2l,f,c
  9341  002A64  5023               	movf	process_cdc_setup_request@setup+1,w,c
  9342  002A66  22DA               	addwfc	fsr2h,f,c
  9343  002A68  50DE               	movf	postinc2,w,c
  9344  002A6A  5C3F               	subwf	process_cdc_setup_request@len,w,c
  9345  002A6C  50DE               	movf	postinc2,w,c
  9346  002A6E  5840               	subwfb	process_cdc_setup_request@len+1,w,c
  9347  002A70  A0D8               	btfss	status,0,c
  9348  002A72  D00B               	goto	i2l393
  9349  002A74  EE20 F006          	lfsr	2,6
  9350  002A78  5022               	movf	process_cdc_setup_request@setup,w,c
  9351  002A7A  26D9               	addwf	fsr2l,f,c
  9352  002A7C  5023               	movf	process_cdc_setup_request@setup+1,w,c
  9353  002A7E  22DA               	addwfc	fsr2h,f,c
  9354  002A80  CFDE F028          	movff	postinc2,_process_cdc_setup_request$851
  9355  002A84  CFDD F029          	movff	postdec2,_process_cdc_setup_request$851+1
  9356  002A88  D005               	goto	i2l2934
  9357  002A8A                     i2l393:
  9358  002A8A  C03F  F028         	movff	process_cdc_setup_request@len,_process_cdc_setup_request$851
  9359  002A8E  C040  F029         	movff	process_cdc_setup_request@len+1,_process_cdc_setup_request$851+1
  9360  002A92  D000               	goto	i2l2934
  9361  002A94                     i2l2934:
  9362  002A94  C037  F01A         	movff	process_cdc_setup_request@response,usb_send_data_stage@buffer
  9363  002A98  C038  F01B         	movff	process_cdc_setup_request@response+1,usb_send_data_stage@buffer+1
  9364  002A9C  C028  F01C         	movff	_process_cdc_setup_request$851,usb_send_data_stage@len
  9365  002AA0  C029  F01D         	movff	_process_cdc_setup_request$851+1,usb_send_data_stage@len+1
  9366  002AA4  C039  F01E         	movff	process_cdc_setup_request@callback,usb_send_data_stage@callback
  9367  002AA8  C03A  F01F         	movff	process_cdc_setup_request@callback+1,usb_send_data_stage@callback+1
  9368  002AAC  C03B  F020         	movff	process_cdc_setup_request@context,usb_send_data_stage@context
  9369  002AB0  C03C  F021         	movff	process_cdc_setup_request@context+1,usb_send_data_stage@context+1
  9370  002AB4  ECF3  F023         	call	_usb_send_data_stage	;wreg free
  9371                           
  9372                           ;usb_cdc.c: 164: return 0;
  9373  002AB8  0E00               	movlw	0
  9374  002ABA  0012               	return	
  9375  002ABC                     i2l2940:
  9376                           
  9377                           ;usb_cdc.c: 165: }
  9378                           ;usb_cdc.c: 169: if (setup->bRequest == CDC_SET_COMM_FEATURE &&
  9379                           ;usb_cdc.c: 170: setup->REQUEST.bmRequestType == 0x21) {
  9380  002ABC  EE20 F001          	lfsr	2,1
  9381  002AC0  5022               	movf	process_cdc_setup_request@setup,w,c
  9382  002AC2  26D9               	addwf	fsr2l,f,c
  9383  002AC4  5023               	movf	process_cdc_setup_request@setup+1,w,c
  9384  002AC6  22DA               	addwfc	fsr2h,f,c
  9385  002AC8  0E02               	movlw	2
  9386  002ACA  18DE               	xorwf	postinc2,w,c
  9387  002ACC  A4D8               	btfss	status,2,c
  9388  002ACE  D033               	goto	i2l2958
  9389  002AD0  C022  FFD9         	movff	process_cdc_setup_request@setup,fsr2l
  9390  002AD4  C023  FFDA         	movff	process_cdc_setup_request@setup+1,fsr2h
  9391  002AD8  0E21               	movlw	33
  9392  002ADA  18DE               	xorwf	postinc2,w,c
  9393  002ADC  A4D8               	btfss	status,2,c
  9394  002ADE  D02B               	goto	i2l2958
  9395                           
  9396                           ;usb_cdc.c: 174: if (setup->wValue != CDC_FEATURE_ABSTRACT_STATE)
  9397  002AE0  EE20 F002          	lfsr	2,2
  9398  002AE4  5022               	movf	process_cdc_setup_request@setup,w,c
  9399  002AE6  26D9               	addwf	fsr2l,f,c
  9400  002AE8  5023               	movf	process_cdc_setup_request@setup+1,w,c
  9401  002AEA  22DA               	addwfc	fsr2h,f,c
  9402  002AEC  04DE               	decf	postinc2,w,c
  9403  002AEE  10DE               	iorwf	postinc2,w,c
  9404  002AF0  B4D8               	btfsc	status,2,c
  9405  002AF2  D002               	goto	i2l397
  9406                           
  9407                           ;usb_cdc.c: 175: return -1;
  9408  002AF4  0EFF               	movlw	255
  9409  002AF6  0012               	return	
  9410  002AF8                     i2l397:
  9411                           
  9412                           ;usb_cdc.c: 177: transfer_interface = interface;
  9413  002AF8  C041  F0FA         	movff	process_cdc_setup_request@interface,_transfer_interface
  9414                           
  9415                           ;usb_cdc.c: 178: set_or_clear_request = setup->bRequest;
  9416  002AFC  EE20 F001          	lfsr	2,1
  9417  002B00  5022               	movf	process_cdc_setup_request@setup,w,c
  9418  002B02  26D9               	addwf	fsr2l,f,c
  9419  002B04  5023               	movf	process_cdc_setup_request@setup+1,w,c
  9420  002B06  22DA               	addwfc	fsr2h,f,c
  9421  002B08  50DF               	movf	indf2,w,c
  9422  002B0A  0100               	movlb	0	; () banked
  9423  002B0C  6FF9               	movwf	_set_or_clear_request& (0+255),b
  9424                           
  9425                           ; BSR set to: 0
  9426                           ;usb_cdc.c: 179: usb_start_receive_ep0_data_stage((char*) &transfer_data.comm_feature,
  9427                           ;usb_cdc.c: 180: sizeof(transfer_data.comm_feature),
  9428                           ;usb_cdc.c: 181: set_or_clear_comm_feature_callback,
  9429                           ;usb_cdc.c: 182: (0));
  9430  002B0E  0E1E               	movlw	low _transfer_data
  9431  002B10  6E01               	movwf	usb_start_receive_ep0_data_stage@buffer,c
  9432  002B12  0E01               	movlw	high _transfer_data
  9433  002B14  6E02               	movwf	usb_start_receive_ep0_data_stage@buffer+1,c
  9434  002B16  0E00               	movlw	0
  9435  002B18  6E04               	movwf	usb_start_receive_ep0_data_stage@len+1,c
  9436  002B1A  0E02               	movlw	2
  9437  002B1C  6E03               	movwf	usb_start_receive_ep0_data_stage@len,c
  9438  002B1E  0ED8               	movlw	low _set_or_clear_comm_feature_callback
  9439  002B20  6E05               	movwf	usb_start_receive_ep0_data_stage@callback,c
  9440  002B22  0E44               	movlw	high _set_or_clear_comm_feature_callback
  9441  002B24  6E06               	movwf	usb_start_receive_ep0_data_stage@callback+1,c
  9442  002B26  0E00               	movlw	0
  9443  002B28  6E07               	movwf	usb_start_receive_ep0_data_stage@context,c
  9444  002B2A  0E00               	movlw	0
  9445  002B2C  6E08               	movwf	usb_start_receive_ep0_data_stage@context+1,c
  9446  002B2E  EC82  F024         	call	_usb_start_receive_ep0_data_stage	;wreg free
  9447                           
  9448                           ;usb_cdc.c: 183: return 0;
  9449  002B32  0E00               	movlw	0
  9450  002B34  0012               	return	
  9451  002B36                     i2l2958:
  9452                           
  9453                           ;usb_cdc.c: 184: }
  9454                           ;usb_cdc.c: 188: if (setup->bRequest == CDC_CLEAR_COMM_FEATURE &&
  9455                           ;usb_cdc.c: 189: setup->REQUEST.bmRequestType == 0x21) {
  9456  002B36  EE20 F001          	lfsr	2,1
  9457  002B3A  5022               	movf	process_cdc_setup_request@setup,w,c
  9458  002B3C  26D9               	addwf	fsr2l,f,c
  9459  002B3E  5023               	movf	process_cdc_setup_request@setup+1,w,c
  9460  002B40  22DA               	addwfc	fsr2h,f,c
  9461  002B42  0E04               	movlw	4
  9462  002B44  18DE               	xorwf	postinc2,w,c
  9463  002B46  A4D8               	btfss	status,2,c
  9464  002B48  D033               	goto	i2l2976
  9465  002B4A  C022  FFD9         	movff	process_cdc_setup_request@setup,fsr2l
  9466  002B4E  C023  FFDA         	movff	process_cdc_setup_request@setup+1,fsr2h
  9467  002B52  0E21               	movlw	33
  9468  002B54  18DE               	xorwf	postinc2,w,c
  9469  002B56  A4D8               	btfss	status,2,c
  9470  002B58  D02B               	goto	i2l2976
  9471                           
  9472                           ;usb_cdc.c: 193: if (setup->wValue != CDC_FEATURE_ABSTRACT_STATE)
  9473  002B5A  EE20 F002          	lfsr	2,2
  9474  002B5E  5022               	movf	process_cdc_setup_request@setup,w,c
  9475  002B60  26D9               	addwf	fsr2l,f,c
  9476  002B62  5023               	movf	process_cdc_setup_request@setup+1,w,c
  9477  002B64  22DA               	addwfc	fsr2h,f,c
  9478  002B66  04DE               	decf	postinc2,w,c
  9479  002B68  10DE               	iorwf	postinc2,w,c
  9480  002B6A  B4D8               	btfsc	status,2,c
  9481  002B6C  D002               	goto	i2l399
  9482                           
  9483                           ;usb_cdc.c: 194: return -1;
  9484  002B6E  0EFF               	movlw	255
  9485  002B70  0012               	return	
  9486  002B72                     i2l399:
  9487                           
  9488                           ;usb_cdc.c: 196: transfer_interface = interface;
  9489  002B72  C041  F0FA         	movff	process_cdc_setup_request@interface,_transfer_interface
  9490                           
  9491                           ;usb_cdc.c: 197: set_or_clear_request = setup->bRequest;
  9492  002B76  EE20 F001          	lfsr	2,1
  9493  002B7A  5022               	movf	process_cdc_setup_request@setup,w,c
  9494  002B7C  26D9               	addwf	fsr2l,f,c
  9495  002B7E  5023               	movf	process_cdc_setup_request@setup+1,w,c
  9496  002B80  22DA               	addwfc	fsr2h,f,c
  9497  002B82  50DF               	movf	indf2,w,c
  9498  002B84  0100               	movlb	0	; () banked
  9499  002B86  6FF9               	movwf	_set_or_clear_request& (0+255),b
  9500                           
  9501                           ; BSR set to: 0
  9502                           ;usb_cdc.c: 198: usb_start_receive_ep0_data_stage((char*)&transfer_data.comm_feature,
  9503                           ;usb_cdc.c: 199: sizeof(transfer_data.comm_feature),
  9504                           ;usb_cdc.c: 200: set_or_clear_comm_feature_callback,
  9505                           ;usb_cdc.c: 201: (0));
  9506  002B88  0E1E               	movlw	low _transfer_data
  9507  002B8A  6E01               	movwf	usb_start_receive_ep0_data_stage@buffer,c
  9508  002B8C  0E01               	movlw	high _transfer_data
  9509  002B8E  6E02               	movwf	usb_start_receive_ep0_data_stage@buffer+1,c
  9510  002B90  0E00               	movlw	0
  9511  002B92  6E04               	movwf	usb_start_receive_ep0_data_stage@len+1,c
  9512  002B94  0E02               	movlw	2
  9513  002B96  6E03               	movwf	usb_start_receive_ep0_data_stage@len,c
  9514  002B98  0ED8               	movlw	low _set_or_clear_comm_feature_callback
  9515  002B9A  6E05               	movwf	usb_start_receive_ep0_data_stage@callback,c
  9516  002B9C  0E44               	movlw	high _set_or_clear_comm_feature_callback
  9517  002B9E  6E06               	movwf	usb_start_receive_ep0_data_stage@callback+1,c
  9518  002BA0  0E00               	movlw	0
  9519  002BA2  6E07               	movwf	usb_start_receive_ep0_data_stage@context,c
  9520  002BA4  0E00               	movlw	0
  9521  002BA6  6E08               	movwf	usb_start_receive_ep0_data_stage@context+1,c
  9522  002BA8  EC82  F024         	call	_usb_start_receive_ep0_data_stage	;wreg free
  9523                           
  9524                           ;usb_cdc.c: 202: return 0;
  9525  002BAC  0E00               	movlw	0
  9526  002BAE  0012               	return	
  9527  002BB0                     i2l2976:
  9528                           
  9529                           ;usb_cdc.c: 203: }
  9530                           ;usb_cdc.c: 207: if (setup->bRequest == CDC_GET_COMM_FEATURE &&
  9531                           ;usb_cdc.c: 208: setup->REQUEST.bmRequestType == 0xa1) {
  9532  002BB0  EE20 F001          	lfsr	2,1
  9533  002BB4  5022               	movf	process_cdc_setup_request@setup,w,c
  9534  002BB6  26D9               	addwf	fsr2l,f,c
  9535  002BB8  5023               	movf	process_cdc_setup_request@setup+1,w,c
  9536  002BBA  22DA               	addwfc	fsr2h,f,c
  9537  002BBC  0E03               	movlw	3
  9538  002BBE  18DE               	xorwf	postinc2,w,c
  9539  002BC0  A4D8               	btfss	status,2,c
  9540  002BC2  D066               	goto	i2l3008
  9541  002BC4  C022  FFD9         	movff	process_cdc_setup_request@setup,fsr2l
  9542  002BC8  C023  FFDA         	movff	process_cdc_setup_request@setup+1,fsr2h
  9543  002BCC  0EA1               	movlw	161
  9544  002BCE  18DE               	xorwf	postinc2,w,c
  9545  002BD0  A4D8               	btfss	status,2,c
  9546  002BD2  D05E               	goto	i2l3008
  9547                           
  9548                           ;usb_cdc.c: 209: bool idle_setting;
  9549                           ;usb_cdc.c: 210: bool data_multiplexed_state;
  9550                           ;usb_cdc.c: 211: int8_t res;
  9551                           ;usb_cdc.c: 215: if (setup->wValue != CDC_FEATURE_ABSTRACT_STATE)
  9552  002BD4  EE20 F002          	lfsr	2,2
  9553  002BD8  5022               	movf	process_cdc_setup_request@setup,w,c
  9554  002BDA  26D9               	addwf	fsr2l,f,c
  9555  002BDC  5023               	movf	process_cdc_setup_request@setup+1,w,c
  9556  002BDE  22DA               	addwfc	fsr2h,f,c
  9557  002BE0  04DE               	decf	postinc2,w,c
  9558  002BE2  10DE               	iorwf	postinc2,w,c
  9559  002BE4  B4D8               	btfsc	status,2,c
  9560  002BE6  D002               	goto	i2l2986
  9561                           
  9562                           ;usb_cdc.c: 216: return -1;
  9563  002BE8  0EFF               	movlw	255
  9564  002BEA  0012               	return	
  9565  002BEC                     i2l2986:
  9566                           
  9567                           ;usb_cdc.c: 218: res = app_get_comm_feature_callback(
  9568                           ;usb_cdc.c: 219: interface,
  9569                           ;usb_cdc.c: 220: &idle_setting,
  9570                           ;usb_cdc.c: 221: &data_multiplexed_state);
  9571  002BEC  0E3D               	movlw	low process_cdc_setup_request@idle_setting
  9572  002BEE  6E01               	movwf	app_get_comm_feature_callback@idle_setting,c
  9573  002BF0  0E00               	movlw	high process_cdc_setup_request@idle_setting
  9574  002BF2  6E02               	movwf	app_get_comm_feature_callback@idle_setting+1,c
  9575  002BF4  0E3E               	movlw	low process_cdc_setup_request@data_multiplexed_state
  9576  002BF6  6E03               	movwf	app_get_comm_feature_callback@data_multiplexed_state,c
  9577  002BF8  0E00               	movlw	high process_cdc_setup_request@data_multiplexed_state
  9578  002BFA  6E04               	movwf	app_get_comm_feature_callback@data_multiplexed_state+1,c
  9579  002BFC  5041               	movf	process_cdc_setup_request@interface,w,c
  9580  002BFE  EC16  F025         	call	_app_get_comm_feature_callback
  9581  002C02  6E31               	movwf	process_cdc_setup_request@res_855,c
  9582                           
  9583                           ;usb_cdc.c: 222: if (res < 0)
  9584  002C04  AE31               	btfss	process_cdc_setup_request@res_855,7,c
  9585  002C06  D002               	goto	i2l2994
  9586                           
  9587                           ;usb_cdc.c: 223: return -1;
  9588  002C08  0EFF               	movlw	255
  9589  002C0A  0012               	return	
  9590  002C0C                     i2l2994:
  9591                           
  9592                           ;usb_cdc.c: 225: transfer_data.comm_feature =
  9593                           ;usb_cdc.c: 226: (uint16_t) idle_setting |
  9594                           ;usb_cdc.c: 227: (uint16_t) data_multiplexed_state << 1;
  9595  002C0C  503E               	movf	process_cdc_setup_request@data_multiplexed_state,w,c
  9596  002C0E  6E24               	movwf	??_process_cdc_setup_request& (0+255),c
  9597  002C10  6A25               	clrf	(??_process_cdc_setup_request+1)& (0+255),c
  9598  002C12  90D8               	bcf	status,0,c
  9599  002C14  3624               	rlcf	??_process_cdc_setup_request,f,c
  9600  002C16  3625               	rlcf	??_process_cdc_setup_request+1,f,c
  9601  002C18  503D               	movf	process_cdc_setup_request@idle_setting,w,c
  9602  002C1A  6E26               	movwf	(??_process_cdc_setup_request+2)& (0+255),c
  9603  002C1C  6A27               	clrf	(??_process_cdc_setup_request+3)& (0+255),c
  9604  002C1E  5024               	movf	??_process_cdc_setup_request,w,c
  9605  002C20  1026               	iorwf	??_process_cdc_setup_request+2,w,c
  9606  002C22  0101               	movlb	1	; () banked
  9607  002C24  6F1E               	movwf	_transfer_data& (0+255),b
  9608  002C26  5025               	movf	??_process_cdc_setup_request+1,w,c
  9609  002C28  1027               	iorwf	??_process_cdc_setup_request+3,w,c
  9610  002C2A  0101               	movlb	1	; () banked
  9611  002C2C  6F1F               	movwf	(_transfer_data+1)& (0+255),b
  9612                           
  9613                           ; BSR set to: 1
  9614                           ;usb_cdc.c: 229: usb_send_data_stage((char*)&transfer_data.comm_feature,
  9615                           ;usb_cdc.c: 230: (((setup->wLength) < (sizeof(transfer_data.comm_feature))) ? (setup->wL
      +                          ength) : (sizeof(transfer_data.comm_feature))),
  9616                           ;usb_cdc.c: 232: (0) , (0));
  9617  002C2E  EE20 F006          	lfsr	2,6
  9618  002C32  5022               	movf	process_cdc_setup_request@setup,w,c
  9619  002C34  26D9               	addwf	fsr2l,f,c
  9620  002C36  5023               	movf	process_cdc_setup_request@setup+1,w,c
  9621  002C38  22DA               	addwfc	fsr2h,f,c
  9622  002C3A  0E01               	movlw	1
  9623  002C3C  50DB               	movf	plusw2,w,c
  9624  002C3E  E104               	bnz	i2u245_40
  9625  002C40  0E02               	movlw	2
  9626  002C42  5CDE               	subwf	postinc2,w,c
  9627  002C44  A0D8               	btfss	status,0,c
  9628  002C46  D005               	goto	i2l3000
  9629  002C48                     i2u245_40:
  9630                           
  9631                           ; BSR set to: 1
  9632  002C48  0E00               	movlw	0
  9633  002C4A  6E2B               	movwf	_process_cdc_setup_request$856+1,c
  9634  002C4C  0E02               	movlw	2
  9635  002C4E  6E2A               	movwf	_process_cdc_setup_request$856,c
  9636  002C50  D00B               	goto	i2l3002
  9637  002C52                     i2l3000:
  9638                           
  9639                           ; BSR set to: 1
  9640  002C52  EE20 F006          	lfsr	2,6
  9641  002C56  5022               	movf	process_cdc_setup_request@setup,w,c
  9642  002C58  26D9               	addwf	fsr2l,f,c
  9643  002C5A  5023               	movf	process_cdc_setup_request@setup+1,w,c
  9644  002C5C  22DA               	addwfc	fsr2h,f,c
  9645  002C5E  CFDE F02A          	movff	postinc2,_process_cdc_setup_request$856
  9646  002C62  CFDD F02B          	movff	postdec2,_process_cdc_setup_request$856+1
  9647  002C66  D000               	goto	i2l3002
  9648  002C68                     i2l3002:
  9649                           
  9650                           ; BSR set to: 1
  9651  002C68  0E1E               	movlw	low _transfer_data
  9652  002C6A  6E1A               	movwf	usb_send_data_stage@buffer,c
  9653  002C6C  0E01               	movlw	high _transfer_data
  9654  002C6E  6E1B               	movwf	usb_send_data_stage@buffer+1,c
  9655  002C70  C02A  F01C         	movff	_process_cdc_setup_request$856,usb_send_data_stage@len
  9656  002C74  C02B  F01D         	movff	_process_cdc_setup_request$856+1,usb_send_data_stage@len+1
  9657  002C78  0E00               	movlw	0
  9658  002C7A  6E1E               	movwf	usb_send_data_stage@callback,c
  9659  002C7C  0E00               	movlw	0
  9660  002C7E  6E1F               	movwf	usb_send_data_stage@callback+1,c
  9661  002C80  0E00               	movlw	0
  9662  002C82  6E20               	movwf	usb_send_data_stage@context,c
  9663  002C84  0E00               	movlw	0
  9664  002C86  6E21               	movwf	usb_send_data_stage@context+1,c
  9665  002C88  ECF3  F023         	call	_usb_send_data_stage	;wreg free
  9666                           
  9667                           ;usb_cdc.c: 233: return 0;
  9668  002C8C  0E00               	movlw	0
  9669  002C8E  0012               	return	
  9670  002C90                     i2l3008:
  9671                           
  9672                           ;usb_cdc.c: 234: }
  9673                           ;usb_cdc.c: 238: if (setup->bRequest == CDC_SET_LINE_CODING &&
  9674                           ;usb_cdc.c: 239: setup->REQUEST.bmRequestType == 0x21) {
  9675  002C90  EE20 F001          	lfsr	2,1
  9676  002C94  5022               	movf	process_cdc_setup_request@setup,w,c
  9677  002C96  26D9               	addwf	fsr2l,f,c
  9678  002C98  5023               	movf	process_cdc_setup_request@setup+1,w,c
  9679  002C9A  22DA               	addwfc	fsr2h,f,c
  9680  002C9C  0E20               	movlw	32
  9681  002C9E  18DE               	xorwf	postinc2,w,c
  9682  002CA0  A4D8               	btfss	status,2,c
  9683  002CA2  D03B               	goto	i2l3026
  9684  002CA4  C022  FFD9         	movff	process_cdc_setup_request@setup,fsr2l
  9685  002CA8  C023  FFDA         	movff	process_cdc_setup_request@setup+1,fsr2h
  9686  002CAC  0E21               	movlw	33
  9687  002CAE  18DE               	xorwf	postinc2,w,c
  9688  002CB0  A4D8               	btfss	status,2,c
  9689  002CB2  D033               	goto	i2l3026
  9690                           
  9691                           ;usb_cdc.c: 241: transfer_interface = interface;
  9692  002CB4  C041  F0FA         	movff	process_cdc_setup_request@interface,_transfer_interface
  9693                           
  9694                           ;usb_cdc.c: 242: usb_start_receive_ep0_data_stage(
  9695                           ;usb_cdc.c: 243: (char*)&transfer_data.line_coding,
  9696                           ;usb_cdc.c: 244: (((setup->wLength) < (sizeof(transfer_data.line_coding))) ? (setup->wLe
      +                          ngth) : (sizeof(transfer_data.line_coding))),
  9697                           ;usb_cdc.c: 246: set_line_coding, (0));
  9698  002CB8  EE20 F006          	lfsr	2,6
  9699  002CBC  5022               	movf	process_cdc_setup_request@setup,w,c
  9700  002CBE  26D9               	addwf	fsr2l,f,c
  9701  002CC0  5023               	movf	process_cdc_setup_request@setup+1,w,c
  9702  002CC2  22DA               	addwfc	fsr2h,f,c
  9703  002CC4  0E01               	movlw	1
  9704  002CC6  50DB               	movf	plusw2,w,c
  9705  002CC8  E104               	bnz	i2u248_40
  9706  002CCA  0E07               	movlw	7
  9707  002CCC  5CDE               	subwf	postinc2,w,c
  9708  002CCE  A0D8               	btfss	status,0,c
  9709  002CD0  D005               	goto	i2l3018
  9710  002CD2                     i2u248_40:
  9711  002CD2  0E00               	movlw	0
  9712  002CD4  6E2D               	movwf	_process_cdc_setup_request$857+1,c
  9713  002CD6  0E07               	movlw	7
  9714  002CD8  6E2C               	movwf	_process_cdc_setup_request$857,c
  9715  002CDA  D00B               	goto	i2l3020
  9716  002CDC                     i2l3018:
  9717  002CDC  EE20 F006          	lfsr	2,6
  9718  002CE0  5022               	movf	process_cdc_setup_request@setup,w,c
  9719  002CE2  26D9               	addwf	fsr2l,f,c
  9720  002CE4  5023               	movf	process_cdc_setup_request@setup+1,w,c
  9721  002CE6  22DA               	addwfc	fsr2h,f,c
  9722  002CE8  CFDE F02C          	movff	postinc2,_process_cdc_setup_request$857
  9723  002CEC  CFDD F02D          	movff	postdec2,_process_cdc_setup_request$857+1
  9724  002CF0  D000               	goto	i2l3020
  9725  002CF2                     i2l3020:
  9726  002CF2  0E1E               	movlw	low _transfer_data
  9727  002CF4  6E01               	movwf	usb_start_receive_ep0_data_stage@buffer,c
  9728  002CF6  0E01               	movlw	high _transfer_data
  9729  002CF8  6E02               	movwf	usb_start_receive_ep0_data_stage@buffer+1,c
  9730  002CFA  C02C  F003         	movff	_process_cdc_setup_request$857,usb_start_receive_ep0_data_stage@len
  9731  002CFE  C02D  F004         	movff	_process_cdc_setup_request$857+1,usb_start_receive_ep0_data_stage@len+1
  9732  002D02  0E4C               	movlw	low _set_line_coding
  9733  002D04  6E05               	movwf	usb_start_receive_ep0_data_stage@callback,c
  9734  002D06  0E49               	movlw	high _set_line_coding
  9735  002D08  6E06               	movwf	usb_start_receive_ep0_data_stage@callback+1,c
  9736  002D0A  0E00               	movlw	0
  9737  002D0C  6E07               	movwf	usb_start_receive_ep0_data_stage@context,c
  9738  002D0E  0E00               	movlw	0
  9739  002D10  6E08               	movwf	usb_start_receive_ep0_data_stage@context+1,c
  9740  002D12  EC82  F024         	call	_usb_start_receive_ep0_data_stage	;wreg free
  9741                           
  9742                           ;usb_cdc.c: 247: return 0;
  9743  002D16  0E00               	movlw	0
  9744  002D18  0012               	return	
  9745  002D1A                     i2l3026:
  9746                           
  9747                           ;usb_cdc.c: 248: }
  9748                           ;usb_cdc.c: 252: if (setup->bRequest == CDC_GET_LINE_CODING &&
  9749                           ;usb_cdc.c: 253: setup->REQUEST.bmRequestType == 0xa1) {
  9750  002D1A  EE20 F001          	lfsr	2,1
  9751  002D1E  5022               	movf	process_cdc_setup_request@setup,w,c
  9752  002D20  26D9               	addwf	fsr2l,f,c
  9753  002D22  5023               	movf	process_cdc_setup_request@setup+1,w,c
  9754  002D24  22DA               	addwfc	fsr2h,f,c
  9755  002D26  0E21               	movlw	33
  9756  002D28  18DE               	xorwf	postinc2,w,c
  9757  002D2A  A4D8               	btfss	status,2,c
  9758  002D2C  D045               	goto	i2l3050
  9759  002D2E  C022  FFD9         	movff	process_cdc_setup_request@setup,fsr2l
  9760  002D32  C023  FFDA         	movff	process_cdc_setup_request@setup+1,fsr2h
  9761  002D36  0EA1               	movlw	161
  9762  002D38  18DE               	xorwf	postinc2,w,c
  9763  002D3A  A4D8               	btfss	status,2,c
  9764  002D3C  D03D               	goto	i2l3050
  9765                           
  9766                           ;usb_cdc.c: 254: int8_t res;
  9767                           ;usb_cdc.c: 256: res = app_get_line_coding_callback(
  9768                           ;usb_cdc.c: 257: interface,
  9769                           ;usb_cdc.c: 258: &transfer_data.line_coding);
  9770  002D3E  0E1E               	movlw	low _transfer_data
  9771  002D40  6E01               	movwf	app_get_line_coding_callback@coding,c
  9772  002D42  0E01               	movlw	high _transfer_data
  9773  002D44  6E02               	movwf	app_get_line_coding_callback@coding+1,c
  9774  002D46  5041               	movf	process_cdc_setup_request@interface,w,c
  9775  002D48  EC10  F025         	call	_app_get_line_coding_callback
  9776  002D4C  6E32               	movwf	process_cdc_setup_request@res_858,c
  9777                           
  9778                           ;usb_cdc.c: 259: if (res < 0)
  9779  002D4E  AE32               	btfss	process_cdc_setup_request@res_858,7,c
  9780  002D50  D002               	goto	i2l3038
  9781                           
  9782                           ;usb_cdc.c: 260: return -1;
  9783  002D52  0EFF               	movlw	255
  9784  002D54  0012               	return	
  9785  002D56                     i2l3038:
  9786                           
  9787                           ;usb_cdc.c: 262: usb_send_data_stage((char*)&transfer_data.line_coding,
  9788                           ;usb_cdc.c: 263: (((setup->wLength) < (sizeof(transfer_data.line_coding))) ? (setup->wLe
      +                          ngth) : (sizeof(transfer_data.line_coding))),
  9789                           ;usb_cdc.c: 265: (0), (0));
  9790  002D56  EE20 F006          	lfsr	2,6
  9791  002D5A  5022               	movf	process_cdc_setup_request@setup,w,c
  9792  002D5C  26D9               	addwf	fsr2l,f,c
  9793  002D5E  5023               	movf	process_cdc_setup_request@setup+1,w,c
  9794  002D60  22DA               	addwfc	fsr2h,f,c
  9795  002D62  0E01               	movlw	1
  9796  002D64  50DB               	movf	plusw2,w,c
  9797  002D66  E104               	bnz	i2u252_40
  9798  002D68  0E07               	movlw	7
  9799  002D6A  5CDE               	subwf	postinc2,w,c
  9800  002D6C  A0D8               	btfss	status,0,c
  9801  002D6E  D005               	goto	i2l3042
  9802  002D70                     i2u252_40:
  9803  002D70  0E00               	movlw	0
  9804  002D72  6E2F               	movwf	_process_cdc_setup_request$859+1,c
  9805  002D74  0E07               	movlw	7
  9806  002D76  6E2E               	movwf	_process_cdc_setup_request$859,c
  9807  002D78  D00B               	goto	i2l3044
  9808  002D7A                     i2l3042:
  9809  002D7A  EE20 F006          	lfsr	2,6
  9810  002D7E  5022               	movf	process_cdc_setup_request@setup,w,c
  9811  002D80  26D9               	addwf	fsr2l,f,c
  9812  002D82  5023               	movf	process_cdc_setup_request@setup+1,w,c
  9813  002D84  22DA               	addwfc	fsr2h,f,c
  9814  002D86  CFDE F02E          	movff	postinc2,_process_cdc_setup_request$859
  9815  002D8A  CFDD F02F          	movff	postdec2,_process_cdc_setup_request$859+1
  9816  002D8E  D000               	goto	i2l3044
  9817  002D90                     i2l3044:
  9818  002D90  0E1E               	movlw	low _transfer_data
  9819  002D92  6E1A               	movwf	usb_send_data_stage@buffer,c
  9820  002D94  0E01               	movlw	high _transfer_data
  9821  002D96  6E1B               	movwf	usb_send_data_stage@buffer+1,c
  9822  002D98  C02E  F01C         	movff	_process_cdc_setup_request$859,usb_send_data_stage@len
  9823  002D9C  C02F  F01D         	movff	_process_cdc_setup_request$859+1,usb_send_data_stage@len+1
  9824  002DA0  0E00               	movlw	0
  9825  002DA2  6E1E               	movwf	usb_send_data_stage@callback,c
  9826  002DA4  0E00               	movlw	0
  9827  002DA6  6E1F               	movwf	usb_send_data_stage@callback+1,c
  9828  002DA8  0E00               	movlw	0
  9829  002DAA  6E20               	movwf	usb_send_data_stage@context,c
  9830  002DAC  0E00               	movlw	0
  9831  002DAE  6E21               	movwf	usb_send_data_stage@context+1,c
  9832  002DB0  ECF3  F023         	call	_usb_send_data_stage	;wreg free
  9833                           
  9834                           ;usb_cdc.c: 266: return 0;
  9835  002DB4  0E00               	movlw	0
  9836  002DB6  0012               	return	
  9837  002DB8                     i2l3050:
  9838                           
  9839                           ;usb_cdc.c: 267: }
  9840                           ;usb_cdc.c: 271: if (setup->bRequest == CDC_SET_CONTROL_LINE_STATE &&
  9841                           ;usb_cdc.c: 272: setup->REQUEST.bmRequestType == 0x21) {
  9842  002DB8  EE20 F001          	lfsr	2,1
  9843  002DBC  5022               	movf	process_cdc_setup_request@setup,w,c
  9844  002DBE  26D9               	addwf	fsr2l,f,c
  9845  002DC0  5023               	movf	process_cdc_setup_request@setup+1,w,c
  9846  002DC2  22DA               	addwfc	fsr2h,f,c
  9847  002DC4  0E22               	movlw	34
  9848  002DC6  18DE               	xorwf	postinc2,w,c
  9849  002DC8  A4D8               	btfss	status,2,c
  9850  002DCA  D048               	goto	i2l3070
  9851  002DCC  C022  FFD9         	movff	process_cdc_setup_request@setup,fsr2l
  9852  002DD0  C023  FFDA         	movff	process_cdc_setup_request@setup+1,fsr2h
  9853  002DD4  0E21               	movlw	33
  9854  002DD6  18DE               	xorwf	postinc2,w,c
  9855  002DD8  A4D8               	btfss	status,2,c
  9856  002DDA  D040               	goto	i2l3070
  9857                           
  9858                           ;usb_cdc.c: 273: int8_t res;
  9859                           ;usb_cdc.c: 274: bool dtr = (setup->wValue & 0x1) != 0;
  9860  002DDC  EE20 F002          	lfsr	2,2
  9861  002DE0  5022               	movf	process_cdc_setup_request@setup,w,c
  9862  002DE2  26D9               	addwf	fsr2l,f,c
  9863  002DE4  5023               	movf	process_cdc_setup_request@setup+1,w,c
  9864  002DE6  22DA               	addwfc	fsr2h,f,c
  9865  002DE8  CFDE F024          	movff	postinc2,??_process_cdc_setup_request
  9866  002DEC  CFDD F025          	movff	postdec2,??_process_cdc_setup_request+1
  9867  002DF0  A024               	btfss	??_process_cdc_setup_request,0,c
  9868  002DF2  D002               	goto	i2u255_40
  9869  002DF4  0E01               	movlw	1
  9870  002DF6  D001               	goto	i2u256_40
  9871  002DF8                     i2u255_40:
  9872  002DF8  0E00               	movlw	0
  9873  002DFA                     i2u256_40:
  9874  002DFA  6E34               	movwf	process_cdc_setup_request@dtr,c
  9875                           
  9876                           ;usb_cdc.c: 275: bool rts = (setup->wValue & 0x2) != 0;
  9877  002DFC  EE20 F002          	lfsr	2,2
  9878  002E00  5022               	movf	process_cdc_setup_request@setup,w,c
  9879  002E02  26D9               	addwf	fsr2l,f,c
  9880  002E04  5023               	movf	process_cdc_setup_request@setup+1,w,c
  9881  002E06  22DA               	addwfc	fsr2h,f,c
  9882  002E08  CFDE F024          	movff	postinc2,??_process_cdc_setup_request
  9883  002E0C  CFDD F025          	movff	postdec2,??_process_cdc_setup_request+1
  9884  002E10  A224               	btfss	??_process_cdc_setup_request,1,c
  9885  002E12  D002               	goto	i2u257_40
  9886  002E14  0E01               	movlw	1
  9887  002E16  D001               	goto	i2u258_40
  9888  002E18                     i2u257_40:
  9889  002E18  0E00               	movlw	0
  9890  002E1A                     i2u258_40:
  9891  002E1A  6E35               	movwf	process_cdc_setup_request@rts,c
  9892                           
  9893                           ;usb_cdc.c: 277: res = app_set_control_line_state_callback(interface, dtr, rts);
  9894  002E1C  C034  F001         	movff	process_cdc_setup_request@dtr,app_set_control_line_state_callback@dtr
  9895  002E20  C035  F002         	movff	process_cdc_setup_request@rts,app_set_control_line_state_callback@dts
  9896  002E24  5041               	movf	process_cdc_setup_request@interface,w,c
  9897  002E26  EC07  F025         	call	_app_set_control_line_state_callback
  9898  002E2A  6E33               	movwf	process_cdc_setup_request@res_860,c
  9899                           
  9900                           ;usb_cdc.c: 278: if (res < 0)
  9901  002E2C  AE33               	btfss	process_cdc_setup_request@res_860,7,c
  9902  002E2E  D002               	goto	i2l3064
  9903                           
  9904                           ;usb_cdc.c: 279: return -1;
  9905  002E30  0EFF               	movlw	255
  9906  002E32  0012               	return	
  9907  002E34                     i2l3064:
  9908                           
  9909                           ;usb_cdc.c: 282: usb_send_data_stage((0), 0, (0), (0));
  9910  002E34  0E00               	movlw	0
  9911  002E36  6E1A               	movwf	usb_send_data_stage@buffer,c
  9912  002E38  0E00               	movlw	0
  9913  002E3A  6E1B               	movwf	usb_send_data_stage@buffer+1,c
  9914  002E3C  0E00               	movlw	0
  9915  002E3E  6E1D               	movwf	usb_send_data_stage@len+1,c
  9916  002E40  0E00               	movlw	0
  9917  002E42  6E1C               	movwf	usb_send_data_stage@len,c
  9918  002E44  0E00               	movlw	0
  9919  002E46  6E1E               	movwf	usb_send_data_stage@callback,c
  9920  002E48  0E00               	movlw	0
  9921  002E4A  6E1F               	movwf	usb_send_data_stage@callback+1,c
  9922  002E4C  0E00               	movlw	0
  9923  002E4E  6E20               	movwf	usb_send_data_stage@context,c
  9924  002E50  0E00               	movlw	0
  9925  002E52  6E21               	movwf	usb_send_data_stage@context+1,c
  9926  002E54  ECF3  F023         	call	_usb_send_data_stage	;wreg free
  9927                           
  9928                           ;usb_cdc.c: 284: return 0;
  9929  002E58  0E00               	movlw	0
  9930  002E5A  0012               	return	
  9931  002E5C                     i2l3070:
  9932                           
  9933                           ;usb_cdc.c: 285: }
  9934                           ;usb_cdc.c: 289: if (setup->bRequest == CDC_SEND_BREAK &&
  9935                           ;usb_cdc.c: 290: setup->REQUEST.bmRequestType == 0x21) {
  9936  002E5C  EE20 F001          	lfsr	2,1
  9937  002E60  5022               	movf	process_cdc_setup_request@setup,w,c
  9938  002E62  26D9               	addwf	fsr2l,f,c
  9939  002E64  5023               	movf	process_cdc_setup_request@setup+1,w,c
  9940  002E66  22DA               	addwfc	fsr2h,f,c
  9941  002E68  0E23               	movlw	35
  9942  002E6A  18DE               	xorwf	postinc2,w,c
  9943  002E6C  A4D8               	btfss	status,2,c
  9944  002E6E  D02E               	goto	i2l3088
  9945  002E70  C022  FFD9         	movff	process_cdc_setup_request@setup,fsr2l
  9946  002E74  C023  FFDA         	movff	process_cdc_setup_request@setup+1,fsr2h
  9947  002E78  0E21               	movlw	33
  9948  002E7A  18DE               	xorwf	postinc2,w,c
  9949  002E7C  A4D8               	btfss	status,2,c
  9950  002E7E  D026               	goto	i2l3088
  9951                           
  9952                           ;usb_cdc.c: 291: int8_t res;
  9953                           ;usb_cdc.c: 293: res = app_send_break_callback(interface,
  9954                           ;usb_cdc.c: 294: setup->wValue );
  9955  002E80  EE20 F002          	lfsr	2,2
  9956  002E84  5022               	movf	process_cdc_setup_request@setup,w,c
  9957  002E86  26D9               	addwf	fsr2l,f,c
  9958  002E88  5023               	movf	process_cdc_setup_request@setup+1,w,c
  9959  002E8A  22DA               	addwfc	fsr2h,f,c
  9960  002E8C  CFDE F001          	movff	postinc2,app_send_break_callback@duration
  9961  002E90  CFDD F002          	movff	postdec2,app_send_break_callback@duration+1
  9962  002E94  5041               	movf	process_cdc_setup_request@interface,w,c
  9963  002E96  EC0D  F025         	call	_app_send_break_callback
  9964  002E9A  6E36               	movwf	process_cdc_setup_request@res_863,c
  9965                           
  9966                           ;usb_cdc.c: 295: if (res < 0)
  9967  002E9C  AE36               	btfss	process_cdc_setup_request@res_863,7,c
  9968  002E9E  D002               	goto	i2l3082
  9969                           
  9970                           ;usb_cdc.c: 296: return -1;
  9971  002EA0  0EFF               	movlw	255
  9972  002EA2  0012               	return	
  9973  002EA4                     i2l3082:
  9974                           
  9975                           ;usb_cdc.c: 299: usb_send_data_stage((0), 0, (0), (0));
  9976  002EA4  0E00               	movlw	0
  9977  002EA6  6E1A               	movwf	usb_send_data_stage@buffer,c
  9978  002EA8  0E00               	movlw	0
  9979  002EAA  6E1B               	movwf	usb_send_data_stage@buffer+1,c
  9980  002EAC  0E00               	movlw	0
  9981  002EAE  6E1D               	movwf	usb_send_data_stage@len+1,c
  9982  002EB0  0E00               	movlw	0
  9983  002EB2  6E1C               	movwf	usb_send_data_stage@len,c
  9984  002EB4  0E00               	movlw	0
  9985  002EB6  6E1E               	movwf	usb_send_data_stage@callback,c
  9986  002EB8  0E00               	movlw	0
  9987  002EBA  6E1F               	movwf	usb_send_data_stage@callback+1,c
  9988  002EBC  0E00               	movlw	0
  9989  002EBE  6E20               	movwf	usb_send_data_stage@context,c
  9990  002EC0  0E00               	movlw	0
  9991  002EC2  6E21               	movwf	usb_send_data_stage@context+1,c
  9992  002EC4  ECF3  F023         	call	_usb_send_data_stage	;wreg free
  9993                           
  9994                           ;usb_cdc.c: 301: return 0;
  9995  002EC8  0E00               	movlw	0
  9996  002ECA  0012               	return	
  9997  002ECC                     i2l3088:
  9998                           
  9999                           ;usb_cdc.c: 302: }
 10000                           ;usb_cdc.c: 305: return -1;
 10001  002ECC  0EFF               	movlw	255
 10002  002ECE  0012               	return	
 10003  002ED0  0012               	return		;funcret
 10004  002ED2                     __end_of_process_cdc_setup_request:
 10005                           	opt stack 0
 10006                           tosu	equ	0xFFF
 10007                           tosh	equ	0xFFE
 10008                           tosl	equ	0xFFD
 10009                           pclatu	equ	0xFFB
 10010                           pclath	equ	0xFFA
 10011                           tblptru	equ	0xFF8
 10012                           tblptrh	equ	0xFF7
 10013                           tblptrl	equ	0xFF6
 10014                           tablat	equ	0xFF5
 10015                           prodh	equ	0xFF4
 10016                           prodl	equ	0xFF3
 10017                           intcon	equ	0xFF2
 10018                           postinc0	equ	0xFEE
 10019                           fsr0h	equ	0xFEA
 10020                           fsr0l	equ	0xFE9
 10021                           wreg	equ	0xFE8
 10022                           indf1	equ	0xFE7
 10023                           postinc1	equ	0xFE6
 10024                           postdec1	equ	0xFE5
 10025                           fsr1h	equ	0xFE2
 10026                           fsr1l	equ	0xFE1
 10027                           indf2	equ	0xFDF
 10028                           postinc2	equ	0xFDE
 10029                           postdec2	equ	0xFDD
 10030                           plusw2	equ	0xFDB
 10031                           fsr2h	equ	0xFDA
 10032                           fsr2l	equ	0xFD9
 10033                           status	equ	0xFD8
 10034                           
 10035 ;; *************** function _usb_start_receive_ep0_data_stage *****************
 10036 ;; Defined at:
 10037 ;;		line 1568 in file "usb.c"
 10038 ;; Parameters:    Size  Location     Type
 10039 ;;  buffer          2    0[COMRAM] PTR unsigned char 
 10040 ;;		 -> transfer_data(7), 
 10041 ;;  len             2    2[COMRAM] unsigned int 
 10042 ;;  callback        2    4[COMRAM] PTR FTN(unsigned char ,P
 10043 ;;		 -> set_line_coding(0), set_or_clear_comm_feature_callback(0), 
 10044 ;;  context         2    6[COMRAM] PTR void 
 10045 ;;		 -> NULL(0), 
 10046 ;; Auto vars:     Size  Location     Type
 10047 ;;		None
 10048 ;; Return value:  Size  Location     Type
 10049 ;;		None               void
 10050 ;; Registers used:
 10051 ;;		wreg, status,2, status,0, cstack
 10052 ;; Tracked objects:
 10053 ;;		On entry : 0/0
 10054 ;;		On exit  : 0/0
 10055 ;;		Unchanged: 0/0
 10056 ;; Data sizes:     COMRAM   BANK0   BANK1   BANK2   BANK3   BANK4   BANK5   BANK6   BANK7
 10057 ;;      Params:         8       0       0       0       0       0       0       0       0
 10058 ;;      Locals:         0       0       0       0       0       0       0       0       0
 10059 ;;      Temps:          0       0       0       0       0       0       0       0       0
 10060 ;;      Totals:         8       0       0       0       0       0       0       0       0
 10061 ;;Total ram usage:        8 bytes
 10062 ;; Hardware stack levels used:    1
 10063 ;; Hardware stack levels required when called:    1
 10064 ;; This function calls:
 10065 ;;		i2_reset_ep0_data_stage
 10066 ;; This function is called by:
 10067 ;;		_process_cdc_setup_request
 10068 ;; This function uses a non-reentrant model
 10069 ;;
 10070                           
 10071                           	psect	text42
 10072  004904                     __ptext42:
 10073                           	opt stack 0
 10074  004904                     _usb_start_receive_ep0_data_stage:
 10075                           	opt stack 21
 10076                           
 10077                           ;usb.c: 1571: reset_ep0_data_stage();
 10078                           
 10079                           ;incstack = 0
 10080  004904  EC34  F024         	call	i2_reset_ep0_data_stage	;wreg free
 10081                           
 10082                           ;usb.c: 1573: ep0_data_stage_callback = callback;
 10083  004908  C005  F05D         	movff	usb_start_receive_ep0_data_stage@callback,_ep0_data_stage_callback
 10084  00490C  C006  F05E         	movff	usb_start_receive_ep0_data_stage@callback+1,_ep0_data_stage_callback+1
 10085                           
 10086                           ;usb.c: 1574: ep0_data_stage_out_buffer = buffer;
 10087  004910  C001  F119         	movff	usb_start_receive_ep0_data_stage@buffer,_ep0_data_stage_out_buffer
 10088  004914  C002  F11A         	movff	usb_start_receive_ep0_data_stage@buffer+1,_ep0_data_stage_out_buffer+1
 10089                           
 10090                           ;usb.c: 1575: ep0_data_stage_buf_remaining = len;
 10091  004918  C003  F05B         	movff	usb_start_receive_ep0_data_stage@len,_ep0_data_stage_buf_remaining
 10092  00491C  C004  F05C         	movff	usb_start_receive_ep0_data_stage@len+1,_ep0_data_stage_buf_remaining+1
 10093                           
 10094                           ;usb.c: 1576: ep0_data_stage_context = context;
 10095  004920  C007  F0F0         	movff	usb_start_receive_ep0_data_stage@context,_ep0_data_stage_context
 10096  004924  C008  F0F1         	movff	usb_start_receive_ep0_data_stage@context+1,_ep0_data_stage_context+1
 10097  004928  0012               	return		;funcret
 10098  00492A                     __end_of_usb_start_receive_ep0_data_stage:
 10099                           	opt stack 0
 10100                           tosu	equ	0xFFF
 10101                           tosh	equ	0xFFE
 10102                           tosl	equ	0xFFD
 10103                           pclatu	equ	0xFFB
 10104                           pclath	equ	0xFFA
 10105                           tblptru	equ	0xFF8
 10106                           tblptrh	equ	0xFF7
 10107                           tblptrl	equ	0xFF6
 10108                           tablat	equ	0xFF5
 10109                           prodh	equ	0xFF4
 10110                           prodl	equ	0xFF3
 10111                           intcon	equ	0xFF2
 10112                           postinc0	equ	0xFEE
 10113                           fsr0h	equ	0xFEA
 10114                           fsr0l	equ	0xFE9
 10115                           wreg	equ	0xFE8
 10116                           indf1	equ	0xFE7
 10117                           postinc1	equ	0xFE6
 10118                           postdec1	equ	0xFE5
 10119                           fsr1h	equ	0xFE2
 10120                           fsr1l	equ	0xFE1
 10121                           indf2	equ	0xFDF
 10122                           postinc2	equ	0xFDE
 10123                           postdec2	equ	0xFDD
 10124                           plusw2	equ	0xFDB
 10125                           fsr2h	equ	0xFDA
 10126                           fsr2l	equ	0xFD9
 10127                           status	equ	0xFD8
 10128                           
 10129 ;; *************** function _usb_send_data_stage *****************
 10130 ;; Defined at:
 10131 ;;		line 1579 in file "usb.c"
 10132 ;; Parameters:    Size  Location     Type
 10133 ;;  buffer          2   25[COMRAM] PTR unsigned char 
 10134 ;;		 -> transfer_data(7), NULL(0), 
 10135 ;;  len             2   27[COMRAM] unsigned int 
 10136 ;;  callback        2   29[COMRAM] PTR FTN(unsigned char ,P
 10137 ;;		 -> Absolute function(0), 
 10138 ;;  context         2   31[COMRAM] PTR void 
 10139 ;;		 -> NULL(0), 
 10140 ;; Auto vars:     Size  Location     Type
 10141 ;;		None
 10142 ;; Return value:  Size  Location     Type
 10143 ;;		None               void
 10144 ;; Registers used:
 10145 ;;		wreg, fsr1l, fsr1h, fsr2l, fsr2h, status,2, status,0, tblptrl, tblptrh, tblptru, prodl, prodh, cstack
 10146 ;; Tracked objects:
 10147 ;;		On entry : 0/0
 10148 ;;		On exit  : 0/0
 10149 ;;		Unchanged: 0/0
 10150 ;; Data sizes:     COMRAM   BANK0   BANK1   BANK2   BANK3   BANK4   BANK5   BANK6   BANK7
 10151 ;;      Params:         8       0       0       0       0       0       0       0       0
 10152 ;;      Locals:         0       0       0       0       0       0       0       0       0
 10153 ;;      Temps:          0       0       0       0       0       0       0       0       0
 10154 ;;      Totals:         8       0       0       0       0       0       0       0       0
 10155 ;;Total ram usage:        8 bytes
 10156 ;; Hardware stack levels used:    1
 10157 ;; Hardware stack levels required when called:    3
 10158 ;; This function calls:
 10159 ;;		_start_control_return
 10160 ;; This function is called by:
 10161 ;;		_process_cdc_setup_request
 10162 ;; This function uses a non-reentrant model
 10163 ;;
 10164                           
 10165                           	psect	text43
 10166  0047E6                     __ptext43:
 10167                           	opt stack 0
 10168  0047E6                     _usb_send_data_stage:
 10169                           	opt stack 19
 10170                           
 10171                           ;usb.c: 1584: ep0_data_stage_callback = callback;
 10172                           
 10173                           ;incstack = 0
 10174  0047E6  C01E  F05D         	movff	usb_send_data_stage@callback,_ep0_data_stage_callback
 10175  0047EA  C01F  F05E         	movff	usb_send_data_stage@callback+1,_ep0_data_stage_callback+1
 10176                           
 10177                           ;usb.c: 1585: ep0_data_stage_context = context;
 10178  0047EE  C020  F0F0         	movff	usb_send_data_stage@context,_ep0_data_stage_context
 10179  0047F2  C021  F0F1         	movff	usb_send_data_stage@context+1,_ep0_data_stage_context+1
 10180                           
 10181                           ;usb.c: 1586: start_control_return(buffer, len, len);
 10182  0047F6  C01A  F00B         	movff	usb_send_data_stage@buffer,start_control_return@ptr
 10183  0047FA  C01B  F00C         	movff	usb_send_data_stage@buffer+1,start_control_return@ptr+1
 10184  0047FE  C01C  F00D         	movff	usb_send_data_stage@len,start_control_return@len
 10185  004802  C01D  F00E         	movff	usb_send_data_stage@len+1,start_control_return@len+1
 10186  004806  C01C  F00F         	movff	usb_send_data_stage@len,start_control_return@bytes_asked_for
 10187  00480A  C01D  F010         	movff	usb_send_data_stage@len+1,start_control_return@bytes_asked_for+1
 10188  00480E  EC6B  F020         	call	_start_control_return	;wreg free
 10189  004812  0012               	return		;funcret
 10190  004814                     __end_of_usb_send_data_stage:
 10191                           	opt stack 0
 10192                           tosu	equ	0xFFF
 10193                           tosh	equ	0xFFE
 10194                           tosl	equ	0xFFD
 10195                           pclatu	equ	0xFFB
 10196                           pclath	equ	0xFFA
 10197                           tblptru	equ	0xFF8
 10198                           tblptrh	equ	0xFF7
 10199                           tblptrl	equ	0xFF6
 10200                           tablat	equ	0xFF5
 10201                           prodh	equ	0xFF4
 10202                           prodl	equ	0xFF3
 10203                           intcon	equ	0xFF2
 10204                           postinc0	equ	0xFEE
 10205                           fsr0h	equ	0xFEA
 10206                           fsr0l	equ	0xFE9
 10207                           wreg	equ	0xFE8
 10208                           indf1	equ	0xFE7
 10209                           postinc1	equ	0xFE6
 10210                           postdec1	equ	0xFE5
 10211                           fsr1h	equ	0xFE2
 10212                           fsr1l	equ	0xFE1
 10213                           indf2	equ	0xFDF
 10214                           postinc2	equ	0xFDE
 10215                           postdec2	equ	0xFDD
 10216                           plusw2	equ	0xFDB
 10217                           fsr2h	equ	0xFDA
 10218                           fsr2l	equ	0xFD9
 10219                           status	equ	0xFD8
 10220                           
 10221 ;; *************** function _start_control_return *****************
 10222 ;; Defined at:
 10223 ;;		line 811 in file "usb.c"
 10224 ;; Parameters:    Size  Location     Type
 10225 ;;  ptr             2   10[COMRAM] PTR const void 
 10226 ;;		 -> fake_serial_num(120), cdc_data_string(38), cdc_interface_string(28), product_string(26), 
 10227 ;;		 -> vendor_string(48), str00(4), configuration_1(70), transfer_data(7), 
 10228 ;;		 -> handle_standard_control_request@ret_593(1), handle_standard_control_request@ret_590(2), handle_standard_control_
      +request@ret(2), this_device_descriptor(18), 
 10229 ;;		 -> g_configuration(1), NULL(0), 
 10230 ;;  len             2   12[COMRAM] unsigned int 
 10231 ;;  bytes_asked_    2   14[COMRAM] unsigned int 
 10232 ;; Auto vars:     Size  Location     Type
 10233 ;;  bytes_to_sen    1   24[COMRAM] unsigned char 
 10234 ;; Return value:  Size  Location     Type
 10235 ;;		None               void
 10236 ;; Registers used:
 10237 ;;		wreg, fsr1l, fsr1h, fsr2l, fsr2h, status,2, status,0, tblptrl, tblptrh, tblptru, prodl, prodh, cstack
 10238 ;; Tracked objects:
 10239 ;;		On entry : 0/0
 10240 ;;		On exit  : 0/0
 10241 ;;		Unchanged: 0/0
 10242 ;; Data sizes:     COMRAM   BANK0   BANK1   BANK2   BANK3   BANK4   BANK5   BANK6   BANK7
 10243 ;;      Params:         6       0       0       0       0       0       0       0       0
 10244 ;;      Locals:         7       0       0       0       0       0       0       0       0
 10245 ;;      Temps:          2       0       0       0       0       0       0       0       0
 10246 ;;      Totals:        15       0       0       0       0       0       0       0       0
 10247 ;;Total ram usage:       15 bytes
 10248 ;; Hardware stack levels used:    1
 10249 ;; Hardware stack levels required when called:    2
 10250 ;; This function calls:
 10251 ;;		_usb_send_in_buffer_0
 10252 ;;		i2_memcpy
 10253 ;; This function is called by:
 10254 ;;		_handle_standard_control_request
 10255 ;;		_usb_send_data_stage
 10256 ;; This function uses a non-reentrant model
 10257 ;;
 10258                           
 10259                           	psect	text44
 10260  0040D6                     __ptext44:
 10261                           	opt stack 0
 10262  0040D6                     _start_control_return:
 10263                           	opt stack 21
 10264                           
 10265                           ;usb.c: 813: uint8_t bytes_to_send = (((len)<(8))?(len):(8));
 10266                           
 10267                           ;incstack = 0
 10268  0040D6  500E               	movf	start_control_return@len+1,w,c
 10269  0040D8  E104               	bnz	i2u217_40
 10270  0040DA  0E08               	movlw	8
 10271  0040DC  5C0D               	subwf	start_control_return@len,w,c
 10272  0040DE  A0D8               	btfss	status,0,c
 10273  0040E0  D005               	goto	i2l154
 10274  0040E2                     i2u217_40:
 10275  0040E2  0E00               	movlw	0
 10276  0040E4  6E14               	movwf	_start_control_return$547+1,c
 10277  0040E6  0E08               	movlw	8
 10278  0040E8  6E13               	movwf	_start_control_return$547,c
 10279  0040EA  D004               	goto	i2l156
 10280  0040EC                     i2l154:
 10281  0040EC  C00D  F013         	movff	start_control_return@len,_start_control_return$547
 10282  0040F0  C00E  F014         	movff	start_control_return@len+1,_start_control_return$547+1
 10283  0040F4                     i2l156:
 10284  0040F4  C013  F019         	movff	_start_control_return$547,start_control_return@bytes_to_send
 10285                           
 10286                           ;usb.c: 814: bytes_to_send = (((bytes_to_send)<(bytes_asked_for))?(bytes_to_send):(bytes
      +                          _asked_for));
 10287  0040F8  5019               	movf	start_control_return@bytes_to_send,w,c
 10288  0040FA  6E11               	movwf	??_start_control_return& (0+255),c
 10289  0040FC  6A12               	clrf	(??_start_control_return+1)& (0+255),c
 10290  0040FE  500F               	movf	start_control_return@bytes_asked_for,w,c
 10291  004100  5C11               	subwf	??_start_control_return,w,c
 10292  004102  5010               	movf	start_control_return@bytes_asked_for+1,w,c
 10293  004104  5812               	subwfb	??_start_control_return+1,w,c
 10294  004106  A0D8               	btfss	status,0,c
 10295  004108  D005               	goto	i2l158
 10296  00410A  C00F  F015         	movff	start_control_return@bytes_asked_for,_start_control_return$548
 10297  00410E  C010  F016         	movff	start_control_return@bytes_asked_for+1,_start_control_return$548+1
 10298  004112  D003               	goto	i2l160
 10299  004114                     i2l158:
 10300  004114  C019  F015         	movff	start_control_return@bytes_to_send,_start_control_return$548
 10301  004118  6A16               	clrf	_start_control_return$548+1,c
 10302  00411A                     i2l160:
 10303  00411A  C015  F019         	movff	_start_control_return$548,start_control_return@bytes_to_send
 10304                           
 10305                           ;usb.c: 815: returning_short = len < bytes_asked_for;
 10306  00411E  500F               	movf	start_control_return@bytes_asked_for,w,c
 10307  004120  5C0D               	subwf	start_control_return@len,w,c
 10308  004122  5010               	movf	start_control_return@bytes_asked_for+1,w,c
 10309  004124  580E               	subwfb	start_control_return@len+1,w,c
 10310  004126  B0D8               	btfsc	status,0,c
 10311  004128  D002               	goto	i2u219_40
 10312  00412A  0E01               	movlw	1
 10313  00412C  D001               	goto	i2u220_40
 10314  00412E                     i2u219_40:
 10315  00412E  0E00               	movlw	0
 10316  004130                     i2u220_40:
 10317  004130  0100               	movlb	0	; () banked
 10318  004132  6FF7               	movwf	_returning_short& (0+255),b
 10319                           
 10320                           ; BSR set to: 0
 10321                           ;usb.c: 816: memcpy(ep0_buf.in,ptr,bytes_to_send);;
 10322  004134  C0FD  F001         	movff	_ep0_buf+2,i2memcpy@d1
 10323  004138  C0FE  F002         	movff	_ep0_buf+3,i2memcpy@d1+1
 10324  00413C  C00B  F003         	movff	start_control_return@ptr,i2memcpy@s1
 10325  004140  C00C  F004         	movff	start_control_return@ptr+1,i2memcpy@s1+1
 10326  004144  C019  F005         	movff	start_control_return@bytes_to_send,i2memcpy@n
 10327  004148  6A06               	clrf	i2memcpy@n+1,c
 10328  00414A  EC40  F022         	call	i2_memcpy	;wreg free
 10329                           
 10330                           ;usb.c: 817: ep0_data_stage_in_buffer = ((char*)ptr) + bytes_to_send;
 10331  00414E  5019               	movf	start_control_return@bytes_to_send,w,c
 10332  004150  0D01               	mullw	1
 10333  004152  50F3               	movf	prodl,w,c
 10334  004154  240B               	addwf	start_control_return@ptr,w,c
 10335  004156  0101               	movlb	1	; () banked
 10336  004158  6F17               	movwf	_ep0_data_stage_in_buffer& (0+255),b
 10337  00415A  50F4               	movf	prodh,w,c
 10338  00415C  200C               	addwfc	start_control_return@ptr+1,w,c
 10339  00415E  0101               	movlb	1	; () banked
 10340  004160  6F18               	movwf	(_ep0_data_stage_in_buffer+1)& (0+255),b
 10341                           
 10342                           ; BSR set to: 1
 10343                           ;usb.c: 818: ep0_data_stage_buf_remaining = (((bytes_asked_for)<(len))?(bytes_asked_for)
      +                          :(len)) - bytes_to_send;
 10344  004162  500D               	movf	start_control_return@len,w,c
 10345  004164  5C0F               	subwf	start_control_return@bytes_asked_for,w,c
 10346  004166  500E               	movf	start_control_return@len+1,w,c
 10347  004168  5810               	subwfb	start_control_return@bytes_asked_for+1,w,c
 10348  00416A  A0D8               	btfss	status,0,c
 10349  00416C  D005               	goto	i2l162
 10350                           
 10351                           ; BSR set to: 1
 10352  00416E  C00D  F017         	movff	start_control_return@len,_start_control_return$549
 10353  004172  C00E  F018         	movff	start_control_return@len+1,_start_control_return$549+1
 10354  004176  D005               	goto	i2l2772
 10355  004178                     i2l162:
 10356                           
 10357                           ; BSR set to: 1
 10358  004178  C00F  F017         	movff	start_control_return@bytes_asked_for,_start_control_return$549
 10359  00417C  C010  F018         	movff	start_control_return@bytes_asked_for+1,_start_control_return$549+1
 10360  004180  D000               	goto	i2l2772
 10361  004182                     i2l2772:
 10362                           
 10363                           ; BSR set to: 1
 10364  004182  5019               	movf	start_control_return@bytes_to_send,w,c
 10365  004184  6E11               	movwf	??_start_control_return& (0+255),c
 10366  004186  6A12               	clrf	(??_start_control_return+1)& (0+255),c
 10367  004188  1E11               	comf	??_start_control_return,f,c
 10368  00418A  1E12               	comf	??_start_control_return+1,f,c
 10369  00418C  4A11               	infsnz	??_start_control_return,f,c
 10370  00418E  2A12               	incf	??_start_control_return+1,f,c
 10371  004190  5017               	movf	_start_control_return$549,w,c
 10372  004192  2411               	addwf	??_start_control_return,w,c
 10373  004194  6E5B               	movwf	_ep0_data_stage_buf_remaining,c
 10374  004196  5018               	movf	_start_control_return$549+1,w,c
 10375  004198  2012               	addwfc	??_start_control_return+1,w,c
 10376  00419A  6E5C               	movwf	_ep0_data_stage_buf_remaining+1,c
 10377                           
 10378                           ; BSR set to: 1
 10379                           ;usb.c: 821: ep0_buf.flags |= 0x8;
 10380  00419C  0100               	movlb	0	; () banked
 10381  00419E  87FF               	bsf	(_ep0_buf+4)& (0+255),3,b
 10382                           
 10383                           ; BSR set to: 0
 10384                           ;usb.c: 822: usb_send_in_buffer_0(bytes_to_send);
 10385  0041A0  C019  F002         	movff	start_control_return@bytes_to_send,usb_send_in_buffer_0@len
 10386  0041A4  6A03               	clrf	usb_send_in_buffer_0@len+1,c
 10387  0041A6  EC35  F023         	call	_usb_send_in_buffer_0	;wreg free
 10388  0041AA  0012               	return		;funcret
 10389  0041AC                     __end_of_start_control_return:
 10390                           	opt stack 0
 10391                           tosu	equ	0xFFF
 10392                           tosh	equ	0xFFE
 10393                           tosl	equ	0xFFD
 10394                           pclatu	equ	0xFFB
 10395                           pclath	equ	0xFFA
 10396                           tblptru	equ	0xFF8
 10397                           tblptrh	equ	0xFF7
 10398                           tblptrl	equ	0xFF6
 10399                           tablat	equ	0xFF5
 10400                           prodh	equ	0xFF4
 10401                           prodl	equ	0xFF3
 10402                           intcon	equ	0xFF2
 10403                           postinc0	equ	0xFEE
 10404                           fsr0h	equ	0xFEA
 10405                           fsr0l	equ	0xFE9
 10406                           wreg	equ	0xFE8
 10407                           indf1	equ	0xFE7
 10408                           postinc1	equ	0xFE6
 10409                           postdec1	equ	0xFE5
 10410                           fsr1h	equ	0xFE2
 10411                           fsr1l	equ	0xFE1
 10412                           indf2	equ	0xFDF
 10413                           postinc2	equ	0xFDE
 10414                           postdec2	equ	0xFDD
 10415                           plusw2	equ	0xFDB
 10416                           fsr2h	equ	0xFDA
 10417                           fsr2l	equ	0xFD9
 10418                           status	equ	0xFD8
 10419                           
 10420 ;; *************** function _app_set_control_line_state_callback *****************
 10421 ;; Defined at:
 10422 ;;		line 360 in file "main.c"
 10423 ;; Parameters:    Size  Location     Type
 10424 ;;  interface       1    wreg     unsigned char 
 10425 ;;  dtr             1    0[COMRAM] unsigned char 
 10426 ;;  dts             1    1[COMRAM] unsigned char 
 10427 ;; Auto vars:     Size  Location     Type
 10428 ;;  interface       1    0[COMRAM] unsigned char 
 10429 ;; Return value:  Size  Location     Type
 10430 ;;                  1    wreg      char 
 10431 ;; Registers used:
 10432 ;;		wreg
 10433 ;; Tracked objects:
 10434 ;;		On entry : 0/0
 10435 ;;		On exit  : 0/0
 10436 ;;		Unchanged: 0/0
 10437 ;; Data sizes:     COMRAM   BANK0   BANK1   BANK2   BANK3   BANK4   BANK5   BANK6   BANK7
 10438 ;;      Params:         2       0       0       0       0       0       0       0       0
 10439 ;;      Locals:         0       0       0       0       0       0       0       0       0
 10440 ;;      Temps:          0       0       0       0       0       0       0       0       0
 10441 ;;      Totals:         2       0       0       0       0       0       0       0       0
 10442 ;;Total ram usage:        2 bytes
 10443 ;; Hardware stack levels used:    1
 10444 ;; This function calls:
 10445 ;;		Nothing
 10446 ;; This function is called by:
 10447 ;;		_process_cdc_setup_request
 10448 ;; This function uses a non-reentrant model
 10449 ;;
 10450                           
 10451                           	psect	text45
 10452  004A0E                     __ptext45:
 10453                           	opt stack 0
 10454  004A0E                     _app_set_control_line_state_callback:
 10455                           	opt stack 22
 10456                           
 10457                           ;main.c: 363: return 0;
 10458                           
 10459                           ;incstack = 0
 10460  004A0E  0E00               	movlw	0
 10461  004A10  0012               	return	
 10462  004A12  0012               	return		;funcret
 10463  004A14                     __end_of_app_set_control_line_state_callback:
 10464                           	opt stack 0
 10465                           tosu	equ	0xFFF
 10466                           tosh	equ	0xFFE
 10467                           tosl	equ	0xFFD
 10468                           pclatu	equ	0xFFB
 10469                           pclath	equ	0xFFA
 10470                           tblptru	equ	0xFF8
 10471                           tblptrh	equ	0xFF7
 10472                           tblptrl	equ	0xFF6
 10473                           tablat	equ	0xFF5
 10474                           prodh	equ	0xFF4
 10475                           prodl	equ	0xFF3
 10476                           intcon	equ	0xFF2
 10477                           postinc0	equ	0xFEE
 10478                           fsr0h	equ	0xFEA
 10479                           fsr0l	equ	0xFE9
 10480                           wreg	equ	0xFE8
 10481                           indf1	equ	0xFE7
 10482                           postinc1	equ	0xFE6
 10483                           postdec1	equ	0xFE5
 10484                           fsr1h	equ	0xFE2
 10485                           fsr1l	equ	0xFE1
 10486                           indf2	equ	0xFDF
 10487                           postinc2	equ	0xFDE
 10488                           postdec2	equ	0xFDD
 10489                           plusw2	equ	0xFDB
 10490                           fsr2h	equ	0xFDA
 10491                           fsr2l	equ	0xFD9
 10492                           status	equ	0xFD8
 10493                           
 10494 ;; *************** function _app_send_encapsulated_command *****************
 10495 ;; Defined at:
 10496 ;;		line 313 in file "main.c"
 10497 ;; Parameters:    Size  Location     Type
 10498 ;;  interface       1    wreg     unsigned char 
 10499 ;;  length          2    0[COMRAM] unsigned int 
 10500 ;; Auto vars:     Size  Location     Type
 10501 ;;  interface       1    0[COMRAM] unsigned char 
 10502 ;; Return value:  Size  Location     Type
 10503 ;;                  1    wreg      char 
 10504 ;; Registers used:
 10505 ;;		wreg
 10506 ;; Tracked objects:
 10507 ;;		On entry : 0/0
 10508 ;;		On exit  : 0/0
 10509 ;;		Unchanged: 0/0
 10510 ;; Data sizes:     COMRAM   BANK0   BANK1   BANK2   BANK3   BANK4   BANK5   BANK6   BANK7
 10511 ;;      Params:         2       0       0       0       0       0       0       0       0
 10512 ;;      Locals:         0       0       0       0       0       0       0       0       0
 10513 ;;      Temps:          0       0       0       0       0       0       0       0       0
 10514 ;;      Totals:         2       0       0       0       0       0       0       0       0
 10515 ;;Total ram usage:        2 bytes
 10516 ;; Hardware stack levels used:    1
 10517 ;; This function calls:
 10518 ;;		Nothing
 10519 ;; This function is called by:
 10520 ;;		_process_cdc_setup_request
 10521 ;; This function uses a non-reentrant model
 10522 ;;
 10523                           
 10524                           	psect	text46
 10525  004A14                     __ptext46:
 10526                           	opt stack 0
 10527  004A14                     _app_send_encapsulated_command:
 10528                           	opt stack 22
 10529                           
 10530                           ;main.c: 315: return -1;
 10531                           
 10532                           ;incstack = 0
 10533  004A14  0EFF               	movlw	255
 10534  004A16  0012               	return	
 10535  004A18  0012               	return		;funcret
 10536  004A1A                     __end_of_app_send_encapsulated_command:
 10537                           	opt stack 0
 10538                           tosu	equ	0xFFF
 10539                           tosh	equ	0xFFE
 10540                           tosl	equ	0xFFD
 10541                           pclatu	equ	0xFFB
 10542                           pclath	equ	0xFFA
 10543                           tblptru	equ	0xFF8
 10544                           tblptrh	equ	0xFF7
 10545                           tblptrl	equ	0xFF6
 10546                           tablat	equ	0xFF5
 10547                           prodh	equ	0xFF4
 10548                           prodl	equ	0xFF3
 10549                           intcon	equ	0xFF2
 10550                           postinc0	equ	0xFEE
 10551                           fsr0h	equ	0xFEA
 10552                           fsr0l	equ	0xFE9
 10553                           wreg	equ	0xFE8
 10554                           indf1	equ	0xFE7
 10555                           postinc1	equ	0xFE6
 10556                           postdec1	equ	0xFE5
 10557                           fsr1h	equ	0xFE2
 10558                           fsr1l	equ	0xFE1
 10559                           indf2	equ	0xFDF
 10560                           postinc2	equ	0xFDE
 10561                           postdec2	equ	0xFDD
 10562                           plusw2	equ	0xFDB
 10563                           fsr2h	equ	0xFDA
 10564                           fsr2l	equ	0xFD9
 10565                           status	equ	0xFD8
 10566                           
 10567 ;; *************** function _app_send_break_callback *****************
 10568 ;; Defined at:
 10569 ;;		line 366 in file "main.c"
 10570 ;; Parameters:    Size  Location     Type
 10571 ;;  interface       1    wreg     unsigned char 
 10572 ;;  duration        2    0[COMRAM] unsigned int 
 10573 ;; Auto vars:     Size  Location     Type
 10574 ;;  interface       1    0[COMRAM] unsigned char 
 10575 ;; Return value:  Size  Location     Type
 10576 ;;                  1    wreg      char 
 10577 ;; Registers used:
 10578 ;;		wreg
 10579 ;; Tracked objects:
 10580 ;;		On entry : 0/0
 10581 ;;		On exit  : 0/0
 10582 ;;		Unchanged: 0/0
 10583 ;; Data sizes:     COMRAM   BANK0   BANK1   BANK2   BANK3   BANK4   BANK5   BANK6   BANK7
 10584 ;;      Params:         2       0       0       0       0       0       0       0       0
 10585 ;;      Locals:         0       0       0       0       0       0       0       0       0
 10586 ;;      Temps:          0       0       0       0       0       0       0       0       0
 10587 ;;      Totals:         2       0       0       0       0       0       0       0       0
 10588 ;;Total ram usage:        2 bytes
 10589 ;; Hardware stack levels used:    1
 10590 ;; This function calls:
 10591 ;;		Nothing
 10592 ;; This function is called by:
 10593 ;;		_process_cdc_setup_request
 10594 ;; This function uses a non-reentrant model
 10595 ;;
 10596                           
 10597                           	psect	text47
 10598  004A1A                     __ptext47:
 10599                           	opt stack 0
 10600  004A1A                     _app_send_break_callback:
 10601                           	opt stack 22
 10602                           
 10603                           ;main.c: 368: return 0;
 10604                           
 10605                           ;incstack = 0
 10606  004A1A  0E00               	movlw	0
 10607  004A1C  0012               	return	
 10608  004A1E  0012               	return		;funcret
 10609  004A20                     __end_of_app_send_break_callback:
 10610                           	opt stack 0
 10611                           tosu	equ	0xFFF
 10612                           tosh	equ	0xFFE
 10613                           tosl	equ	0xFFD
 10614                           pclatu	equ	0xFFB
 10615                           pclath	equ	0xFFA
 10616                           tblptru	equ	0xFF8
 10617                           tblptrh	equ	0xFF7
 10618                           tblptrl	equ	0xFF6
 10619                           tablat	equ	0xFF5
 10620                           prodh	equ	0xFF4
 10621                           prodl	equ	0xFF3
 10622                           intcon	equ	0xFF2
 10623                           postinc0	equ	0xFEE
 10624                           fsr0h	equ	0xFEA
 10625                           fsr0l	equ	0xFE9
 10626                           wreg	equ	0xFE8
 10627                           indf1	equ	0xFE7
 10628                           postinc1	equ	0xFE6
 10629                           postdec1	equ	0xFE5
 10630                           fsr1h	equ	0xFE2
 10631                           fsr1l	equ	0xFE1
 10632                           indf2	equ	0xFDF
 10633                           postinc2	equ	0xFDE
 10634                           postdec2	equ	0xFDD
 10635                           plusw2	equ	0xFDB
 10636                           fsr2h	equ	0xFDA
 10637                           fsr2l	equ	0xFD9
 10638                           status	equ	0xFD8
 10639                           
 10640 ;; *************** function _app_get_line_coding_callback *****************
 10641 ;; Defined at:
 10642 ;;		line 353 in file "main.c"
 10643 ;; Parameters:    Size  Location     Type
 10644 ;;  interface       1    wreg     unsigned char 
 10645 ;;  coding          2    0[COMRAM] PTR struct cdc_line_codi
 10646 ;;		 -> transfer_data(7), 
 10647 ;; Auto vars:     Size  Location     Type
 10648 ;;  interface       1    0[COMRAM] unsigned char 
 10649 ;; Return value:  Size  Location     Type
 10650 ;;                  1    wreg      char 
 10651 ;; Registers used:
 10652 ;;		wreg
 10653 ;; Tracked objects:
 10654 ;;		On entry : 0/0
 10655 ;;		On exit  : 0/0
 10656 ;;		Unchanged: 0/0
 10657 ;; Data sizes:     COMRAM   BANK0   BANK1   BANK2   BANK3   BANK4   BANK5   BANK6   BANK7
 10658 ;;      Params:         2       0       0       0       0       0       0       0       0
 10659 ;;      Locals:         0       0       0       0       0       0       0       0       0
 10660 ;;      Temps:          0       0       0       0       0       0       0       0       0
 10661 ;;      Totals:         2       0       0       0       0       0       0       0       0
 10662 ;;Total ram usage:        2 bytes
 10663 ;; Hardware stack levels used:    1
 10664 ;; This function calls:
 10665 ;;		Nothing
 10666 ;; This function is called by:
 10667 ;;		_process_cdc_setup_request
 10668 ;; This function uses a non-reentrant model
 10669 ;;
 10670                           
 10671                           	psect	text48
 10672  004A20                     __ptext48:
 10673                           	opt stack 0
 10674  004A20                     _app_get_line_coding_callback:
 10675                           	opt stack 22
 10676                           
 10677                           ;main.c: 357: return -1;
 10678                           
 10679                           ;incstack = 0
 10680  004A20  0EFF               	movlw	255
 10681  004A22  0012               	return	
 10682  004A24  0012               	return		;funcret
 10683  004A26                     __end_of_app_get_line_coding_callback:
 10684                           	opt stack 0
 10685                           tosu	equ	0xFFF
 10686                           tosh	equ	0xFFE
 10687                           tosl	equ	0xFFD
 10688                           pclatu	equ	0xFFB
 10689                           pclath	equ	0xFFA
 10690                           tblptru	equ	0xFF8
 10691                           tblptrh	equ	0xFF7
 10692                           tblptrl	equ	0xFF6
 10693                           tablat	equ	0xFF5
 10694                           prodh	equ	0xFF4
 10695                           prodl	equ	0xFF3
 10696                           intcon	equ	0xFF2
 10697                           postinc0	equ	0xFEE
 10698                           fsr0h	equ	0xFEA
 10699                           fsr0l	equ	0xFE9
 10700                           wreg	equ	0xFE8
 10701                           indf1	equ	0xFE7
 10702                           postinc1	equ	0xFE6
 10703                           postdec1	equ	0xFE5
 10704                           fsr1h	equ	0xFE2
 10705                           fsr1l	equ	0xFE1
 10706                           indf2	equ	0xFDF
 10707                           postinc2	equ	0xFDE
 10708                           postdec2	equ	0xFDD
 10709                           plusw2	equ	0xFDB
 10710                           fsr2h	equ	0xFDA
 10711                           fsr2l	equ	0xFD9
 10712                           status	equ	0xFD8
 10713                           
 10714 ;; *************** function _app_get_encapsulated_response *****************
 10715 ;; Defined at:
 10716 ;;		line 318 in file "main.c"
 10717 ;; Parameters:    Size  Location     Type
 10718 ;;  interface       1    wreg     unsigned char 
 10719 ;;  length          2    0[COMRAM] unsigned int 
 10720 ;;  report          2    2[COMRAM] PTR PTR const void 
 10721 ;;		 -> process_cdc_setup_request@response(2), 
 10722 ;;  callback        2    4[COMRAM] PTR PTR FTN(unsigned cha
 10723 ;;		 -> process_cdc_setup_request@callback(2), 
 10724 ;;  context         2    6[COMRAM] PTR PTR void 
 10725 ;;		 -> process_cdc_setup_request@context(2), 
 10726 ;; Auto vars:     Size  Location     Type
 10727 ;;  interface       1    0[COMRAM] unsigned char 
 10728 ;; Return value:  Size  Location     Type
 10729 ;;                  2    0[COMRAM] int 
 10730 ;; Registers used:
 10731 ;;		wreg
 10732 ;; Tracked objects:
 10733 ;;		On entry : 0/0
 10734 ;;		On exit  : 0/0
 10735 ;;		Unchanged: 0/0
 10736 ;; Data sizes:     COMRAM   BANK0   BANK1   BANK2   BANK3   BANK4   BANK5   BANK6   BANK7
 10737 ;;      Params:         8       0       0       0       0       0       0       0       0
 10738 ;;      Locals:         0       0       0       0       0       0       0       0       0
 10739 ;;      Temps:          0       0       0       0       0       0       0       0       0
 10740 ;;      Totals:         8       0       0       0       0       0       0       0       0
 10741 ;;Total ram usage:        8 bytes
 10742 ;; Hardware stack levels used:    1
 10743 ;; This function calls:
 10744 ;;		Nothing
 10745 ;; This function is called by:
 10746 ;;		_process_cdc_setup_request
 10747 ;; This function uses a non-reentrant model
 10748 ;;
 10749                           
 10750                           	psect	text49
 10751  004A26                     __ptext49:
 10752                           	opt stack 0
 10753  004A26                     _app_get_encapsulated_response:
 10754                           	opt stack 22
 10755                           
 10756                           ;main.c: 323: return -1;
 10757                           
 10758                           ;incstack = 0
 10759  004A26  6801               	setf	?_app_get_encapsulated_response,c
 10760  004A28  6802               	setf	?_app_get_encapsulated_response+1,c
 10761  004A2A  0012               	return		;funcret
 10762  004A2C                     __end_of_app_get_encapsulated_response:
 10763                           	opt stack 0
 10764                           tosu	equ	0xFFF
 10765                           tosh	equ	0xFFE
 10766                           tosl	equ	0xFFD
 10767                           pclatu	equ	0xFFB
 10768                           pclath	equ	0xFFA
 10769                           tblptru	equ	0xFF8
 10770                           tblptrh	equ	0xFF7
 10771                           tblptrl	equ	0xFF6
 10772                           tablat	equ	0xFF5
 10773                           prodh	equ	0xFF4
 10774                           prodl	equ	0xFF3
 10775                           intcon	equ	0xFF2
 10776                           postinc0	equ	0xFEE
 10777                           fsr0h	equ	0xFEA
 10778                           fsr0l	equ	0xFE9
 10779                           wreg	equ	0xFE8
 10780                           indf1	equ	0xFE7
 10781                           postinc1	equ	0xFE6
 10782                           postdec1	equ	0xFE5
 10783                           fsr1h	equ	0xFE2
 10784                           fsr1l	equ	0xFE1
 10785                           indf2	equ	0xFDF
 10786                           postinc2	equ	0xFDE
 10787                           postdec2	equ	0xFDD
 10788                           plusw2	equ	0xFDB
 10789                           fsr2h	equ	0xFDA
 10790                           fsr2l	equ	0xFD9
 10791                           status	equ	0xFD8
 10792                           
 10793 ;; *************** function _app_get_comm_feature_callback *****************
 10794 ;; Defined at:
 10795 ;;		line 340 in file "main.c"
 10796 ;; Parameters:    Size  Location     Type
 10797 ;;  interface       1    wreg     unsigned char 
 10798 ;;  idle_setting    2    0[COMRAM] PTR unsigned char 
 10799 ;;		 -> process_cdc_setup_request@idle_setting(1), 
 10800 ;;  data_multipl    2    2[COMRAM] PTR unsigned char 
 10801 ;;		 -> process_cdc_setup_request@data_multiplexed_state(1), 
 10802 ;; Auto vars:     Size  Location     Type
 10803 ;;  interface       1    0[COMRAM] unsigned char 
 10804 ;; Return value:  Size  Location     Type
 10805 ;;                  1    wreg      char 
 10806 ;; Registers used:
 10807 ;;		wreg
 10808 ;; Tracked objects:
 10809 ;;		On entry : 0/0
 10810 ;;		On exit  : 0/0
 10811 ;;		Unchanged: 0/0
 10812 ;; Data sizes:     COMRAM   BANK0   BANK1   BANK2   BANK3   BANK4   BANK5   BANK6   BANK7
 10813 ;;      Params:         4       0       0       0       0       0       0       0       0
 10814 ;;      Locals:         0       0       0       0       0       0       0       0       0
 10815 ;;      Temps:          0       0       0       0       0       0       0       0       0
 10816 ;;      Totals:         4       0       0       0       0       0       0       0       0
 10817 ;;Total ram usage:        4 bytes
 10818 ;; Hardware stack levels used:    1
 10819 ;; This function calls:
 10820 ;;		Nothing
 10821 ;; This function is called by:
 10822 ;;		_process_cdc_setup_request
 10823 ;; This function uses a non-reentrant model
 10824 ;;
 10825                           
 10826                           	psect	text50
 10827  004A2C                     __ptext50:
 10828                           	opt stack 0
 10829  004A2C                     _app_get_comm_feature_callback:
 10830                           	opt stack 22
 10831                           
 10832                           ;main.c: 344: return -1;
 10833                           
 10834                           ;incstack = 0
 10835  004A2C  0EFF               	movlw	255
 10836  004A2E  0012               	return	
 10837  004A30  0012               	return		;funcret
 10838  004A32                     __end_of_app_get_comm_feature_callback:
 10839                           	opt stack 0
 10840                           tosu	equ	0xFFF
 10841                           tosh	equ	0xFFE
 10842                           tosl	equ	0xFFD
 10843                           pclatu	equ	0xFFB
 10844                           pclath	equ	0xFFA
 10845                           tblptru	equ	0xFF8
 10846                           tblptrh	equ	0xFF7
 10847                           tblptrl	equ	0xFF6
 10848                           tablat	equ	0xFF5
 10849                           prodh	equ	0xFF4
 10850                           prodl	equ	0xFF3
 10851                           intcon	equ	0xFF2
 10852                           postinc0	equ	0xFEE
 10853                           fsr0h	equ	0xFEA
 10854                           fsr0l	equ	0xFE9
 10855                           wreg	equ	0xFE8
 10856                           indf1	equ	0xFE7
 10857                           postinc1	equ	0xFE6
 10858                           postdec1	equ	0xFE5
 10859                           fsr1h	equ	0xFE2
 10860                           fsr1l	equ	0xFE1
 10861                           indf2	equ	0xFDF
 10862                           postinc2	equ	0xFDE
 10863                           postdec2	equ	0xFDD
 10864                           plusw2	equ	0xFDB
 10865                           fsr2h	equ	0xFDA
 10866                           fsr2l	equ	0xFD9
 10867                           status	equ	0xFD8
 10868                           
 10869 ;; *************** function _handle_ep0_out *****************
 10870 ;; Defined at:
 10871 ;;		line 1207 in file "usb.c"
 10872 ;; Parameters:    Size  Location     Type
 10873 ;;		None
 10874 ;; Auto vars:     Size  Location     Type
 10875 ;;  bytes_to_cop    1   15[COMRAM] unsigned char 
 10876 ;;  pkt_len         1   14[COMRAM] unsigned char 
 10877 ;; Return value:  Size  Location     Type
 10878 ;;		None               void
 10879 ;; Registers used:
 10880 ;;		wreg, fsr1l, fsr1h, fsr2l, fsr2h, status,2, status,0, pclat, tosl, tblptrl, tblptrh, tblptru, prodl, prodh, cstack
 10881 ;; Tracked objects:
 10882 ;;		On entry : 0/0
 10883 ;;		On exit  : 0/0
 10884 ;;		Unchanged: 0/0
 10885 ;; Data sizes:     COMRAM   BANK0   BANK1   BANK2   BANK3   BANK4   BANK5   BANK6   BANK7
 10886 ;;      Params:         0       0       0       0       0       0       0       0       0
 10887 ;;      Locals:         4       0       0       0       0       0       0       0       0
 10888 ;;      Temps:          2       0       0       0       0       0       0       0       0
 10889 ;;      Totals:         6       0       0       0       0       0       0       0       0
 10890 ;;Total ram usage:        6 bytes
 10891 ;; Hardware stack levels used:    1
 10892 ;; Hardware stack levels required when called:    2
 10893 ;; This function calls:
 10894 ;;		Absolute function
 10895 ;;		_send_zero_length_packet_ep0
 10896 ;;		_set_line_coding
 10897 ;;		_set_or_clear_comm_feature_callback
 10898 ;;		_stall_ep0
 10899 ;;		i2_memcpy
 10900 ;;		i2_reset_ep0_data_stage
 10901 ;; This function is called by:
 10902 ;;		_usb_service
 10903 ;; This function uses a non-reentrant model
 10904 ;;
 10905                           
 10906                           	psect	text51
 10907  003F08                     __ptext51:
 10908                           	opt stack 0
 10909  003F08                     _handle_ep0_out:
 10910                           	opt stack 23
 10911                           
 10912                           ;usb.c: 1212: uint8_t pkt_len = (bds[0].BDnCNT);
 10913                           
 10914                           ;incstack = 0
 10915  003F08  C401 F00F          	movff	1025,handle_ep0_out@pkt_len
 10916                           
 10917                           ;usb.c: 1214: if (ep0_data_stage_direc == 1 ) {
 10918  003F0C  0100               	movlb	0	; () banked
 10919  003F0E  05F6               	decf	_ep0_data_stage_direc& (0+255),w,b
 10920  003F10  A4D8               	btfss	status,2,c
 10921  003F12  D018               	goto	i2l3354
 10922                           
 10923                           ; BSR set to: 0
 10924                           ;usb.c: 1220: if (ep0_data_stage_callback)
 10925  003F14  505D               	movf	_ep0_data_stage_callback,w,c
 10926  003F16  105E               	iorwf	_ep0_data_stage_callback+1,w,c
 10927  003F18  B4D8               	btfsc	status,2,c
 10928  003F1A  D011               	goto	i2l3352
 10929                           
 10930                           ; BSR set to: 0
 10931                           ;usb.c: 1221: ep0_data_stage_callback(1 , ep0_data_stage_context);
 10932  003F1C  D801               	call	i2u313_48
 10933  003F1E  D00F               	goto	i2l3352
 10934  003F20                     i2u313_48:
 10935  003F20  0005               	push	
 10936  003F22  6EFA               	movwf	pclath,c
 10937  003F24  505D               	movf	_ep0_data_stage_callback,w,c
 10938  003F26  6EFD               	movwf	tosl,c
 10939  003F28  505E               	movf	_ep0_data_stage_callback+1,w,c
 10940  003F2A  6EFE               	movwf	tosh,c
 10941  003F2C  50F8               	movf	tblptru,w,c
 10942  003F2E  6EFF               	movwf	tosu,c
 10943  003F30  50FA               	movf	pclath,w,c
 10944  003F32  C0F0  F003         	movff	_ep0_data_stage_context,set_line_coding@context
 10945  003F36  C0F1  F004         	movff	_ep0_data_stage_context+1,set_line_coding@context+1
 10946  003F3A  0E01               	movlw	1
 10947  003F3C  0012               	return		;indir
 10948  003F3E                     i2l3352:
 10949                           
 10950                           ;usb.c: 1222: reset_ep0_data_stage();
 10951  003F3E  EC34  F024         	call	i2_reset_ep0_data_stage
 10952                           
 10953                           ;usb.c: 1223: }
 10954  003F42  0012               	return	
 10955  003F44                     i2l3354:
 10956                           
 10957                           ;usb.c: 1224: else {
 10958                           ;usb.c: 1232: if (ep0_data_stage_out_buffer) {
 10959  003F44  0101               	movlb	1	; () banked
 10960  003F46  5119               	movf	_ep0_data_stage_out_buffer& (0+255),w,b
 10961  003F48  0101               	movlb	1	; () banked
 10962  003F4A  111A               	iorwf	(_ep0_data_stage_out_buffer+1)& (0+255),w,b
 10963  003F4C  B4D8               	btfsc	status,2,c
 10964  003F4E  0012               	return	
 10965                           
 10966                           ; BSR set to: 1
 10967                           ;usb.c: 1233: uint8_t bytes_to_copy = (((pkt_len)<(ep0_data_stage_buf_remaining))?(pkt_l
      +                          en):(ep0_data_stage_buf_remaining));
 10968  003F50  500F               	movf	handle_ep0_out@pkt_len,w,c
 10969  003F52  6E0B               	movwf	??_handle_ep0_out& (0+255),c
 10970  003F54  6A0C               	clrf	(??_handle_ep0_out+1)& (0+255),c
 10971  003F56  505B               	movf	_ep0_data_stage_buf_remaining,w,c
 10972  003F58  5C0B               	subwf	??_handle_ep0_out,w,c
 10973  003F5A  505C               	movf	_ep0_data_stage_buf_remaining+1,w,c
 10974  003F5C  580C               	subwfb	??_handle_ep0_out+1,w,c
 10975  003F5E  A0D8               	btfss	status,0,c
 10976  003F60  D005               	goto	i2l248
 10977                           
 10978                           ; BSR set to: 1
 10979  003F62  C05B  F00D         	movff	_ep0_data_stage_buf_remaining,_handle_ep0_out$622
 10980  003F66  C05C  F00E         	movff	_ep0_data_stage_buf_remaining+1,_handle_ep0_out$622+1
 10981  003F6A  D003               	goto	i2l250
 10982  003F6C                     i2l248:
 10983                           
 10984                           ; BSR set to: 1
 10985  003F6C  C00F  F00D         	movff	handle_ep0_out@pkt_len,_handle_ep0_out$622
 10986  003F70  6A0E               	clrf	_handle_ep0_out$622+1,c
 10987  003F72                     i2l250:
 10988                           
 10989                           ; BSR set to: 1
 10990  003F72  C00D  F010         	movff	_handle_ep0_out$622,handle_ep0_out@bytes_to_copy
 10991                           
 10992                           ; BSR set to: 1
 10993                           ;usb.c: 1240: memcpy(ep0_data_stage_out_buffer, ep0_buf.out, bytes_to_copy);
 10994  003F76  C119  F001         	movff	_ep0_data_stage_out_buffer,i2memcpy@d1
 10995  003F7A  C11A  F002         	movff	_ep0_data_stage_out_buffer+1,i2memcpy@d1+1
 10996  003F7E  C0FB  F003         	movff	_ep0_buf,i2memcpy@s1
 10997  003F82  C0FC  F004         	movff	_ep0_buf+1,i2memcpy@s1+1
 10998  003F86  C010  F005         	movff	handle_ep0_out@bytes_to_copy,i2memcpy@n
 10999  003F8A  6A06               	clrf	i2memcpy@n+1,c
 11000  003F8C  EC40  F022         	call	i2_memcpy	;wreg free
 11001                           
 11002                           ;usb.c: 1242: ep0_data_stage_out_buffer += bytes_to_copy;
 11003  003F90  5010               	movf	handle_ep0_out@bytes_to_copy,w,c
 11004  003F92  0D01               	mullw	1
 11005  003F94  50F3               	movf	prodl,w,c
 11006  003F96  0101               	movlb	1	; () banked
 11007  003F98  2719               	addwf	_ep0_data_stage_out_buffer& (0+255),f,b
 11008  003F9A  50F4               	movf	prodh,w,c
 11009  003F9C  0101               	movlb	1	; () banked
 11010  003F9E  231A               	addwfc	(_ep0_data_stage_out_buffer+1)& (0+255),f,b
 11011                           
 11012                           ; BSR set to: 1
 11013                           ;usb.c: 1243: ep0_data_stage_buf_remaining -= bytes_to_copy;
 11014  003FA0  5010               	movf	handle_ep0_out@bytes_to_copy,w,c
 11015  003FA2  5E5B               	subwf	_ep0_data_stage_buf_remaining,f,c
 11016  003FA4  0E00               	movlw	0
 11017  003FA6  5A5C               	subwfb	_ep0_data_stage_buf_remaining+1,f,c
 11018                           
 11019                           ; BSR set to: 1
 11020                           ;usb.c: 1248: if (pkt_len < 8 || ep0_data_stage_buf_remaining == 0) {
 11021  003FA8  0E07               	movlw	7
 11022  003FAA  640F               	cpfsgt	handle_ep0_out@pkt_len,c
 11023  003FAC  D004               	goto	i2l3370
 11024                           
 11025                           ; BSR set to: 1
 11026  003FAE  505B               	movf	_ep0_data_stage_buf_remaining,w,c
 11027  003FB0  105C               	iorwf	_ep0_data_stage_buf_remaining+1,w,c
 11028  003FB2  A4D8               	btfss	status,2,c
 11029  003FB4  0012               	return	
 11030  003FB6                     i2l3370:
 11031                           
 11032                           ; BSR set to: 1
 11033                           ;usb.c: 1253: if (bytes_to_copy < pkt_len) {
 11034  003FB6  500F               	movf	handle_ep0_out@pkt_len,w,c
 11035  003FB8  5C10               	subwf	handle_ep0_out@bytes_to_copy,w,c
 11036  003FBA  B0D8               	btfsc	status,0,c
 11037  003FBC  D01A               	goto	i2l3380
 11038                           
 11039                           ; BSR set to: 1
 11040                           ;usb.c: 1255: stall_ep0();
 11041  003FBE  ECE4  F024         	call	_stall_ep0	;wreg free
 11042                           
 11043                           ;usb.c: 1256: if (ep0_data_stage_callback)
 11044  003FC2  505D               	movf	_ep0_data_stage_callback,w,c
 11045  003FC4  105E               	iorwf	_ep0_data_stage_callback+1,w,c
 11046  003FC6  B4D8               	btfsc	status,2,c
 11047  003FC8  D011               	goto	i2l3378
 11048                           
 11049                           ;usb.c: 1257: ep0_data_stage_callback(0 , ep0_data_stage_context);
 11050  003FCA  D801               	call	i2u320_48
 11051  003FCC  D00F               	goto	i2l3378
 11052  003FCE                     i2u320_48:
 11053  003FCE  0005               	push	
 11054  003FD0  6EFA               	movwf	pclath,c
 11055  003FD2  505D               	movf	_ep0_data_stage_callback,w,c
 11056  003FD4  6EFD               	movwf	tosl,c
 11057  003FD6  505E               	movf	_ep0_data_stage_callback+1,w,c
 11058  003FD8  6EFE               	movwf	tosh,c
 11059  003FDA  50F8               	movf	tblptru,w,c
 11060  003FDC  6EFF               	movwf	tosu,c
 11061  003FDE  50FA               	movf	pclath,w,c
 11062  003FE0  C0F0  F003         	movff	_ep0_data_stage_context,set_line_coding@context
 11063  003FE4  C0F1  F004         	movff	_ep0_data_stage_context+1,set_line_coding@context+1
 11064  003FE8  0E00               	movlw	0
 11065  003FEA  0012               	return		;indir
 11066  003FEC                     i2l3378:
 11067                           
 11068                           ;usb.c: 1258: reset_ep0_data_stage();
 11069  003FEC  EC34  F024         	call	i2_reset_ep0_data_stage
 11070                           
 11071                           ;usb.c: 1259: }
 11072  003FF0  0012               	return	
 11073  003FF2                     i2l3380:
 11074                           
 11075                           ;usb.c: 1260: else {
 11076                           ;usb.c: 1262: send_zero_length_packet_ep0();
 11077  003FF2  ECC1  F024         	call	_send_zero_length_packet_ep0	;wreg free
 11078  003FF6  0012               	return	
 11079  003FF8  0012               	return		;funcret
 11080  003FFA                     __end_of_handle_ep0_out:
 11081                           	opt stack 0
 11082                           tosu	equ	0xFFF
 11083                           tosh	equ	0xFFE
 11084                           tosl	equ	0xFFD
 11085                           pclatu	equ	0xFFB
 11086                           pclath	equ	0xFFA
 11087                           tblptru	equ	0xFF8
 11088                           tblptrh	equ	0xFF7
 11089                           tblptrl	equ	0xFF6
 11090                           tablat	equ	0xFF5
 11091                           prodh	equ	0xFF4
 11092                           prodl	equ	0xFF3
 11093                           intcon	equ	0xFF2
 11094                           postinc0	equ	0xFEE
 11095                           fsr0h	equ	0xFEA
 11096                           fsr0l	equ	0xFE9
 11097                           wreg	equ	0xFE8
 11098                           indf1	equ	0xFE7
 11099                           postinc1	equ	0xFE6
 11100                           postdec1	equ	0xFE5
 11101                           fsr1h	equ	0xFE2
 11102                           fsr1l	equ	0xFE1
 11103                           indf2	equ	0xFDF
 11104                           postinc2	equ	0xFDE
 11105                           postdec2	equ	0xFDD
 11106                           plusw2	equ	0xFDB
 11107                           fsr2h	equ	0xFDA
 11108                           fsr2l	equ	0xFD9
 11109                           status	equ	0xFD8
 11110                           
 11111 ;; *************** function _stall_ep0 *****************
 11112 ;; Defined at:
 11113 ;;		line 678 in file "usb.c"
 11114 ;; Parameters:    Size  Location     Type
 11115 ;;		None
 11116 ;; Auto vars:     Size  Location     Type
 11117 ;;		None
 11118 ;; Return value:  Size  Location     Type
 11119 ;;		None               void
 11120 ;; Registers used:
 11121 ;;		wreg, status,2
 11122 ;; Tracked objects:
 11123 ;;		On entry : 0/0
 11124 ;;		On exit  : 0/0
 11125 ;;		Unchanged: 0/0
 11126 ;; Data sizes:     COMRAM   BANK0   BANK1   BANK2   BANK3   BANK4   BANK5   BANK6   BANK7
 11127 ;;      Params:         0       0       0       0       0       0       0       0       0
 11128 ;;      Locals:         0       0       0       0       0       0       0       0       0
 11129 ;;      Temps:          0       0       0       0       0       0       0       0       0
 11130 ;;      Totals:         0       0       0       0       0       0       0       0       0
 11131 ;;Total ram usage:        0 bytes
 11132 ;; Hardware stack levels used:    1
 11133 ;; This function calls:
 11134 ;;		Nothing
 11135 ;; This function is called by:
 11136 ;;		_handle_standard_control_request
 11137 ;;		_handle_ep0_setup
 11138 ;;		_handle_ep0_out
 11139 ;;		_usb_service
 11140 ;; This function uses a non-reentrant model
 11141 ;;
 11142                           
 11143                           	psect	text52
 11144  0049C8                     __ptext52:
 11145                           	opt stack 0
 11146  0049C8                     _stall_ep0:
 11147                           	opt stack 25
 11148                           
 11149                           ;incstack = 0
 11150                           ;usb.c: 686: do { (bds[1]).BDnCNT = (8); (bds[1]).STAT.BDnSTAT = (0x80|0x04); } while(0)
      +                          ;
 11151  0049C8  0E08               	movlw	8
 11152  0049CA  0104               	movlb	4	; () banked
 11153  0049CC  6F05               	movwf	5,b
 11154  0049CE  0E84               	movlw	132
 11155  0049D0  0104               	movlb	4	; () banked
 11156  0049D2  6F04               	movwf	4,b
 11157  0049D4  0012               	return	
 11158                           
 11159                           ; BSR set to: 4
 11160                           
 11161                           ; BSR set to: 4
 11162  0049D6  0012               	return		;funcret
 11163  0049D8                     __end_of_stall_ep0:
 11164                           	opt stack 0
 11165                           tosu	equ	0xFFF
 11166                           tosh	equ	0xFFE
 11167                           tosl	equ	0xFFD
 11168                           pclatu	equ	0xFFB
 11169                           pclath	equ	0xFFA
 11170                           tblptru	equ	0xFF8
 11171                           tblptrh	equ	0xFF7
 11172                           tblptrl	equ	0xFF6
 11173                           tablat	equ	0xFF5
 11174                           prodh	equ	0xFF4
 11175                           prodl	equ	0xFF3
 11176                           intcon	equ	0xFF2
 11177                           postinc0	equ	0xFEE
 11178                           fsr0h	equ	0xFEA
 11179                           fsr0l	equ	0xFE9
 11180                           wreg	equ	0xFE8
 11181                           indf1	equ	0xFE7
 11182                           postinc1	equ	0xFE6
 11183                           postdec1	equ	0xFE5
 11184                           fsr1h	equ	0xFE2
 11185                           fsr1l	equ	0xFE1
 11186                           indf2	equ	0xFDF
 11187                           postinc2	equ	0xFDE
 11188                           postdec2	equ	0xFDD
 11189                           plusw2	equ	0xFDB
 11190                           fsr2h	equ	0xFDA
 11191                           fsr2l	equ	0xFD9
 11192                           status	equ	0xFD8
 11193                           
 11194 ;; *************** function _send_zero_length_packet_ep0 *****************
 11195 ;; Defined at:
 11196 ;;		line 727 in file "usb.c"
 11197 ;; Parameters:    Size  Location     Type
 11198 ;;		None
 11199 ;; Auto vars:     Size  Location     Type
 11200 ;;		None
 11201 ;; Return value:  Size  Location     Type
 11202 ;;		None               void
 11203 ;; Registers used:
 11204 ;;		wreg, status,2
 11205 ;; Tracked objects:
 11206 ;;		On entry : 0/0
 11207 ;;		On exit  : 0/0
 11208 ;;		Unchanged: 0/0
 11209 ;; Data sizes:     COMRAM   BANK0   BANK1   BANK2   BANK3   BANK4   BANK5   BANK6   BANK7
 11210 ;;      Params:         0       0       0       0       0       0       0       0       0
 11211 ;;      Locals:         0       0       0       0       0       0       0       0       0
 11212 ;;      Temps:          0       0       0       0       0       0       0       0       0
 11213 ;;      Totals:         0       0       0       0       0       0       0       0       0
 11214 ;;Total ram usage:        0 bytes
 11215 ;; Hardware stack levels used:    1
 11216 ;; This function calls:
 11217 ;;		Nothing
 11218 ;; This function is called by:
 11219 ;;		_handle_standard_control_request
 11220 ;;		_handle_ep0_out
 11221 ;; This function uses a non-reentrant model
 11222 ;;
 11223                           
 11224                           	psect	text53
 11225  004982                     __ptext53:
 11226                           	opt stack 0
 11227  004982                     _send_zero_length_packet_ep0:
 11228                           	opt stack 23
 11229                           
 11230                           ;usb.c: 735: bds[1].STAT.BDnSTAT = 0;
 11231                           
 11232                           ; BSR set to: 4
 11233                           ;incstack = 0
 11234  004982  0E00               	movlw	0
 11235  004984  0104               	movlb	4	; () banked
 11236  004986  6F04               	movwf	4,b
 11237                           
 11238                           ; BSR set to: 4
 11239                           
 11240                           ;usb.c: 736: do { (bds[1]).BDnCNT = (0); (bds[1]).STAT.BDnSTAT = (0x80|0x40|0x08); } whi
      +                          le(0);
 11241  004988  0E00               	movlw	0
 11242  00498A  0104               	movlb	4	; () banked
 11243  00498C  6F05               	movwf	5,b
 11244  00498E  0EC8               	movlw	200
 11245  004990  0104               	movlb	4	; () banked
 11246  004992  6F04               	movwf	4,b
 11247  004994  0012               	return	
 11248                           
 11249                           ; BSR set to: 4
 11250                           
 11251                           ; BSR set to: 4
 11252  004996  0012               	return		;funcret
 11253  004998                     __end_of_send_zero_length_packet_ep0:
 11254                           	opt stack 0
 11255                           tosu	equ	0xFFF
 11256                           tosh	equ	0xFFE
 11257                           tosl	equ	0xFFD
 11258                           pclatu	equ	0xFFB
 11259                           pclath	equ	0xFFA
 11260                           tblptru	equ	0xFF8
 11261                           tblptrh	equ	0xFF7
 11262                           tblptrl	equ	0xFF6
 11263                           tablat	equ	0xFF5
 11264                           prodh	equ	0xFF4
 11265                           prodl	equ	0xFF3
 11266                           intcon	equ	0xFF2
 11267                           postinc0	equ	0xFEE
 11268                           fsr0h	equ	0xFEA
 11269                           fsr0l	equ	0xFE9
 11270                           wreg	equ	0xFE8
 11271                           indf1	equ	0xFE7
 11272                           postinc1	equ	0xFE6
 11273                           postdec1	equ	0xFE5
 11274                           fsr1h	equ	0xFE2
 11275                           fsr1l	equ	0xFE1
 11276                           indf2	equ	0xFDF
 11277                           postinc2	equ	0xFDE
 11278                           postdec2	equ	0xFDD
 11279                           plusw2	equ	0xFDB
 11280                           fsr2h	equ	0xFDA
 11281                           fsr2l	equ	0xFD9
 11282                           status	equ	0xFD8
 11283                           
 11284 ;; *************** function _handle_ep0_in *****************
 11285 ;; Defined at:
 11286 ;;		line 1269 in file "usb.c"
 11287 ;; Parameters:    Size  Location     Type
 11288 ;;		None
 11289 ;; Auto vars:     Size  Location     Type
 11290 ;;  bytes_to_sen    1   12[COMRAM] unsigned char 
 11291 ;; Return value:  Size  Location     Type
 11292 ;;		None               void
 11293 ;; Registers used:
 11294 ;;		wreg, fsr1l, fsr1h, fsr2l, fsr2h, status,2, status,0, pclat, tosl, tblptrl, tblptrh, tblptru, prodl, prodh, cstack
 11295 ;; Tracked objects:
 11296 ;;		On entry : 0/0
 11297 ;;		On exit  : 0/0
 11298 ;;		Unchanged: 0/0
 11299 ;; Data sizes:     COMRAM   BANK0   BANK1   BANK2   BANK3   BANK4   BANK5   BANK6   BANK7
 11300 ;;      Params:         0       0       0       0       0       0       0       0       0
 11301 ;;      Locals:         3       0       0       0       0       0       0       0       0
 11302 ;;      Temps:          0       0       0       0       0       0       0       0       0
 11303 ;;      Totals:         3       0       0       0       0       0       0       0       0
 11304 ;;Total ram usage:        3 bytes
 11305 ;; Hardware stack levels used:    1
 11306 ;; Hardware stack levels required when called:    2
 11307 ;; This function calls:
 11308 ;;		Absolute function
 11309 ;;		_set_line_coding
 11310 ;;		_set_or_clear_comm_feature_callback
 11311 ;;		_usb_send_in_buffer_0
 11312 ;;		i2_memcpy
 11313 ;;		i2_reset_ep0_data_stage
 11314 ;; This function is called by:
 11315 ;;		_usb_service
 11316 ;; This function uses a non-reentrant model
 11317 ;;
 11318                           
 11319                           	psect	text54
 11320  003E12                     __ptext54:
 11321                           	opt stack 0
 11322  003E12                     _handle_ep0_in:
 11323                           	opt stack 23
 11324                           
 11325                           ;usb.c: 1271: if (addr_pending) {
 11326                           
 11327                           ; BSR set to: 4
 11328                           ;incstack = 0
 11329  003E12  0100               	movlb	0	; () banked
 11330  003E14  51F3               	movf	_addr_pending& (0+255),w,b
 11331  003E16  B4D8               	btfsc	status,2,c
 11332  003E18  D006               	goto	i2l3388
 11333                           
 11334                           ; BSR set to: 0
 11335                           ;usb.c: 1272: UADDR = addr;
 11336  003E1A  C0F2  FF63         	movff	_addr,3939	;volatile
 11337                           
 11338                           ; BSR set to: 0
 11339                           ;usb.c: 1273: addr_pending = 0;
 11340  003E1E  0E00               	movlw	0
 11341  003E20  0100               	movlb	0	; () banked
 11342  003E22  6FF3               	movwf	_addr_pending& (0+255),b
 11343  003E24  D000               	goto	i2l3388
 11344  003E26                     i2l3388:
 11345                           
 11346                           ; BSR set to: 0
 11347                           ;usb.c: 1274: }
 11348                           ;usb.c: 1276: if (ep0_data_stage_buf_remaining) {
 11349  003E26  505B               	movf	_ep0_data_stage_buf_remaining,w,c
 11350  003E28  105C               	iorwf	_ep0_data_stage_buf_remaining+1,w,c
 11351  003E2A  B4D8               	btfsc	status,2,c
 11352  003E2C  D040               	goto	i2l3410
 11353                           
 11354                           ; BSR set to: 0
 11355                           ;usb.c: 1278: uint8_t bytes_to_send = (((ep0_data_stage_buf_remaining)<(8))?(ep0_data_st
      +                          age_buf_remaining):(8));
 11356  003E2E  505C               	movf	_ep0_data_stage_buf_remaining+1,w,c
 11357  003E30  E104               	bnz	i2u323_40
 11358  003E32  0E08               	movlw	8
 11359  003E34  5C5B               	subwf	_ep0_data_stage_buf_remaining,w,c
 11360  003E36  A0D8               	btfss	status,0,c
 11361  003E38  D005               	goto	i2l263
 11362  003E3A                     i2u323_40:
 11363                           
 11364                           ; BSR set to: 0
 11365  003E3A  0E00               	movlw	0
 11366  003E3C  6E0C               	movwf	_handle_ep0_in$626+1,c
 11367  003E3E  0E08               	movlw	8
 11368  003E40  6E0B               	movwf	_handle_ep0_in$626,c
 11369  003E42  D004               	goto	i2l265
 11370  003E44                     i2l263:
 11371                           
 11372                           ; BSR set to: 0
 11373  003E44  C05B  F00B         	movff	_ep0_data_stage_buf_remaining,_handle_ep0_in$626
 11374  003E48  C05C  F00C         	movff	_ep0_data_stage_buf_remaining+1,_handle_ep0_in$626+1
 11375  003E4C                     i2l265:
 11376                           
 11377                           ; BSR set to: 0
 11378  003E4C  C00B  F00D         	movff	_handle_ep0_in$626,handle_ep0_in@bytes_to_send
 11379                           
 11380                           ; BSR set to: 0
 11381                           ;usb.c: 1280: memcpy(ep0_buf.in,ep0_data_stage_in_buffer,bytes_to_send);;
 11382  003E50  C0FD  F001         	movff	_ep0_buf+2,i2memcpy@d1
 11383  003E54  C0FE  F002         	movff	_ep0_buf+3,i2memcpy@d1+1
 11384  003E58  C117  F003         	movff	_ep0_data_stage_in_buffer,i2memcpy@s1
 11385  003E5C  C118  F004         	movff	_ep0_data_stage_in_buffer+1,i2memcpy@s1+1
 11386  003E60  C00D  F005         	movff	handle_ep0_in@bytes_to_send,i2memcpy@n
 11387  003E64  6A06               	clrf	i2memcpy@n+1,c
 11388  003E66  EC40  F022         	call	i2_memcpy	;wreg free
 11389                           
 11390                           ;usb.c: 1281: ep0_data_stage_buf_remaining -= bytes_to_send;
 11391  003E6A  500D               	movf	handle_ep0_in@bytes_to_send,w,c
 11392  003E6C  5E5B               	subwf	_ep0_data_stage_buf_remaining,f,c
 11393  003E6E  0E00               	movlw	0
 11394  003E70  5A5C               	subwfb	_ep0_data_stage_buf_remaining+1,f,c
 11395                           
 11396                           ;usb.c: 1282: ep0_data_stage_in_buffer += bytes_to_send;
 11397  003E72  500D               	movf	handle_ep0_in@bytes_to_send,w,c
 11398  003E74  0D01               	mullw	1
 11399  003E76  50F3               	movf	prodl,w,c
 11400  003E78  0101               	movlb	1	; () banked
 11401  003E7A  2717               	addwf	_ep0_data_stage_in_buffer& (0+255),f,b
 11402  003E7C  50F4               	movf	prodh,w,c
 11403  003E7E  0101               	movlb	1	; () banked
 11404  003E80  2318               	addwfc	(_ep0_data_stage_in_buffer+1)& (0+255),f,b
 11405                           
 11406                           ; BSR set to: 1
 11407                           ;usb.c: 1287: if (ep0_data_stage_buf_remaining == 0 &&
 11408                           ;usb.c: 1288: bytes_to_send == 8 &&
 11409                           ;usb.c: 1289: returning_short)
 11410  003E82  505B               	movf	_ep0_data_stage_buf_remaining,w,c
 11411  003E84  105C               	iorwf	_ep0_data_stage_buf_remaining+1,w,c
 11412  003E86  A4D8               	btfss	status,2,c
 11413  003E88  D00C               	goto	i2l3408
 11414                           
 11415                           ; BSR set to: 1
 11416  003E8A  0E08               	movlw	8
 11417  003E8C  180D               	xorwf	handle_ep0_in@bytes_to_send,w,c
 11418  003E8E  A4D8               	btfss	status,2,c
 11419  003E90  D008               	goto	i2l3408
 11420                           
 11421                           ; BSR set to: 1
 11422  003E92  0100               	movlb	0	; () banked
 11423  003E94  51F7               	movf	_returning_short& (0+255),w,b
 11424  003E96  B4D8               	btfsc	status,2,c
 11425  003E98  D004               	goto	i2l3408
 11426                           
 11427                           ; BSR set to: 0
 11428                           ;usb.c: 1290: control_need_zlp = 1;
 11429  003E9A  0E01               	movlw	1
 11430  003E9C  0100               	movlb	0	; () banked
 11431  003E9E  6FF4               	movwf	_control_need_zlp& (0+255),b
 11432  003EA0  D000               	goto	i2l3408
 11433  003EA2                     i2l3408:
 11434                           
 11435                           ;usb.c: 1292: usb_send_in_buffer_0(bytes_to_send);
 11436  003EA2  C00D  F002         	movff	handle_ep0_in@bytes_to_send,usb_send_in_buffer_0@len
 11437  003EA6  6A03               	clrf	usb_send_in_buffer_0@len+1,c
 11438  003EA8  EC35  F023         	call	_usb_send_in_buffer_0	;wreg free
 11439                           
 11440                           ;usb.c: 1293: }
 11441  003EAC  0012               	return	
 11442  003EAE                     i2l3410:
 11443                           
 11444                           ;usb.c: 1294: else if (control_need_zlp) {
 11445  003EAE  0100               	movlb	0	; () banked
 11446  003EB0  51F4               	movf	_control_need_zlp& (0+255),w,b
 11447  003EB2  B4D8               	btfsc	status,2,c
 11448  003EB4  D00C               	goto	i2l3418
 11449                           
 11450                           ; BSR set to: 0
 11451                           ;usb.c: 1295: usb_send_in_buffer_0(0);
 11452  003EB6  0E00               	movlw	0
 11453  003EB8  6E03               	movwf	usb_send_in_buffer_0@len+1,c
 11454  003EBA  0E00               	movlw	0
 11455  003EBC  6E02               	movwf	usb_send_in_buffer_0@len,c
 11456  003EBE  EC35  F023         	call	_usb_send_in_buffer_0	;wreg free
 11457                           
 11458                           ;usb.c: 1296: control_need_zlp = 0;
 11459  003EC2  0E00               	movlw	0
 11460  003EC4  0100               	movlb	0	; () banked
 11461  003EC6  6FF4               	movwf	_control_need_zlp& (0+255),b
 11462                           
 11463                           ; BSR set to: 0
 11464                           ;usb.c: 1297: reset_ep0_data_stage();
 11465  003EC8  EC34  F024         	call	i2_reset_ep0_data_stage	;wreg free
 11466                           
 11467                           ;usb.c: 1298: }
 11468  003ECC  0012               	return	
 11469  003ECE                     i2l3418:
 11470                           
 11471                           ;usb.c: 1299: else {
 11472                           ;usb.c: 1300: if (ep0_data_stage_direc == 0 ) {
 11473  003ECE  0100               	movlb	0	; () banked
 11474  003ED0  51F6               	movf	_ep0_data_stage_direc& (0+255),w,b
 11475  003ED2  A4D8               	btfss	status,2,c
 11476  003ED4  0012               	return	
 11477                           
 11478                           ; BSR set to: 0
 11479                           ;usb.c: 1305: if (ep0_data_stage_callback)
 11480  003ED6  505D               	movf	_ep0_data_stage_callback,w,c
 11481  003ED8  105E               	iorwf	_ep0_data_stage_callback+1,w,c
 11482  003EDA  B4D8               	btfsc	status,2,c
 11483  003EDC  D011               	goto	i2l3424
 11484                           
 11485                           ; BSR set to: 0
 11486                           ;usb.c: 1306: ep0_data_stage_callback(1 , ep0_data_stage_context);
 11487  003EDE  D801               	call	i2u330_48
 11488  003EE0  D00F               	goto	i2l3424
 11489  003EE2                     i2u330_48:
 11490  003EE2  0005               	push	
 11491  003EE4  6EFA               	movwf	pclath,c
 11492  003EE6  505D               	movf	_ep0_data_stage_callback,w,c
 11493  003EE8  6EFD               	movwf	tosl,c
 11494  003EEA  505E               	movf	_ep0_data_stage_callback+1,w,c
 11495  003EEC  6EFE               	movwf	tosh,c
 11496  003EEE  50F8               	movf	tblptru,w,c
 11497  003EF0  6EFF               	movwf	tosu,c
 11498  003EF2  50FA               	movf	pclath,w,c
 11499  003EF4  C0F0  F003         	movff	_ep0_data_stage_context,set_line_coding@context
 11500  003EF8  C0F1  F004         	movff	_ep0_data_stage_context+1,set_line_coding@context+1
 11501  003EFC  0E01               	movlw	1
 11502  003EFE  0012               	return		;indir
 11503  003F00                     i2l3424:
 11504                           
 11505                           ;usb.c: 1307: reset_ep0_data_stage();
 11506  003F00  EC34  F024         	call	i2_reset_ep0_data_stage
 11507  003F04  0012               	return	
 11508  003F06  0012               	return		;funcret
 11509  003F08                     __end_of_handle_ep0_in:
 11510                           	opt stack 0
 11511                           tosu	equ	0xFFF
 11512                           tosh	equ	0xFFE
 11513                           tosl	equ	0xFFD
 11514                           pclatu	equ	0xFFB
 11515                           pclath	equ	0xFFA
 11516                           tblptru	equ	0xFF8
 11517                           tblptrh	equ	0xFF7
 11518                           tblptrl	equ	0xFF6
 11519                           tablat	equ	0xFF5
 11520                           prodh	equ	0xFF4
 11521                           prodl	equ	0xFF3
 11522                           intcon	equ	0xFF2
 11523                           postinc0	equ	0xFEE
 11524                           fsr0h	equ	0xFEA
 11525                           fsr0l	equ	0xFE9
 11526                           wreg	equ	0xFE8
 11527                           indf1	equ	0xFE7
 11528                           postinc1	equ	0xFE6
 11529                           postdec1	equ	0xFE5
 11530                           fsr1h	equ	0xFE2
 11531                           fsr1l	equ	0xFE1
 11532                           indf2	equ	0xFDF
 11533                           postinc2	equ	0xFDE
 11534                           postdec2	equ	0xFDD
 11535                           plusw2	equ	0xFDB
 11536                           fsr2h	equ	0xFDA
 11537                           fsr2l	equ	0xFD9
 11538                           status	equ	0xFD8
 11539                           
 11540 ;; *************** function i2_reset_ep0_data_stage *****************
 11541 ;; Defined at:
 11542 ;;		line 467 in file "usb.c"
 11543 ;; Parameters:    Size  Location     Type
 11544 ;;		None
 11545 ;; Auto vars:     Size  Location     Type
 11546 ;;		None
 11547 ;; Return value:  Size  Location     Type
 11548 ;;		None               void
 11549 ;; Registers used:
 11550 ;;		wreg, status,2, status,0
 11551 ;; Tracked objects:
 11552 ;;		On entry : 0/0
 11553 ;;		On exit  : 0/0
 11554 ;;		Unchanged: 0/0
 11555 ;; Data sizes:     COMRAM   BANK0   BANK1   BANK2   BANK3   BANK4   BANK5   BANK6   BANK7
 11556 ;;      Params:         0       0       0       0       0       0       0       0       0
 11557 ;;      Locals:         0       0       0       0       0       0       0       0       0
 11558 ;;      Temps:          0       0       0       0       0       0       0       0       0
 11559 ;;      Totals:         0       0       0       0       0       0       0       0       0
 11560 ;;Total ram usage:        0 bytes
 11561 ;; Hardware stack levels used:    1
 11562 ;; This function calls:
 11563 ;;		Nothing
 11564 ;; This function is called by:
 11565 ;;		_handle_ep0_setup
 11566 ;;		_handle_ep0_out
 11567 ;;		_handle_ep0_in
 11568 ;;		_usb_start_receive_ep0_data_stage
 11569 ;;		i2_usb_init
 11570 ;; This function uses a non-reentrant model
 11571 ;;
 11572                           
 11573                           	psect	text55
 11574  004868                     __ptext55:
 11575                           	opt stack 0
 11576  004868                     i2_reset_ep0_data_stage:
 11577                           	opt stack 24
 11578                           
 11579                           ;usb.c: 469: ep0_data_stage_in_buffer = (0);
 11580                           
 11581                           ;incstack = 0
 11582  004868  0E00               	movlw	0
 11583  00486A  0101               	movlb	1	; () banked
 11584  00486C  6F17               	movwf	_ep0_data_stage_in_buffer& (0+255),b
 11585  00486E  0E00               	movlw	0
 11586  004870  0101               	movlb	1	; () banked
 11587  004872  6F18               	movwf	(_ep0_data_stage_in_buffer+1)& (0+255),b
 11588                           
 11589                           ;usb.c: 470: ep0_data_stage_out_buffer = (0);
 11590  004874  0E00               	movlw	0
 11591  004876  0101               	movlb	1	; () banked
 11592  004878  6F19               	movwf	_ep0_data_stage_out_buffer& (0+255),b
 11593  00487A  0E00               	movlw	0
 11594  00487C  0101               	movlb	1	; () banked
 11595  00487E  6F1A               	movwf	(_ep0_data_stage_out_buffer+1)& (0+255),b
 11596                           
 11597                           ; BSR set to: 1
 11598                           ;usb.c: 471: ep0_data_stage_buf_remaining = 0;
 11599  004880  0E00               	movlw	0
 11600  004882  6E5C               	movwf	_ep0_data_stage_buf_remaining+1,c
 11601  004884  0E00               	movlw	0
 11602  004886  6E5B               	movwf	_ep0_data_stage_buf_remaining,c
 11603                           
 11604                           ; BSR set to: 1
 11605                           ;usb.c: 472: ep0_data_stage_callback = (0);
 11606  004888  0E00               	movlw	0
 11607  00488A  6E5D               	movwf	_ep0_data_stage_callback,c
 11608  00488C  0E00               	movlw	0
 11609  00488E  6E5E               	movwf	_ep0_data_stage_callback+1,c
 11610                           
 11611                           ; BSR set to: 1
 11612  004890  0012               	return		;funcret
 11613  004892                     __end_ofi2_reset_ep0_data_stage:
 11614                           	opt stack 0
 11615                           tosu	equ	0xFFF
 11616                           tosh	equ	0xFFE
 11617                           tosl	equ	0xFFD
 11618                           pclatu	equ	0xFFB
 11619                           pclath	equ	0xFFA
 11620                           tblptru	equ	0xFF8
 11621                           tblptrh	equ	0xFF7
 11622                           tblptrl	equ	0xFF6
 11623                           tablat	equ	0xFF5
 11624                           prodh	equ	0xFF4
 11625                           prodl	equ	0xFF3
 11626                           intcon	equ	0xFF2
 11627                           postinc0	equ	0xFEE
 11628                           fsr0h	equ	0xFEA
 11629                           fsr0l	equ	0xFE9
 11630                           wreg	equ	0xFE8
 11631                           indf1	equ	0xFE7
 11632                           postinc1	equ	0xFE6
 11633                           postdec1	equ	0xFE5
 11634                           fsr1h	equ	0xFE2
 11635                           fsr1l	equ	0xFE1
 11636                           indf2	equ	0xFDF
 11637                           postinc2	equ	0xFDE
 11638                           postdec2	equ	0xFDD
 11639                           plusw2	equ	0xFDB
 11640                           fsr2h	equ	0xFDA
 11641                           fsr2l	equ	0xFD9
 11642                           status	equ	0xFD8
 11643                           
 11644 ;; *************** function i2_memcpy *****************
 11645 ;; Defined at:
 11646 ;;		line 11 in file "C:\Program Files (x86)\Microchip\xc8\v1.34\sources\common\memcpy.c"
 11647 ;; Parameters:    Size  Location     Type
 11648 ;;  d1              2    0[COMRAM] PTR void 
 11649 ;;		 -> transfer_data(7), NULL(0), ep_buffers(155), 
 11650 ;;  s1              2    2[COMRAM] PTR const void 
 11651 ;;		 -> fake_serial_num(120), cdc_data_string(38), cdc_interface_string(28), product_string(26), 
 11652 ;;		 -> vendor_string(48), str00(4), configuration_1(70), transfer_data(7), 
 11653 ;;		 -> handle_standard_control_request@ret_593(1), handle_standard_control_request@ret_590(2), handle_standard_control_
      +request@ret(2), this_device_descriptor(18), 
 11654 ;;		 -> g_configuration(1), NULL(0), ep_buffers(155), 
 11655 ;;  n               2    4[COMRAM] unsigned int 
 11656 ;; Auto vars:     Size  Location     Type
 11657 ;;  memcpy          2    8[COMRAM] PTR const unsigned char 
 11658 ;;		 -> fake_serial_num(120), cdc_data_string(38), cdc_interface_string(28), product_string(26), 
 11659 ;;		 -> vendor_string(48), str00(4), configuration_1(70), transfer_data(7), 
 11660 ;;		 -> handle_standard_control_request@ret_593(1), handle_standard_control_request@ret_590(2), handle_standard_control_
      +request@ret(2), this_device_descriptor(18), 
 11661 ;;		 -> g_configuration(1), NULL(0), ep_buffers(155), 
 11662 ;;  memcpy          2    6[COMRAM] PTR unsigned char 
 11663 ;;		 -> transfer_data(7), NULL(0), ep_buffers(155), 
 11664 ;; Return value:  Size  Location     Type
 11665 ;;                  2    0[COMRAM] PTR void 
 11666 ;; Registers used:
 11667 ;;		wreg, fsr1l, fsr1h, fsr2l, fsr2h, status,2, status,0, tblptrl, tblptrh, tblptru
 11668 ;; Tracked objects:
 11669 ;;		On entry : 0/0
 11670 ;;		On exit  : 0/0
 11671 ;;		Unchanged: 0/0
 11672 ;; Data sizes:     COMRAM   BANK0   BANK1   BANK2   BANK3   BANK4   BANK5   BANK6   BANK7
 11673 ;;      Params:         6       0       0       0       0       0       0       0       0
 11674 ;;      Locals:         4       0       0       0       0       0       0       0       0
 11675 ;;      Temps:          0       0       0       0       0       0       0       0       0
 11676 ;;      Totals:        10       0       0       0       0       0       0       0       0
 11677 ;;Total ram usage:       10 bytes
 11678 ;; Hardware stack levels used:    1
 11679 ;; This function calls:
 11680 ;;		Nothing
 11681 ;; This function is called by:
 11682 ;;		_start_control_return
 11683 ;;		_handle_ep0_out
 11684 ;;		_handle_ep0_in
 11685 ;; This function uses a non-reentrant model
 11686 ;;
 11687                           
 11688                           	psect	text56
 11689  004480                     __ptext56:
 11690                           	opt stack 0
 11691  004480                     i2_memcpy:
 11692                           	opt stack 22
 11693                           
 11694                           ; BSR set to: 1
 11695                           ;incstack = 0
 11696  004480  C003  F009         	movff	i2memcpy@s1,i2memcpy@s
 11697  004484  C004  F00A         	movff	i2memcpy@s1+1,i2memcpy@s+1
 11698  004488  C001  F007         	movff	i2memcpy@d1,i2memcpy@d
 11699  00448C  C002  F008         	movff	i2memcpy@d1+1,i2memcpy@d+1
 11700  004490  D01A               	goto	i2l2752
 11701  004492                     i2l2746:
 11702  004492  C009  FFF6         	movff	i2memcpy@s,tblptrl
 11703  004496  C00A  FFF7         	movff	i2memcpy@s+1,tblptrh
 11704  00449A  6AF8               	clrf	tblptru,c
 11705  00449C  C007  FFD9         	movff	i2memcpy@d,fsr2l
 11706  0044A0  C008  FFDA         	movff	i2memcpy@d+1,fsr2h
 11707  0044A4  0E07               	movlw	(high __ramtop+-1)
 11708  0044A6  64F7               	cpfsgt	tblptrh,c
 11709  0044A8  D003               	bra	i2u215_47
 11710  0044AA  0008               	tblrd		*
 11711  0044AC  50F5               	movf	tablat,w,c
 11712  0044AE  D005               	bra	i2u215_40
 11713  0044B0                     i2u215_47:
 11714  0044B0  CFF6 FFE1          	movff	tblptrl,fsr1l
 11715  0044B4  CFF7 FFE2          	movff	tblptrh,fsr1h
 11716  0044B8  50E7               	movf	indf1,w,c
 11717  0044BA                     i2u215_40:
 11718  0044BA  6EDF               	movwf	indf2,c
 11719  0044BC  4A09               	infsnz	i2memcpy@s,f,c
 11720  0044BE  2A0A               	incf	i2memcpy@s+1,f,c
 11721  0044C0  4A07               	infsnz	i2memcpy@d,f,c
 11722  0044C2  2A08               	incf	i2memcpy@d+1,f,c
 11723  0044C4  D000               	goto	i2l2752
 11724  0044C6                     i2l2752:
 11725  0044C6  0605               	decf	i2memcpy@n,f,c
 11726  0044C8  A0D8               	btfss	status,0,c
 11727  0044CA  0606               	decf	i2memcpy@n+1,f,c
 11728  0044CC  2805               	incf	i2memcpy@n,w,c
 11729  0044CE  E1E1               	bnz	i2l2746
 11730  0044D0  2806               	incf	i2memcpy@n+1,w,c
 11731  0044D2  A4D8               	btfss	status,2,c
 11732  0044D4  D7DE               	goto	i2l2746
 11733                           
 11734                           ;	Return value of i2_memcpy is never used
 11735  0044D6  0012               	return		;funcret
 11736  0044D8                     __end_ofi2_memcpy:
 11737                           	opt stack 0
 11738                           tosu	equ	0xFFF
 11739                           tosh	equ	0xFFE
 11740                           tosl	equ	0xFFD
 11741                           pclatu	equ	0xFFB
 11742                           pclath	equ	0xFFA
 11743                           tblptru	equ	0xFF8
 11744                           tblptrh	equ	0xFF7
 11745                           tblptrl	equ	0xFF6
 11746                           tablat	equ	0xFF5
 11747                           prodh	equ	0xFF4
 11748                           prodl	equ	0xFF3
 11749                           intcon	equ	0xFF2
 11750                           postinc0	equ	0xFEE
 11751                           fsr0h	equ	0xFEA
 11752                           fsr0l	equ	0xFE9
 11753                           wreg	equ	0xFE8
 11754                           indf1	equ	0xFE7
 11755                           postinc1	equ	0xFE6
 11756                           postdec1	equ	0xFE5
 11757                           fsr1h	equ	0xFE2
 11758                           fsr1l	equ	0xFE1
 11759                           indf2	equ	0xFDF
 11760                           postinc2	equ	0xFDE
 11761                           postdec2	equ	0xFDD
 11762                           plusw2	equ	0xFDB
 11763                           fsr2h	equ	0xFDA
 11764                           fsr2l	equ	0xFD9
 11765                           status	equ	0xFD8
 11766                           
 11767 ;; *************** function _usb_send_in_buffer_0 *****************
 11768 ;; Defined at:
 11769 ;;		line 740 in file "usb.c"
 11770 ;; Parameters:    Size  Location     Type
 11771 ;;  len             2    1[COMRAM] unsigned int 
 11772 ;; Auto vars:     Size  Location     Type
 11773 ;;  pid             1    3[COMRAM] unsigned char 
 11774 ;; Return value:  Size  Location     Type
 11775 ;;		None               void
 11776 ;; Registers used:
 11777 ;;		wreg, fsr2l, fsr2h, status,2, status,0, prodl, prodh, cstack
 11778 ;; Tracked objects:
 11779 ;;		On entry : 0/0
 11780 ;;		On exit  : 0/0
 11781 ;;		Unchanged: 0/0
 11782 ;; Data sizes:     COMRAM   BANK0   BANK1   BANK2   BANK3   BANK4   BANK5   BANK6   BANK7
 11783 ;;      Params:         2       0       0       0       0       0       0       0       0
 11784 ;;      Locals:         1       0       0       0       0       0       0       0       0
 11785 ;;      Temps:          0       0       0       0       0       0       0       0       0
 11786 ;;      Totals:         3       0       0       0       0       0       0       0       0
 11787 ;;Total ram usage:        3 bytes
 11788 ;; Hardware stack levels used:    1
 11789 ;; Hardware stack levels required when called:    1
 11790 ;; This function calls:
 11791 ;;		i2_usb_in_endpoint_halted
 11792 ;; This function is called by:
 11793 ;;		_start_control_return
 11794 ;;		_handle_ep0_in
 11795 ;; This function uses a non-reentrant model
 11796 ;;
 11797                           
 11798                           	psect	text57
 11799  00466A                     __ptext57:
 11800                           	opt stack 0
 11801  00466A                     _usb_send_in_buffer_0:
 11802                           	opt stack 21
 11803                           
 11804                           ;usb.c: 742: if (!usb_in_endpoint_halted(0)) {
 11805                           
 11806                           ;incstack = 0
 11807  00466A  0E00               	movlw	0
 11808  00466C  EC95  F024         	call	i2_usb_in_endpoint_halted
 11809  004670  0900               	iorlw	0
 11810  004672  A4D8               	btfss	status,2,c
 11811  004674  0012               	return	
 11812                           
 11813                           ;usb.c: 760: uint8_t pid;
 11814                           ;usb.c: 761: pid = (ep0_buf.flags & 0x8)? 1 : 0;
 11815  004676  0100               	movlb	0	; () banked
 11816  004678  A7FF               	btfss	(_ep0_buf+4)& (0+255),3,b
 11817  00467A  D002               	goto	i2u212_40
 11818  00467C  0E01               	movlw	1
 11819  00467E  D001               	goto	i2u213_40
 11820  004680                     i2u212_40:
 11821  004680  0E00               	movlw	0
 11822  004682                     i2u213_40:
 11823  004682  6E04               	movwf	usb_send_in_buffer_0@pid,c
 11824                           
 11825                           ;usb.c: 762: bds[1].STAT.BDnSTAT = 0;
 11826  004684  0E00               	movlw	0
 11827  004686  0104               	movlb	4	; () banked
 11828  004688  6F04               	movwf	4,b
 11829                           
 11830                           ;usb.c: 764: if (pid)
 11831  00468A  5004               	movf	usb_send_in_buffer_0@pid,w,c
 11832  00468C  B4D8               	btfsc	status,2,c
 11833  00468E  D005               	goto	i2l148
 11834                           
 11835                           ; BSR set to: 4
 11836                           
 11837                           ;usb.c: 765: do { (bds[1]).BDnCNT = (len); (bds[1]).STAT.BDnSTAT = (0x80|0x40|0x08); } w
      +                          hile(0);
 11838  004690  C002  F405         	movff	usb_send_in_buffer_0@len,1029
 11839                           
 11840                           ; BSR set to: 4
 11841  004694  0EC8               	movlw	200
 11842  004696  D004               	goto	L9
 11843                           
 11844                           ; BSR set to: 4
 11845  004698  D006               	goto	i2l2742
 11846  00469A                     i2l148:
 11847                           
 11848                           ; BSR set to: 4
 11849  00469A  C002  F405         	movff	usb_send_in_buffer_0@len,1029
 11850                           
 11851                           ; BSR set to: 4
 11852  00469E  0E88               	movlw	136
 11853  0046A0                     L9:
 11854  0046A0  0104               	movlb	4	; () banked
 11855  0046A2  6F04               	movwf	4,b
 11856                           
 11857                           ; BSR set to: 4
 11858  0046A4  D000               	goto	i2l2742
 11859  0046A6                     i2l2742:
 11860                           
 11861                           ; BSR set to: 4
 11862                           ;usb.c: 771: ep0_buf.flags ^= 0x8;
 11863  0046A6  0E08               	movlw	8
 11864  0046A8  0100               	movlb	0	; () banked
 11865  0046AA  1BFF               	xorwf	(_ep0_buf+4)& (0+255),f,b
 11866  0046AC  0012               	return	
 11867                           
 11868                           ; BSR set to: 0
 11869  0046AE  0012               	return		;funcret
 11870  0046B0                     __end_of_usb_send_in_buffer_0:
 11871                           	opt stack 0
 11872                           tosu	equ	0xFFF
 11873                           tosh	equ	0xFFE
 11874                           tosl	equ	0xFFD
 11875                           pclatu	equ	0xFFB
 11876                           pclath	equ	0xFFA
 11877                           tblptru	equ	0xFF8
 11878                           tblptrh	equ	0xFF7
 11879                           tblptrl	equ	0xFF6
 11880                           tablat	equ	0xFF5
 11881                           prodh	equ	0xFF4
 11882                           prodl	equ	0xFF3
 11883                           intcon	equ	0xFF2
 11884                           postinc0	equ	0xFEE
 11885                           fsr0h	equ	0xFEA
 11886                           fsr0l	equ	0xFE9
 11887                           wreg	equ	0xFE8
 11888                           indf1	equ	0xFE7
 11889                           postinc1	equ	0xFE6
 11890                           postdec1	equ	0xFE5
 11891                           fsr1h	equ	0xFE2
 11892                           fsr1l	equ	0xFE1
 11893                           indf2	equ	0xFDF
 11894                           postinc2	equ	0xFDE
 11895                           postdec2	equ	0xFDD
 11896                           plusw2	equ	0xFDB
 11897                           fsr2h	equ	0xFDA
 11898                           fsr2l	equ	0xFD9
 11899                           status	equ	0xFD8
 11900                           
 11901 ;; *************** function i2_usb_in_endpoint_halted *****************
 11902 ;; Defined at:
 11903 ;;		line 1496 in file "usb.c"
 11904 ;; Parameters:    Size  Location     Type
 11905 ;;  endpoint        1    wreg     unsigned char 
 11906 ;; Auto vars:     Size  Location     Type
 11907 ;;  endpoint        1    0[COMRAM] unsigned char 
 11908 ;; Return value:  Size  Location     Type
 11909 ;;                  1    wreg      unsigned char 
 11910 ;; Registers used:
 11911 ;;		wreg, fsr2l, fsr2h, status,2, status,0, prodl, prodh
 11912 ;; Tracked objects:
 11913 ;;		On entry : 0/0
 11914 ;;		On exit  : 0/0
 11915 ;;		Unchanged: 0/0
 11916 ;; Data sizes:     COMRAM   BANK0   BANK1   BANK2   BANK3   BANK4   BANK5   BANK6   BANK7
 11917 ;;      Params:         0       0       0       0       0       0       0       0       0
 11918 ;;      Locals:         1       0       0       0       0       0       0       0       0
 11919 ;;      Temps:          0       0       0       0       0       0       0       0       0
 11920 ;;      Totals:         1       0       0       0       0       0       0       0       0
 11921 ;;Total ram usage:        1 bytes
 11922 ;; Hardware stack levels used:    1
 11923 ;; This function calls:
 11924 ;;		Nothing
 11925 ;; This function is called by:
 11926 ;;		_usb_send_in_buffer_0
 11927 ;; This function uses a non-reentrant model
 11928 ;;
 11929                           
 11930                           	psect	text58
 11931  00492A                     __ptext58:
 11932                           	opt stack 0
 11933  00492A                     i2_usb_in_endpoint_halted:
 11934                           	opt stack 21
 11935                           
 11936                           ;incstack = 0
 11937                           ;i2usb_in_endpoint_halted@endpoint stored from wreg
 11938  00492A  6E01               	movwf	i2usb_in_endpoint_halted@endpoint,c
 11939                           
 11940                           ;usb.c: 1498: return ep_buf[endpoint].flags & 0x2;
 11941  00492C  5001               	movf	i2usb_in_endpoint_halted@endpoint,w,c
 11942  00492E  0D07               	mullw	7
 11943  004930  0E06               	movlw	6
 11944  004932  26F3               	addwf	prodl,f,c
 11945  004934  0E00               	movlw	0
 11946  004936  22F4               	addwfc	prodh,f,c
 11947  004938  0E00               	movlw	low _ep_buf
 11948  00493A  24F3               	addwf	prodl,w,c
 11949  00493C  6ED9               	movwf	fsr2l,c
 11950  00493E  0E01               	movlw	high _ep_buf
 11951  004940  20F4               	addwfc	prodh,w,c
 11952  004942  6EDA               	movwf	fsr2h,c
 11953  004944  50DF               	movf	indf2,w,c
 11954  004946  0B02               	andlw	2
 11955  004948  0012               	return	
 11956  00494A  0012               	return		;funcret
 11957  00494C                     __end_ofi2_usb_in_endpoint_halted:
 11958                           	opt stack 0
 11959                           tosu	equ	0xFFF
 11960                           tosh	equ	0xFFE
 11961                           tosl	equ	0xFFD
 11962                           pclatu	equ	0xFFB
 11963                           pclath	equ	0xFFA
 11964                           tblptru	equ	0xFF8
 11965                           tblptrh	equ	0xFF7
 11966                           tblptrl	equ	0xFF6
 11967                           tablat	equ	0xFF5
 11968                           prodh	equ	0xFF4
 11969                           prodl	equ	0xFF3
 11970                           intcon	equ	0xFF2
 11971                           postinc0	equ	0xFEE
 11972                           fsr0h	equ	0xFEA
 11973                           fsr0l	equ	0xFE9
 11974                           wreg	equ	0xFE8
 11975                           indf1	equ	0xFE7
 11976                           postinc1	equ	0xFE6
 11977                           postdec1	equ	0xFE5
 11978                           fsr1h	equ	0xFE2
 11979                           fsr1l	equ	0xFE1
 11980                           indf2	equ	0xFDF
 11981                           postinc2	equ	0xFDE
 11982                           postdec2	equ	0xFDD
 11983                           plusw2	equ	0xFDB
 11984                           fsr2h	equ	0xFDA
 11985                           fsr2l	equ	0xFD9
 11986                           status	equ	0xFD8
 11987                           
 11988 ;; *************** function _set_line_coding *****************
 11989 ;; Defined at:
 11990 ;;		line 109 in file "usb_cdc.c"
 11991 ;; Parameters:    Size  Location     Type
 11992 ;;  transfer_ok     1    wreg     unsigned char 
 11993 ;;  context         2    2[COMRAM] PTR void 
 11994 ;;		 -> NULL(0), 
 11995 ;; Auto vars:     Size  Location     Type
 11996 ;;  transfer_ok     1    4[COMRAM] unsigned char 
 11997 ;; Return value:  Size  Location     Type
 11998 ;;		None               void
 11999 ;; Registers used:
 12000 ;;		wreg, status,2, status,0, cstack
 12001 ;; Tracked objects:
 12002 ;;		On entry : 0/0
 12003 ;;		On exit  : 0/0
 12004 ;;		Unchanged: 0/0
 12005 ;; Data sizes:     COMRAM   BANK0   BANK1   BANK2   BANK3   BANK4   BANK5   BANK6   BANK7
 12006 ;;      Params:         2       0       0       0       0       0       0       0       0
 12007 ;;      Locals:         1       0       0       0       0       0       0       0       0
 12008 ;;      Temps:          0       0       0       0       0       0       0       0       0
 12009 ;;      Totals:         3       0       0       0       0       0       0       0       0
 12010 ;;Total ram usage:        3 bytes
 12011 ;; Hardware stack levels used:    1
 12012 ;; Hardware stack levels required when called:    1
 12013 ;; This function calls:
 12014 ;;		_app_set_line_coding_callback
 12015 ;; This function is called by:
 12016 ;;		_process_cdc_setup_request
 12017 ;;		_handle_ep0_setup
 12018 ;;		_handle_ep0_out
 12019 ;;		_handle_ep0_in
 12020 ;; This function uses a non-reentrant model
 12021 ;;
 12022                           
 12023                           	psect	text59
 12024  00494C                     __ptext59:
 12025                           	opt stack 0
 12026  00494C                     _set_line_coding:
 12027                           	opt stack 23
 12028                           
 12029                           ;incstack = 0
 12030                           ;set_line_coding@transfer_ok stored from wreg
 12031  00494C  6E05               	movwf	set_line_coding@transfer_ok,c
 12032                           
 12033                           ;usb_cdc.c: 110: if (!transfer_ok)
 12034  00494E  5005               	movf	set_line_coding@transfer_ok,w,c
 12035  004950  B4D8               	btfsc	status,2,c
 12036  004952  0012               	return	
 12037  004954  D001               	goto	i2l3290
 12038                           
 12039                           ;usb_cdc.c: 111: return;
 12040  004956  0012               	return	
 12041  004958                     i2l3290:
 12042                           
 12043                           ;usb_cdc.c: 113: app_set_line_coding_callback(transfer_interface,
 12044                           ;usb_cdc.c: 114: &transfer_data.line_coding);
 12045  004958  0E1E               	movlw	low _transfer_data
 12046  00495A  6E01               	movwf	app_set_line_coding_callback@coding,c
 12047  00495C  0E01               	movlw	high _transfer_data
 12048  00495E  6E02               	movwf	app_set_line_coding_callback@coding+1,c
 12049  004960  0100               	movlb	0	; () banked
 12050  004962  51FA               	movf	_transfer_interface& (0+255),w,b
 12051  004964  EC20  F025         	call	_app_set_line_coding_callback
 12052  004968  0012               	return		;funcret
 12053  00496A                     __end_of_set_line_coding:
 12054                           	opt stack 0
 12055                           tosu	equ	0xFFF
 12056                           tosh	equ	0xFFE
 12057                           tosl	equ	0xFFD
 12058                           pclatu	equ	0xFFB
 12059                           pclath	equ	0xFFA
 12060                           tblptru	equ	0xFF8
 12061                           tblptrh	equ	0xFF7
 12062                           tblptrl	equ	0xFF6
 12063                           tablat	equ	0xFF5
 12064                           prodh	equ	0xFF4
 12065                           prodl	equ	0xFF3
 12066                           intcon	equ	0xFF2
 12067                           postinc0	equ	0xFEE
 12068                           fsr0h	equ	0xFEA
 12069                           fsr0l	equ	0xFE9
 12070                           wreg	equ	0xFE8
 12071                           indf1	equ	0xFE7
 12072                           postinc1	equ	0xFE6
 12073                           postdec1	equ	0xFE5
 12074                           fsr1h	equ	0xFE2
 12075                           fsr1l	equ	0xFE1
 12076                           indf2	equ	0xFDF
 12077                           postinc2	equ	0xFDE
 12078                           postdec2	equ	0xFDD
 12079                           plusw2	equ	0xFDB
 12080                           fsr2h	equ	0xFDA
 12081                           fsr2l	equ	0xFD9
 12082                           status	equ	0xFD8
 12083                           
 12084 ;; *************** function _set_or_clear_comm_feature_callback *****************
 12085 ;; Defined at:
 12086 ;;		line 84 in file "usb_cdc.c"
 12087 ;; Parameters:    Size  Location     Type
 12088 ;;  transfer_ok     1    wreg     unsigned char 
 12089 ;;  context         2    2[COMRAM] PTR void 
 12090 ;;		 -> NULL(0), 
 12091 ;; Auto vars:     Size  Location     Type
 12092 ;;  transfer_ok     1    4[COMRAM] unsigned char 
 12093 ;;  data_multipl    1    6[COMRAM] unsigned char 
 12094 ;;  idle_setting    1    5[COMRAM] unsigned char 
 12095 ;; Return value:  Size  Location     Type
 12096 ;;		None               void
 12097 ;; Registers used:
 12098 ;;		wreg, status,2, status,0, cstack
 12099 ;; Tracked objects:
 12100 ;;		On entry : 0/0
 12101 ;;		On exit  : 0/0
 12102 ;;		Unchanged: 0/0
 12103 ;; Data sizes:     COMRAM   BANK0   BANK1   BANK2   BANK3   BANK4   BANK5   BANK6   BANK7
 12104 ;;      Params:         2       0       0       0       0       0       0       0       0
 12105 ;;      Locals:         3       0       0       0       0       0       0       0       0
 12106 ;;      Temps:          0       0       0       0       0       0       0       0       0
 12107 ;;      Totals:         5       0       0       0       0       0       0       0       0
 12108 ;;Total ram usage:        5 bytes
 12109 ;; Hardware stack levels used:    1
 12110 ;; Hardware stack levels required when called:    1
 12111 ;; This function calls:
 12112 ;;		_app_clear_comm_feature_callback
 12113 ;;		_app_set_comm_feature_callback
 12114 ;; This function is called by:
 12115 ;;		_process_cdc_setup_request
 12116 ;;		_handle_ep0_setup
 12117 ;;		_handle_ep0_out
 12118 ;;		_handle_ep0_in
 12119 ;; This function uses a non-reentrant model
 12120 ;;
 12121                           
 12122                           	psect	text60
 12123  0044D8                     __ptext60:
 12124                           	opt stack 0
 12125  0044D8                     _set_or_clear_comm_feature_callback:
 12126                           	opt stack 23
 12127                           
 12128                           ;incstack = 0
 12129                           ;set_or_clear_comm_feature_callback@transfer_ok stored from wreg
 12130  0044D8  6E05               	movwf	set_or_clear_comm_feature_callback@transfer_ok,c
 12131                           
 12132                           ;usb_cdc.c: 88: if (!transfer_ok)
 12133  0044DA  5005               	movf	set_or_clear_comm_feature_callback@transfer_ok,w,c
 12134  0044DC  B4D8               	btfsc	status,2,c
 12135  0044DE  0012               	return	
 12136  0044E0  D001               	goto	i2l377
 12137                           
 12138                           ;usb_cdc.c: 89: return;
 12139  0044E2  0012               	return	
 12140  0044E4                     i2l377:
 12141                           
 12142                           ;usb_cdc.c: 91: bool idle_setting = (transfer_data.comm_feature & 1) != 0;
 12143  0044E4  0101               	movlb	1	; () banked
 12144  0044E6  A11E               	btfss	_transfer_data& (0+255),0,b
 12145  0044E8  D002               	goto	i2u297_40
 12146  0044EA  0E01               	movlw	1
 12147  0044EC  D001               	goto	i2u298_40
 12148  0044EE                     i2u297_40:
 12149  0044EE  0E00               	movlw	0
 12150  0044F0                     i2u298_40:
 12151  0044F0  6E06               	movwf	set_or_clear_comm_feature_callback@idle_setting,c
 12152                           
 12153                           ;usb_cdc.c: 92: bool data_multiplexed_state = (transfer_data.comm_feature & 2) != 0;
 12154  0044F2  0101               	movlb	1	; () banked
 12155  0044F4  A31E               	btfss	_transfer_data& (0+255),1,b
 12156  0044F6  D002               	goto	i2u299_40
 12157  0044F8  0E01               	movlw	1
 12158  0044FA  D001               	goto	i2u300_40
 12159  0044FC                     i2u299_40:
 12160  0044FC  0E00               	movlw	0
 12161  0044FE                     i2u300_40:
 12162  0044FE  6E07               	movwf	set_or_clear_comm_feature_callback@data_multiplexed_state,c
 12163                           
 12164                           ; BSR set to: 1
 12165                           ;usb_cdc.c: 94: if (set_or_clear_request == CDC_SET_COMM_FEATURE) {
 12166  004500  0E02               	movlw	2
 12167  004502  0100               	movlb	0	; () banked
 12168  004504  19F9               	xorwf	_set_or_clear_request& (0+255),w,b
 12169  004506  A4D8               	btfss	status,2,c
 12170  004508  D009               	goto	i2l3284
 12171                           
 12172                           ; BSR set to: 0
 12173                           ;usb_cdc.c: 95: app_set_comm_feature_callback(transfer_interface,
 12174                           ;usb_cdc.c: 96: idle_setting,
 12175                           ;usb_cdc.c: 97: data_multiplexed_state);
 12176  00450A  C006  F001         	movff	set_or_clear_comm_feature_callback@idle_setting,app_set_comm_feature_callback@idl
      +                          e_setting
 12177  00450E  C007  F002         	movff	set_or_clear_comm_feature_callback@data_multiplexed_state,app_set_comm_feature_ca
      +                          llback@data_multiplexed_state
 12178  004512  0100               	movlb	0	; () banked
 12179  004514  51FA               	movf	_transfer_interface& (0+255),w,b
 12180  004516  EC1E  F025         	call	_app_set_comm_feature_callback
 12181                           
 12182                           ;usb_cdc.c: 98: }
 12183  00451A  0012               	return	
 12184  00451C                     i2l3284:
 12185                           
 12186                           ;usb_cdc.c: 99: else {
 12187                           ;usb_cdc.c: 101: app_clear_comm_feature_callback(transfer_interface,
 12188                           ;usb_cdc.c: 102: idle_setting,
 12189                           ;usb_cdc.c: 103: data_multiplexed_state);
 12190  00451C  C006  F001         	movff	set_or_clear_comm_feature_callback@idle_setting,app_clear_comm_feature_callback@i
      +                          dle_setting
 12191  004520  C007  F002         	movff	set_or_clear_comm_feature_callback@data_multiplexed_state,app_clear_comm_feature_
      +                          callback@data_multiplexed_state
 12192  004524  0100               	movlb	0	; () banked
 12193  004526  51FA               	movf	_transfer_interface& (0+255),w,b
 12194  004528  EC1F  F025         	call	_app_clear_comm_feature_callback
 12195  00452C  0012               	return	
 12196  00452E  0012               	return		;funcret
 12197  004530                     __end_of_set_or_clear_comm_feature_callback:
 12198                           	opt stack 0
 12199                           tosu	equ	0xFFF
 12200                           tosh	equ	0xFFE
 12201                           tosl	equ	0xFFD
 12202                           pclatu	equ	0xFFB
 12203                           pclath	equ	0xFFA
 12204                           tblptru	equ	0xFF8
 12205                           tblptrh	equ	0xFF7
 12206                           tblptrl	equ	0xFF6
 12207                           tablat	equ	0xFF5
 12208                           prodh	equ	0xFF4
 12209                           prodl	equ	0xFF3
 12210                           intcon	equ	0xFF2
 12211                           postinc0	equ	0xFEE
 12212                           fsr0h	equ	0xFEA
 12213                           fsr0l	equ	0xFE9
 12214                           wreg	equ	0xFE8
 12215                           indf1	equ	0xFE7
 12216                           postinc1	equ	0xFE6
 12217                           postdec1	equ	0xFE5
 12218                           fsr1h	equ	0xFE2
 12219                           fsr1l	equ	0xFE1
 12220                           indf2	equ	0xFDF
 12221                           postinc2	equ	0xFDE
 12222                           postdec2	equ	0xFDD
 12223                           plusw2	equ	0xFDB
 12224                           fsr2h	equ	0xFDA
 12225                           fsr2l	equ	0xFD9
 12226                           status	equ	0xFD8
 12227                           
 12228 ;; *************** function _app_set_comm_feature_callback *****************
 12229 ;; Defined at:
 12230 ;;		line 326 in file "main.c"
 12231 ;; Parameters:    Size  Location     Type
 12232 ;;  interface       1    wreg     unsigned char 
 12233 ;;  idle_setting    1    0[COMRAM] unsigned char 
 12234 ;;  data_multipl    1    1[COMRAM] unsigned char 
 12235 ;; Auto vars:     Size  Location     Type
 12236 ;;  interface       1    0[COMRAM] unsigned char 
 12237 ;; Return value:  Size  Location     Type
 12238 ;;		None               void
 12239 ;; Registers used:
 12240 ;;		wreg
 12241 ;; Tracked objects:
 12242 ;;		On entry : 0/0
 12243 ;;		On exit  : 0/0
 12244 ;;		Unchanged: 0/0
 12245 ;; Data sizes:     COMRAM   BANK0   BANK1   BANK2   BANK3   BANK4   BANK5   BANK6   BANK7
 12246 ;;      Params:         2       0       0       0       0       0       0       0       0
 12247 ;;      Locals:         0       0       0       0       0       0       0       0       0
 12248 ;;      Temps:          0       0       0       0       0       0       0       0       0
 12249 ;;      Totals:         2       0       0       0       0       0       0       0       0
 12250 ;;Total ram usage:        2 bytes
 12251 ;; Hardware stack levels used:    1
 12252 ;; This function calls:
 12253 ;;		Nothing
 12254 ;; This function is called by:
 12255 ;;		_set_or_clear_comm_feature_callback
 12256 ;; This function uses a non-reentrant model
 12257 ;;
 12258                           
 12259                           	psect	text61
 12260  004A3C                     __ptext61:
 12261                           	opt stack 0
 12262  004A3C                     _app_set_comm_feature_callback:
 12263                           	opt stack 23
 12264                           
 12265                           ;incstack = 0
 12266  004A3C  0012               	return		;funcret
 12267  004A3E                     __end_of_app_set_comm_feature_callback:
 12268                           	opt stack 0
 12269                           tosu	equ	0xFFF
 12270                           tosh	equ	0xFFE
 12271                           tosl	equ	0xFFD
 12272                           pclatu	equ	0xFFB
 12273                           pclath	equ	0xFFA
 12274                           tblptru	equ	0xFF8
 12275                           tblptrh	equ	0xFF7
 12276                           tblptrl	equ	0xFF6
 12277                           tablat	equ	0xFF5
 12278                           prodh	equ	0xFF4
 12279                           prodl	equ	0xFF3
 12280                           intcon	equ	0xFF2
 12281                           postinc0	equ	0xFEE
 12282                           fsr0h	equ	0xFEA
 12283                           fsr0l	equ	0xFE9
 12284                           wreg	equ	0xFE8
 12285                           indf1	equ	0xFE7
 12286                           postinc1	equ	0xFE6
 12287                           postdec1	equ	0xFE5
 12288                           fsr1h	equ	0xFE2
 12289                           fsr1l	equ	0xFE1
 12290                           indf2	equ	0xFDF
 12291                           postinc2	equ	0xFDE
 12292                           postdec2	equ	0xFDD
 12293                           plusw2	equ	0xFDB
 12294                           fsr2h	equ	0xFDA
 12295                           fsr2l	equ	0xFD9
 12296                           status	equ	0xFD8
 12297                           
 12298 ;; *************** function _app_clear_comm_feature_callback *****************
 12299 ;; Defined at:
 12300 ;;		line 333 in file "main.c"
 12301 ;; Parameters:    Size  Location     Type
 12302 ;;  interface       1    wreg     unsigned char 
 12303 ;;  idle_setting    1    0[COMRAM] unsigned char 
 12304 ;;  data_multipl    1    1[COMRAM] unsigned char 
 12305 ;; Auto vars:     Size  Location     Type
 12306 ;;  interface       1    0[COMRAM] unsigned char 
 12307 ;; Return value:  Size  Location     Type
 12308 ;;		None               void
 12309 ;; Registers used:
 12310 ;;		wreg
 12311 ;; Tracked objects:
 12312 ;;		On entry : 0/0
 12313 ;;		On exit  : 0/0
 12314 ;;		Unchanged: 0/0
 12315 ;; Data sizes:     COMRAM   BANK0   BANK1   BANK2   BANK3   BANK4   BANK5   BANK6   BANK7
 12316 ;;      Params:         2       0       0       0       0       0       0       0       0
 12317 ;;      Locals:         0       0       0       0       0       0       0       0       0
 12318 ;;      Temps:          0       0       0       0       0       0       0       0       0
 12319 ;;      Totals:         2       0       0       0       0       0       0       0       0
 12320 ;;Total ram usage:        2 bytes
 12321 ;; Hardware stack levels used:    1
 12322 ;; This function calls:
 12323 ;;		Nothing
 12324 ;; This function is called by:
 12325 ;;		_set_or_clear_comm_feature_callback
 12326 ;; This function uses a non-reentrant model
 12327 ;;
 12328                           
 12329                           	psect	text62
 12330  004A3E                     __ptext62:
 12331                           	opt stack 0
 12332  004A3E                     _app_clear_comm_feature_callback:
 12333                           	opt stack 23
 12334                           
 12335                           ;incstack = 0
 12336  004A3E  0012               	return		;funcret
 12337  004A40                     __end_of_app_clear_comm_feature_callback:
 12338                           	opt stack 0
 12339                           tosu	equ	0xFFF
 12340                           tosh	equ	0xFFE
 12341                           tosl	equ	0xFFD
 12342                           pclatu	equ	0xFFB
 12343                           pclath	equ	0xFFA
 12344                           tblptru	equ	0xFF8
 12345                           tblptrh	equ	0xFF7
 12346                           tblptrl	equ	0xFF6
 12347                           tablat	equ	0xFF5
 12348                           prodh	equ	0xFF4
 12349                           prodl	equ	0xFF3
 12350                           intcon	equ	0xFF2
 12351                           postinc0	equ	0xFEE
 12352                           fsr0h	equ	0xFEA
 12353                           fsr0l	equ	0xFE9
 12354                           wreg	equ	0xFE8
 12355                           indf1	equ	0xFE7
 12356                           postinc1	equ	0xFE6
 12357                           postdec1	equ	0xFE5
 12358                           fsr1h	equ	0xFE2
 12359                           fsr1l	equ	0xFE1
 12360                           indf2	equ	0xFDF
 12361                           postinc2	equ	0xFDE
 12362                           postdec2	equ	0xFDD
 12363                           plusw2	equ	0xFDB
 12364                           fsr2h	equ	0xFDA
 12365                           fsr2l	equ	0xFD9
 12366                           status	equ	0xFD8
 12367                           
 12368 ;; *************** function _app_set_line_coding_callback *****************
 12369 ;; Defined at:
 12370 ;;		line 347 in file "main.c"
 12371 ;; Parameters:    Size  Location     Type
 12372 ;;  interface       1    wreg     unsigned char 
 12373 ;;  coding          2    0[COMRAM] PTR const struct cdc_lin
 12374 ;;		 -> transfer_data(7), 
 12375 ;; Auto vars:     Size  Location     Type
 12376 ;;  interface       1    0[COMRAM] unsigned char 
 12377 ;; Return value:  Size  Location     Type
 12378 ;;		None               void
 12379 ;; Registers used:
 12380 ;;		wreg
 12381 ;; Tracked objects:
 12382 ;;		On entry : 0/0
 12383 ;;		On exit  : 0/0
 12384 ;;		Unchanged: 0/0
 12385 ;; Data sizes:     COMRAM   BANK0   BANK1   BANK2   BANK3   BANK4   BANK5   BANK6   BANK7
 12386 ;;      Params:         2       0       0       0       0       0       0       0       0
 12387 ;;      Locals:         0       0       0       0       0       0       0       0       0
 12388 ;;      Temps:          0       0       0       0       0       0       0       0       0
 12389 ;;      Totals:         2       0       0       0       0       0       0       0       0
 12390 ;;Total ram usage:        2 bytes
 12391 ;; Hardware stack levels used:    1
 12392 ;; This function calls:
 12393 ;;		Nothing
 12394 ;; This function is called by:
 12395 ;;		_set_line_coding
 12396 ;; This function uses a non-reentrant model
 12397 ;;
 12398                           
 12399                           	psect	text63
 12400  004A40                     __ptext63:
 12401                           	opt stack 0
 12402  004A40                     _app_set_line_coding_callback:
 12403                           	opt stack 23
 12404                           
 12405                           ;incstack = 0
 12406  004A40  0012               	return		;funcret
 12407  004A42                     __end_of_app_set_line_coding_callback:
 12408                           	opt stack 0
 12409                           tosu	equ	0xFFF
 12410                           tosh	equ	0xFFE
 12411                           tosl	equ	0xFFD
 12412                           pclatu	equ	0xFFB
 12413                           pclath	equ	0xFFA
 12414                           tblptru	equ	0xFF8
 12415                           tblptrh	equ	0xFF7
 12416                           tblptrl	equ	0xFF6
 12417                           tablat	equ	0xFF5
 12418                           prodh	equ	0xFF4
 12419                           prodl	equ	0xFF3
 12420                           intcon	equ	0xFF2
 12421                           postinc0	equ	0xFEE
 12422                           fsr0h	equ	0xFEA
 12423                           fsr0l	equ	0xFE9
 12424                           wreg	equ	0xFE8
 12425                           indf1	equ	0xFE7
 12426                           postinc1	equ	0xFE6
 12427                           postdec1	equ	0xFE5
 12428                           fsr1h	equ	0xFE2
 12429                           fsr1l	equ	0xFE1
 12430                           indf2	equ	0xFDF
 12431                           postinc2	equ	0xFDE
 12432                           postdec2	equ	0xFDD
 12433                           plusw2	equ	0xFDB
 12434                           fsr2h	equ	0xFDA
 12435                           fsr2l	equ	0xFD9
 12436                           status	equ	0xFD8
 12437                           
 12438 ;; *************** function _app_usb_reset_callback *****************
 12439 ;; Defined at:
 12440 ;;		line 306 in file "main.c"
 12441 ;; Parameters:    Size  Location     Type
 12442 ;;		None
 12443 ;; Auto vars:     Size  Location     Type
 12444 ;;		None
 12445 ;; Return value:  Size  Location     Type
 12446 ;;		None               void
 12447 ;; Registers used:
 12448 ;;		None
 12449 ;; Tracked objects:
 12450 ;;		On entry : 0/0
 12451 ;;		On exit  : 0/0
 12452 ;;		Unchanged: 0/0
 12453 ;; Data sizes:     COMRAM   BANK0   BANK1   BANK2   BANK3   BANK4   BANK5   BANK6   BANK7
 12454 ;;      Params:         0       0       0       0       0       0       0       0       0
 12455 ;;      Locals:         0       0       0       0       0       0       0       0       0
 12456 ;;      Temps:          0       0       0       0       0       0       0       0       0
 12457 ;;      Totals:         0       0       0       0       0       0       0       0       0
 12458 ;;Total ram usage:        0 bytes
 12459 ;; Hardware stack levels used:    1
 12460 ;; This function calls:
 12461 ;;		Nothing
 12462 ;; This function is called by:
 12463 ;;		_usb_service
 12464 ;; This function uses a non-reentrant model
 12465 ;;
 12466                           
 12467                           	psect	text64
 12468  004A42                     __ptext64:
 12469                           	opt stack 0
 12470  004A42                     _app_usb_reset_callback:
 12471                           	opt stack 25
 12472                           
 12473                           ;incstack = 0
 12474  004A42  0012               	return		;funcret
 12475  004A44                     __end_of_app_usb_reset_callback:
 12476                           	opt stack 0
 12477                           tosu	equ	0xFFF
 12478                           tosh	equ	0xFFE
 12479                           tosl	equ	0xFFD
 12480                           pclatu	equ	0xFFB
 12481                           pclath	equ	0xFFA
 12482                           tblptru	equ	0xFF8
 12483                           tblptrh	equ	0xFF7
 12484                           tblptrl	equ	0xFF6
 12485                           tablat	equ	0xFF5
 12486                           prodh	equ	0xFF4
 12487                           prodl	equ	0xFF3
 12488                           intcon	equ	0xFF2
 12489                           postinc0	equ	0xFEE
 12490                           fsr0h	equ	0xFEA
 12491                           fsr0l	equ	0xFE9
 12492                           wreg	equ	0xFE8
 12493                           indf1	equ	0xFE7
 12494                           postinc1	equ	0xFE6
 12495                           postdec1	equ	0xFE5
 12496                           fsr1h	equ	0xFE2
 12497                           fsr1l	equ	0xFE1
 12498                           indf2	equ	0xFDF
 12499                           postinc2	equ	0xFDE
 12500                           postdec2	equ	0xFDD
 12501                           plusw2	equ	0xFDB
 12502                           fsr2h	equ	0xFDA
 12503                           fsr2l	equ	0xFD9
 12504                           status	equ	0xFD8
 12505                           
 12506 ;; *************** function _app_start_of_frame_callback *****************
 12507 ;; Defined at:
 12508 ;;		line 301 in file "main.c"
 12509 ;; Parameters:    Size  Location     Type
 12510 ;;		None
 12511 ;; Auto vars:     Size  Location     Type
 12512 ;;		None
 12513 ;; Return value:  Size  Location     Type
 12514 ;;		None               void
 12515 ;; Registers used:
 12516 ;;		None
 12517 ;; Tracked objects:
 12518 ;;		On entry : 0/0
 12519 ;;		On exit  : 0/0
 12520 ;;		Unchanged: 0/0
 12521 ;; Data sizes:     COMRAM   BANK0   BANK1   BANK2   BANK3   BANK4   BANK5   BANK6   BANK7
 12522 ;;      Params:         0       0       0       0       0       0       0       0       0
 12523 ;;      Locals:         0       0       0       0       0       0       0       0       0
 12524 ;;      Temps:          0       0       0       0       0       0       0       0       0
 12525 ;;      Totals:         0       0       0       0       0       0       0       0       0
 12526 ;;Total ram usage:        0 bytes
 12527 ;; Hardware stack levels used:    1
 12528 ;; This function calls:
 12529 ;;		Nothing
 12530 ;; This function is called by:
 12531 ;;		_usb_service
 12532 ;; This function uses a non-reentrant model
 12533 ;;
 12534                           
 12535                           	psect	text65
 12536  004A44                     __ptext65:
 12537                           	opt stack 0
 12538  004A44                     _app_start_of_frame_callback:
 12539                           	opt stack 25
 12540                           
 12541                           ;incstack = 0
 12542  004A44  0012               	return		;funcret
 12543  004A46                     __end_of_app_start_of_frame_callback:
 12544                           	opt stack 0
 12545                           tosu	equ	0xFFF
 12546                           tosh	equ	0xFFE
 12547                           tosl	equ	0xFFD
 12548                           pclatu	equ	0xFFB
 12549                           pclath	equ	0xFFA
 12550                           tblptru	equ	0xFF8
 12551                           tblptrh	equ	0xFF7
 12552                           tblptrl	equ	0xFF6
 12553                           tablat	equ	0xFF5
 12554                           prodh	equ	0xFF4
 12555                           prodl	equ	0xFF3
 12556                           intcon	equ	0xFF2
 12557                           postinc0	equ	0xFEE
 12558                           fsr0h	equ	0xFEA
 12559                           fsr0l	equ	0xFE9
 12560                           wreg	equ	0xFE8
 12561                           indf1	equ	0xFE7
 12562                           postinc1	equ	0xFE6
 12563                           postdec1	equ	0xFE5
 12564                           fsr1h	equ	0xFE2
 12565                           fsr1l	equ	0xFE1
 12566                           indf2	equ	0xFDF
 12567                           postinc2	equ	0xFDE
 12568                           postdec2	equ	0xFDD
 12569                           plusw2	equ	0xFDB
 12570                           fsr2h	equ	0xFDA
 12571                           fsr2l	equ	0xFD9
 12572                           status	equ	0xFD8
 12573                           
 12574 ;; *************** function _app_out_transaction_callback *****************
 12575 ;; Defined at:
 12576 ;;		line 273 in file "main.c"
 12577 ;; Parameters:    Size  Location     Type
 12578 ;;  endpoint        1    wreg     unsigned char 
 12579 ;; Auto vars:     Size  Location     Type
 12580 ;;  endpoint        1    0[COMRAM] unsigned char 
 12581 ;; Return value:  Size  Location     Type
 12582 ;;		None               void
 12583 ;; Registers used:
 12584 ;;		wreg
 12585 ;; Tracked objects:
 12586 ;;		On entry : 0/0
 12587 ;;		On exit  : 0/0
 12588 ;;		Unchanged: 0/0
 12589 ;; Data sizes:     COMRAM   BANK0   BANK1   BANK2   BANK3   BANK4   BANK5   BANK6   BANK7
 12590 ;;      Params:         0       0       0       0       0       0       0       0       0
 12591 ;;      Locals:         0       0       0       0       0       0       0       0       0
 12592 ;;      Temps:          0       0       0       0       0       0       0       0       0
 12593 ;;      Totals:         0       0       0       0       0       0       0       0       0
 12594 ;;Total ram usage:        0 bytes
 12595 ;; Hardware stack levels used:    1
 12596 ;; This function calls:
 12597 ;;		Nothing
 12598 ;; This function is called by:
 12599 ;;		_usb_service
 12600 ;; This function uses a non-reentrant model
 12601 ;;
 12602                           
 12603                           	psect	text66
 12604  004A46                     __ptext66:
 12605                           	opt stack 0
 12606  004A46                     _app_out_transaction_callback:
 12607                           	opt stack 25
 12608                           
 12609                           ;incstack = 0
 12610  004A46  0012               	return		;funcret
 12611  004A48                     __end_of_app_out_transaction_callback:
 12612                           	opt stack 0
 12613                           tosu	equ	0xFFF
 12614                           tosh	equ	0xFFE
 12615                           tosl	equ	0xFFD
 12616                           pclatu	equ	0xFFB
 12617                           pclath	equ	0xFFA
 12618                           tblptru	equ	0xFF8
 12619                           tblptrh	equ	0xFF7
 12620                           tblptrl	equ	0xFF6
 12621                           tablat	equ	0xFF5
 12622                           prodh	equ	0xFF4
 12623                           prodl	equ	0xFF3
 12624                           intcon	equ	0xFF2
 12625                           postinc0	equ	0xFEE
 12626                           fsr0h	equ	0xFEA
 12627                           fsr0l	equ	0xFE9
 12628                           wreg	equ	0xFE8
 12629                           indf1	equ	0xFE7
 12630                           postinc1	equ	0xFE6
 12631                           postdec1	equ	0xFE5
 12632                           fsr1h	equ	0xFE2
 12633                           fsr1l	equ	0xFE1
 12634                           indf2	equ	0xFDF
 12635                           postinc2	equ	0xFDE
 12636                           postdec2	equ	0xFDD
 12637                           plusw2	equ	0xFDB
 12638                           fsr2h	equ	0xFDA
 12639                           fsr2l	equ	0xFD9
 12640                           status	equ	0xFD8
 12641                           
 12642 ;; *************** function _app_in_transaction_complete_callback *****************
 12643 ;; Defined at:
 12644 ;;		line 278 in file "main.c"
 12645 ;; Parameters:    Size  Location     Type
 12646 ;;  endpoint        1    wreg     unsigned char 
 12647 ;; Auto vars:     Size  Location     Type
 12648 ;;  endpoint        1    0[COMRAM] unsigned char 
 12649 ;; Return value:  Size  Location     Type
 12650 ;;		None               void
 12651 ;; Registers used:
 12652 ;;		wreg
 12653 ;; Tracked objects:
 12654 ;;		On entry : 0/0
 12655 ;;		On exit  : 0/0
 12656 ;;		Unchanged: 0/0
 12657 ;; Data sizes:     COMRAM   BANK0   BANK1   BANK2   BANK3   BANK4   BANK5   BANK6   BANK7
 12658 ;;      Params:         0       0       0       0       0       0       0       0       0
 12659 ;;      Locals:         0       0       0       0       0       0       0       0       0
 12660 ;;      Temps:          0       0       0       0       0       0       0       0       0
 12661 ;;      Totals:         0       0       0       0       0       0       0       0       0
 12662 ;;Total ram usage:        0 bytes
 12663 ;; Hardware stack levels used:    1
 12664 ;; This function calls:
 12665 ;;		Nothing
 12666 ;; This function is called by:
 12667 ;;		_usb_service
 12668 ;; This function uses a non-reentrant model
 12669 ;;
 12670                           
 12671                           	psect	text67
 12672  004A48                     __ptext67:
 12673                           	opt stack 0
 12674  004A48                     _app_in_transaction_complete_callback:
 12675                           	opt stack 25
 12676                           
 12677                           ;incstack = 0
 12678  004A48  0012               	return		;funcret
 12679  004A4A                     __end_of_app_in_transaction_complete_callback:
 12680                           	opt stack 0
 12681                           tosu	equ	0xFFF
 12682                           tosh	equ	0xFFE
 12683                           tosl	equ	0xFFD
 12684                           pclatu	equ	0xFFB
 12685                           pclath	equ	0xFFA
 12686                           tblptru	equ	0xFF8
 12687                           tblptrh	equ	0xFF7
 12688                           tblptrl	equ	0xFF6
 12689                           tablat	equ	0xFF5
 12690                           prodh	equ	0xFF4
 12691                           prodl	equ	0xFF3
 12692                           intcon	equ	0xFF2
 12693                           postinc0	equ	0xFEE
 12694                           fsr0h	equ	0xFEA
 12695                           fsr0l	equ	0xFE9
 12696                           wreg	equ	0xFE8
 12697                           indf1	equ	0xFE7
 12698                           postinc1	equ	0xFE6
 12699                           postdec1	equ	0xFE5
 12700                           fsr1h	equ	0xFE2
 12701                           fsr1l	equ	0xFE1
 12702                           indf2	equ	0xFDF
 12703                           postinc2	equ	0xFDE
 12704                           postdec2	equ	0xFDD
 12705                           plusw2	equ	0xFDB
 12706                           fsr2h	equ	0xFDA
 12707                           fsr2l	equ	0xFD9
 12708                           status	equ	0xFD8
 12709                           
 12710 ;; *************** function _timer_interrupt *****************
 12711 ;; Defined at:
 12712 ;;		line 21 in file "timers.c"
 12713 ;; Parameters:    Size  Location     Type
 12714 ;;		None
 12715 ;; Auto vars:     Size  Location     Type
 12716 ;;		None
 12717 ;; Return value:  Size  Location     Type
 12718 ;;		None               void
 12719 ;; Registers used:
 12720 ;;		wreg, status,2, status,0
 12721 ;; Tracked objects:
 12722 ;;		On entry : 0/0
 12723 ;;		On exit  : 0/0
 12724 ;;		Unchanged: 0/0
 12725 ;; Data sizes:     COMRAM   BANK0   BANK1   BANK2   BANK3   BANK4   BANK5   BANK6   BANK7
 12726 ;;      Params:         0       0       0       0       0       0       0       0       0
 12727 ;;      Locals:         0       0       0       0       0       0       0       0       0
 12728 ;;      Temps:          0       0       0       0       0       0       0       0       0
 12729 ;;      Totals:         0       0       0       0       0       0       0       0       0
 12730 ;;Total ram usage:        0 bytes
 12731 ;; Hardware stack levels used:    1
 12732 ;; This function calls:
 12733 ;;		Nothing
 12734 ;; This function is called by:
 12735 ;;		_isr
 12736 ;; This function uses a non-reentrant model
 12737 ;;
 12738                           
 12739                           	psect	text68
 12740  0046B0                     __ptext68:
 12741                           	opt stack 0
 12742  0046B0                     _timer_interrupt:
 12743                           	opt stack 26
 12744                           
 12745                           ;timers.c: 23: static char i = 0;
 12746                           ;timers.c: 24: PIR1bits.TMR1IF = 0;
 12747                           
 12748                           ;incstack = 0
 12749  0046B0  909E               	bcf	3998,0,c	;volatile
 12750                           
 12751                           ;timers.c: 25: T1CONbits.TMR1ON = 0;
 12752  0046B2  90CD               	bcf	4045,0,c	;volatile
 12753                           
 12754                           ;timers.c: 26: TMR1H = 0x0B;
 12755  0046B4  0E0B               	movlw	11
 12756  0046B6  6ECF               	movwf	4047,c	;volatile
 12757                           
 12758                           ;timers.c: 27: TMR1L = 0xDB;
 12759  0046B8  0EDB               	movlw	219
 12760  0046BA  6ECE               	movwf	4046,c	;volatile
 12761                           
 12762                           ;timers.c: 28: T1CONbits.TMR1ON = 1;
 12763  0046BC  80CD               	bsf	4045,0,c	;volatile
 12764                           
 12765                           ;timers.c: 30: ledState++;
 12766  0046BE  0101               	movlb	1	; () banked
 12767  0046C0  4B1B               	infsnz	_ledState& (0+255),f,b
 12768  0046C2  2B1C               	incf	(_ledState+1)& (0+255),f,b
 12769                           
 12770                           ; BSR set to: 1
 12771                           ;timers.c: 32: if(ledState == 10*12)
 12772  0046C4  0E78               	movlw	120
 12773  0046C6  0101               	movlb	1	; () banked
 12774  0046C8  191B               	xorwf	_ledState& (0+255),w,b
 12775  0046CA  0101               	movlb	1	; () banked
 12776  0046CC  111C               	iorwf	(_ledState+1)& (0+255),w,b
 12777  0046CE  A4D8               	btfss	status,2,c
 12778  0046D0  0012               	return	
 12779                           
 12780                           ; BSR set to: 1
 12781                           ;timers.c: 33: {
 12782                           ;timers.c: 34: PORTBbits.RB6 = ~PORTBbits.RB6;
 12783  0046D2  7C81               	btg	3969,6,c	;volatile
 12784                           
 12785                           ; BSR set to: 1
 12786                           ;timers.c: 35: ledState = 0;
 12787  0046D4  0E00               	movlw	0
 12788  0046D6  0101               	movlb	1	; () banked
 12789  0046D8  6F1C               	movwf	(_ledState+1)& (0+255),b
 12790  0046DA  0E00               	movlw	0
 12791  0046DC  6F1B               	movwf	_ledState& (0+255),b
 12792                           
 12793                           ;timers.c: 36: sendDataToPC = 1;
 12794  0046DE  0E01               	movlw	1
 12795  0046E0  0100               	movlb	0	; () banked
 12796  0046E2  6FF8               	movwf	_sendDataToPC& (0+255),b
 12797  0046E4  0012               	return	
 12798                           
 12799                           ; BSR set to: 0
 12800  0046E6  0012               	return		;funcret
 12801  0046E8                     __end_of_timer_interrupt:
 12802                           	opt stack 0
 12803                           tosu	equ	0xFFF
 12804                           tosh	equ	0xFFE
 12805                           tosl	equ	0xFFD
 12806                           pclatu	equ	0xFFB
 12807                           pclath	equ	0xFFA
 12808                           tblptru	equ	0xFF8
 12809                           tblptrh	equ	0xFF7
 12810                           tblptrl	equ	0xFF6
 12811                           tablat	equ	0xFF5
 12812                           prodh	equ	0xFF4
 12813                           prodl	equ	0xFF3
 12814                           intcon	equ	0xFF2
 12815                           postinc0	equ	0xFEE
 12816                           fsr0h	equ	0xFEA
 12817                           fsr0l	equ	0xFE9
 12818                           wreg	equ	0xFE8
 12819                           indf1	equ	0xFE7
 12820                           postinc1	equ	0xFE6
 12821                           postdec1	equ	0xFE5
 12822                           fsr1h	equ	0xFE2
 12823                           fsr1l	equ	0xFE1
 12824                           indf2	equ	0xFDF
 12825                           postinc2	equ	0xFDE
 12826                           postdec2	equ	0xFDD
 12827                           plusw2	equ	0xFDB
 12828                           fsr2h	equ	0xFDA
 12829                           fsr2l	equ	0xFD9
 12830                           status	equ	0xFD8
 12831                           tosu	equ	0xFFF
 12832                           tosh	equ	0xFFE
 12833                           tosl	equ	0xFFD
 12834                           pclatu	equ	0xFFB
 12835                           pclath	equ	0xFFA
 12836                           tblptru	equ	0xFF8
 12837                           tblptrh	equ	0xFF7
 12838                           tblptrl	equ	0xFF6
 12839                           tablat	equ	0xFF5
 12840                           prodh	equ	0xFF4
 12841                           prodl	equ	0xFF3
 12842                           intcon	equ	0xFF2
 12843                           postinc0	equ	0xFEE
 12844                           fsr0h	equ	0xFEA
 12845                           fsr0l	equ	0xFE9
 12846                           wreg	equ	0xFE8
 12847                           indf1	equ	0xFE7
 12848                           postinc1	equ	0xFE6
 12849                           postdec1	equ	0xFE5
 12850                           fsr1h	equ	0xFE2
 12851                           fsr1l	equ	0xFE1
 12852                           indf2	equ	0xFDF
 12853                           postinc2	equ	0xFDE
 12854                           postdec2	equ	0xFDD
 12855                           plusw2	equ	0xFDB
 12856                           fsr2h	equ	0xFDA
 12857                           fsr2l	equ	0xFD9
 12858                           status	equ	0xFD8
 12859                           
 12860                           	psect	text69
 12861  000000                     __ptext69:
 12862                           	opt stack 0
 12863                           tosu	equ	0xFFF
 12864                           tosh	equ	0xFFE
 12865                           tosl	equ	0xFFD
 12866                           pclatu	equ	0xFFB
 12867                           pclath	equ	0xFFA
 12868                           tblptru	equ	0xFF8
 12869                           tblptrh	equ	0xFF7
 12870                           tblptrl	equ	0xFF6
 12871                           tablat	equ	0xFF5
 12872                           prodh	equ	0xFF4
 12873                           prodl	equ	0xFF3
 12874                           intcon	equ	0xFF2
 12875                           postinc0	equ	0xFEE
 12876                           fsr0h	equ	0xFEA
 12877                           fsr0l	equ	0xFE9
 12878                           wreg	equ	0xFE8
 12879                           indf1	equ	0xFE7
 12880                           postinc1	equ	0xFE6
 12881                           postdec1	equ	0xFE5
 12882                           fsr1h	equ	0xFE2
 12883                           fsr1l	equ	0xFE1
 12884                           indf2	equ	0xFDF
 12885                           postinc2	equ	0xFDE
 12886                           postdec2	equ	0xFDD
 12887                           plusw2	equ	0xFDB
 12888                           fsr2h	equ	0xFDA
 12889                           fsr2l	equ	0xFD9
 12890                           status	equ	0xFD8
 12891                           
 12892                           	psect	rparam
 12893  0000                     tosu	equ	0xFFF
 12894                           tosh	equ	0xFFE
 12895                           tosl	equ	0xFFD
 12896                           pclatu	equ	0xFFB
 12897                           pclath	equ	0xFFA
 12898                           tblptru	equ	0xFF8
 12899                           tblptrh	equ	0xFF7
 12900                           tblptrl	equ	0xFF6
 12901                           tablat	equ	0xFF5
 12902                           prodh	equ	0xFF4
 12903                           prodl	equ	0xFF3
 12904                           intcon	equ	0xFF2
 12905                           postinc0	equ	0xFEE
 12906                           fsr0h	equ	0xFEA
 12907                           fsr0l	equ	0xFE9
 12908                           wreg	equ	0xFE8
 12909                           indf1	equ	0xFE7
 12910                           postinc1	equ	0xFE6
 12911                           postdec1	equ	0xFE5
 12912                           fsr1h	equ	0xFE2
 12913                           fsr1l	equ	0xFE1
 12914                           indf2	equ	0xFDF
 12915                           postinc2	equ	0xFDE
 12916                           postdec2	equ	0xFDD
 12917                           plusw2	equ	0xFDB
 12918                           fsr2h	equ	0xFDA
 12919                           fsr2l	equ	0xFD9
 12920                           status	equ	0xFD8


Data Sizes:
    Strings     204
    Constant    462
    Data        28
    BSS         30
    Persistent  0
    Stack       0

Auto Spaces:
    Space          Size  Autos    Used
    COMRAM           95     90      95
    BANK0           160    144     160
    BANK1           256      0      37
    BANK2           256      0       0
    BANK3           256      0       0
    BANK4           232      0       0
    BANK5           101      0       0
    BANK6           256      0       0
    BANK7           256      0       0

Pointer List with Targets:

    set_or_clear_comm_feature_callback@context	PTR void  size(2) Largest target is 0
		 -> NULL(NULL[0]), 

    set_line_coding@context	PTR void  size(2) Largest target is 0
		 -> NULL(NULL[0]), 

    callback$1	PTR void  size(2) Largest target is 0
		 -> NULL(NULL[0]), 

    Absolute function$1	PTR void  size(2) Largest target is 0
		 -> NULL(NULL[0]), 

    app_get_line_coding_callback@coding	PTR struct cdc_line_coding size(2) Largest target is 7
		 -> transfer_data(BANK1[7]), 

    app_get_comm_feature_callback@data_multiplexed_state	PTR unsigned char  size(2) Largest target is 1
		 -> process_cdc_setup_request@data_multiplexed_state(COMRAM[1]), 

    app_get_comm_feature_callback@idle_setting	PTR unsigned char  size(2) Largest target is 1
		 -> process_cdc_setup_request@idle_setting(COMRAM[1]), 

    app_get_encapsulated_response@context	PTR PTR void  size(2) Largest target is 3
		 -> process_cdc_setup_request@context(COMRAM[2]), 

    app_get_encapsulated_response@callback	PTR PTR FTN(unsigned char ,PTR void ,)void  size(2) Largest target is 2
		 -> process_cdc_setup_request@callback(COMRAM[2]), 

    app_get_encapsulated_response@report	PTR PTR const void  size(2) Largest target is 3
		 -> process_cdc_setup_request@response(COMRAM[2]), 

    app_set_line_coding_callback@coding	PTR const struct cdc_line_coding size(2) Largest target is 7
		 -> transfer_data(BANK1[7]), 

    ep0_data_stage_callback$1	PTR void  size(2) Largest target is 0
		 -> NULL(NULL[0]), 

    app_unknown_get_descriptor_callback@descriptor	PTR PTR const void  size(2) Largest target is 3
		 -> handle_standard_control_request@desc_581(COMRAM[2]), 

    app_unknown_get_descriptor_callback@pkt	PTR const struct setup_packet size(2) Largest target is 155
		 -> ep_buffers(BIGRAMhl[155]), 

    strlen@s	PTR const unsigned char  size(2) Largest target is 155
		 -> NULL(NULL[0]), ep_buffers(BIGRAMhl[155]), 

    strlen@cp	PTR const unsigned char  size(2) Largest target is 155
		 -> NULL(NULL[0]), ep_buffers(BIGRAMhl[155]), 

    strcpy@from	PTR const unsigned char  size(2) Largest target is 39
		 -> STR_9(CODE[20]), STR_8(CODE[39]), STR_7(CODE[34]), STR_6(CODE[39]), 
		 -> STR_5(CODE[32]), STR_4(CODE[31]), STR_2(CODE[3]), STR_1(CODE[3]), 

    strcpy@to	PTR unsigned char  size(2) Largest target is 155
		 -> NULL(NULL[0]), ep_buffers(BIGRAMhl[155]), 

    strcpy@cp	PTR unsigned char  size(2) Largest target is 155
		 -> NULL(NULL[0]), ep_buffers(BIGRAMhl[155]), 

    memset@p1	PTR void  size(2) Largest target is 24
		 -> bds(BIGRAMl[24]), UEP0(SFR_1[1]), 

    memset@p	PTR unsigned char  size(2) Largest target is 24
		 -> bds(BIGRAMl[24]), UEP0(SFR_1[1]), 

    memcpy@d1	PTR void  size(2) Largest target is 155
		 -> transfer_data(BANK1[7]), NULL(NULL[0]), ep_buffers(BIGRAMhl[155]), 

    memcpy@d	PTR unsigned char  size(2) Largest target is 155
		 -> transfer_data(BANK1[7]), NULL(NULL[0]), ep_buffers(BIGRAMhl[155]), 

    memcpy@s1	PTR const void  size(2) Largest target is 155
		 -> fake_serial_num(CODE[120]), cdc_data_string(CODE[38]), cdc_interface_string(CODE[28]), product_string(CODE[26]), 
		 -> vendor_string(CODE[48]), str00(CODE[4]), configuration_1(CODE[70]), transfer_data(BANK1[7]), 
		 -> handle_standard_control_request@ret_593(COMRAM[1]), handle_standard_control_request@ret_590(COMRAM[2]), handle_standard_control_request@ret(COMRAM[2]), this_device_descriptor(CODE[18]), 
		 -> g_configuration(COMRAM[1]), NULL(NULL[0]), ep_buffers(BIGRAMhl[155]), 

    memcpy@s	PTR const unsigned char  size(2) Largest target is 155
		 -> fake_serial_num(CODE[120]), cdc_data_string(CODE[38]), cdc_interface_string(CODE[28]), product_string(CODE[26]), 
		 -> vendor_string(CODE[48]), str00(CODE[4]), configuration_1(CODE[70]), transfer_data(BANK1[7]), 
		 -> handle_standard_control_request@ret_593(COMRAM[1]), handle_standard_control_request@ret_590(COMRAM[2]), handle_standard_control_request@ret(COMRAM[2]), this_device_descriptor(CODE[18]), 
		 -> g_configuration(COMRAM[1]), NULL(NULL[0]), ep_buffers(BIGRAMhl[155]), 

    sprintf@f	PTR const unsigned char  size(2) Largest target is 3
		 -> STR_3(CODE[3]), 

    sprintf@sp	PTR unsigned char  size(2) Largest target is 155
		 -> NULL(NULL[0]), ep_buffers(BIGRAMhl[155]), 

    sprintf@ap	PTR void [1] size(2) Largest target is 2
		 -> ?_sprintf(BANK0[2]), 

    usb_application_get_string@ptr	PTR PTR const void  size(2) Largest target is 2
		 -> handle_standard_control_request@desc_578(COMRAM[2]), 

    app_unknown_setup_request_callback@setup	PTR const struct setup_packet size(2) Largest target is 155
		 -> ep_buffers(BIGRAMhl[155]), 

    main@n	PTR struct cdc_serial_state_notification size(2) Largest target is 155
		 -> NULL(NULL[0]), ep_buffers(BIGRAMhl[155]), 

    main@out_buf	PTR const unsigned char  size(2) Largest target is 155
		 -> NULL(NULL[0]), ep_buffers(BIGRAMhl[155]), 

    main$1191	PTR const unsigned char  size(2) Largest target is 3
		 -> STR_2(CODE[3]), STR_1(CODE[3]), 

    main@buf	PTR unsigned char  size(2) Largest target is 155
		 -> NULL(NULL[0]), ep_buffers(BIGRAMhl[155]), 

    sp__strcpy	PTR unsigned char  size(2) Largest target is 155
		 -> NULL(NULL[0]), ep_buffers(BIGRAMhl[155]), 

    send_string_sync@str	PTR const unsigned char  size(2) Largest target is 39
		 -> STR_9(CODE[20]), STR_8(CODE[39]), STR_7(CODE[34]), STR_6(CODE[39]), 
		 -> STR_5(CODE[32]), STR_4(CODE[31]), 

    send_string_sync@in_buf	PTR unsigned char  size(2) Largest target is 155
		 -> NULL(NULL[0]), ep_buffers(BIGRAMhl[155]), 

    process_cdc_setup_request@setup	PTR const struct setup_packet size(2) Largest target is 155
		 -> ep_buffers(BIGRAMhl[155]), 

    usb_send_data_stage@buffer	PTR unsigned char  size(2) Largest target is 7
		 -> transfer_data(BANK1[7]), NULL(NULL[0]), 

    usb_send_data_stage@context	PTR void  size(2) Largest target is 0
		 -> NULL(NULL[0]), 

    usb_send_data_stage@callback	PTR FTN(unsigned char ,PTR void ,)void  size(2) Largest target is 0
		 -> Absolute function(), 

    usb_start_receive_ep0_data_stage@context	PTR void  size(2) Largest target is 0
		 -> NULL(NULL[0]), 

    usb_start_receive_ep0_data_stage@buffer	PTR unsigned char  size(2) Largest target is 7
		 -> transfer_data(BANK1[7]), 

    usb_start_receive_ep0_data_stage@callback	PTR FTN(unsigned char ,PTR void ,)void  size(2) Largest target is 0
		 -> set_line_coding(), set_or_clear_comm_feature_callback(), 

    usb_get_out_buffer@buf	PTR PTR const unsigned char  size(2) Largest target is 2
		 -> main@out_buf(BANK0[2]), 

    usb_send_in_buffer@bd	PTR struct buffer_descriptor size(2) Largest target is 24
		 -> bds(BIGRAMl[24]), 

    sp__usb_get_in_buffer	PTR unsigned char  size(2) Largest target is 155
		 -> NULL(NULL[0]), ep_buffers(BIGRAMhl[155]), 

    usb_service@ep	PTR volatile struct . size(2) Largest target is 1
		 -> UEP0(SFR_1[1]), 

    ep0_data_stage_context	PTR void  size(2) Largest target is 0
		 -> NULL(NULL[0]), 

    handle_ep0_setup@setup	PTR struct setup_packet size(2) Largest target is 155
		 -> ep_buffers(BIGRAMhl[155]), 

    handle_standard_control_request@desc_578	PTR const void  size(2) Largest target is 120
		 -> fake_serial_num(CODE[120]), cdc_data_string(CODE[38]), cdc_interface_string(CODE[28]), product_string(CODE[26]), 
		 -> vendor_string(CODE[48]), str00(CODE[4]), 

    usb_application_config_descs	PTR const struct configuration_descriptor[1] size(2) Largest target is 70
		 -> configuration_1(CODE[70]), 

    handle_standard_control_request@desc	PTR const struct configuration_descriptor size(2) Largest target is 70
		 -> configuration_1(CODE[70]), 

    handle_standard_control_request@setup	PTR struct setup_packet size(2) Largest target is 155
		 -> ep_buffers(BIGRAMhl[155]), 

    sp__memcpy	PTR void  size(2) Largest target is 155
		 -> transfer_data(BANK1[7]), NULL(NULL[0]), ep_buffers(BIGRAMhl[155]), 

    start_control_return@ptr	PTR const void  size(2) Largest target is 120
		 -> fake_serial_num(CODE[120]), cdc_data_string(CODE[38]), cdc_interface_string(CODE[28]), product_string(CODE[26]), 
		 -> vendor_string(CODE[48]), str00(CODE[4]), configuration_1(CODE[70]), transfer_data(BANK1[7]), 
		 -> handle_standard_control_request@ret_593(COMRAM[1]), handle_standard_control_request@ret_590(COMRAM[2]), handle_standard_control_request@ret(COMRAM[2]), this_device_descriptor(CODE[18]), 
		 -> g_configuration(COMRAM[1]), NULL(NULL[0]), 

    usb_init@ep	PTR volatile struct . size(2) Largest target is 1
		 -> UEP0(SFR_1[1]), 

    sp__memset	PTR void  size(2) Largest target is 24
		 -> bds(BIGRAMl[24]), UEP0(SFR_1[1]), 

    ep0_data_stage_callback	PTR FTN(unsigned char ,PTR void ,)void  size(2) Largest target is 0
		 -> set_line_coding(), set_or_clear_comm_feature_callback(), Absolute function(), 

    ep0_data_stage_out_buffer	PTR unsigned char  size(2) Largest target is 7
		 -> transfer_data(BANK1[7]), NULL(NULL[0]), 

    ep0_data_stage_in_buffer	PTR unsigned char  size(2) Largest target is 120
		 -> fake_serial_num(CODE[120]), cdc_data_string(CODE[38]), cdc_interface_string(CODE[28]), product_string(CODE[26]), 
		 -> vendor_string(CODE[48]), str00(CODE[4]), configuration_1(CODE[70]), transfer_data(BANK1[7]), 
		 -> handle_standard_control_request@ret_593(COMRAM[1]), handle_standard_control_request@ret_590(COMRAM[2]), handle_standard_control_request@ret(COMRAM[2]), this_device_descriptor(CODE[18]), 
		 -> g_configuration(COMRAM[1]), NULL(NULL[0]), 

    S65ep_buf$in	const PTR unsigned char  size(2) Largest target is 155
		 -> NULL(NULL[0]), ep_buffers(BIGRAMhl[155]), 

    ep_buf.in	const PTR unsigned char  size(2) Largest target is 155
		 -> NULL(NULL[0]), ep_buffers(BIGRAMhl[155]), 

    S65ep_buf$out	const PTR unsigned char  size(2) Largest target is 155
		 -> NULL(NULL[0]), ep_buffers(BIGRAMhl[155]), 

    ep_buf.out	const PTR unsigned char  size(2) Largest target is 155
		 -> NULL(NULL[0]), ep_buffers(BIGRAMhl[155]), 

    S59ep0_buf$in	const PTR unsigned char  size(2) Largest target is 155
		 -> ep_buffers(BIGRAMhl[155]), 

    ep0_buf.in	const PTR unsigned char  size(2) Largest target is 155
		 -> ep_buffers(BIGRAMhl[155]), 

    S59ep0_buf$out	const PTR unsigned char  size(2) Largest target is 155
		 -> ep_buffers(BIGRAMhl[155]), 

    ep0_buf.out	const PTR unsigned char  size(2) Largest target is 155
		 -> ep_buffers(BIGRAMhl[155]), 


Critical Paths under _main in COMRAM

    None.

Critical Paths under _isr in COMRAM

    _isr->_usb_service
    _usb_service->_handle_ep0_setup
    i2_usb_init->i2_memset
    _handle_ep0_setup->_app_unknown_setup_request_callback
    _handle_standard_control_request->_start_control_return
    _app_unknown_setup_request_callback->_process_cdc_setup_request
    _process_cdc_setup_request->_usb_send_data_stage
    _usb_send_data_stage->_start_control_return
    _start_control_return->i2_memcpy
    _handle_ep0_out->i2_memcpy
    _handle_ep0_in->i2_memcpy
    _usb_send_in_buffer_0->i2_usb_in_endpoint_halted
    _set_or_clear_comm_feature_callback->_app_clear_comm_feature_callback
    _set_or_clear_comm_feature_callback->_app_set_comm_feature_callback
    _set_line_coding->_app_set_line_coding_callback

Critical Paths under _main in BANK0

    _main->_sprintf
    _usb_init->_memset
    _sprintf->___lwmod
    ___lwmod->___lwdiv
    _send_string_sync->_usb_send_in_buffer
    _usb_send_in_buffer->_strlen
    _memcpy->_usb_get_in_buffer

Critical Paths under _isr in BANK0

    None.

Critical Paths under _main in BANK1

    None.

Critical Paths under _isr in BANK1

    None.

Critical Paths under _main in BANK2

    None.

Critical Paths under _isr in BANK2

    None.

Critical Paths under _main in BANK3

    None.

Critical Paths under _isr in BANK3

    None.

Critical Paths under _main in BANK4

    None.

Critical Paths under _isr in BANK4

    None.

Critical Paths under _main in BANK5

    None.

Critical Paths under _isr in BANK5

    None.

Critical Paths under _main in BANK6

    None.

Critical Paths under _isr in BANK6

    None.

Critical Paths under _main in BANK7

    None.

Critical Paths under _isr in BANK7

    None.

Call Graph Tables:

 ---------------------------------------------------------------------------------
 (Depth) Function   	        Calls       Base Space   Used Autos Params    Refs
 ---------------------------------------------------------------------------------
 (0) _main                                               118   118      0    8102
                                             26 BANK0    118   118      0
                       _measure_data
                             _memcpy
                   _send_string_sync
                        _sensor_init
                            _sprintf
                             _strcpy
                        _timers_init
               _usb_arm_out_endpoint
              _usb_get_configuration
                  _usb_get_in_buffer
                 _usb_get_out_buffer
               _usb_in_endpoint_busy
             _usb_in_endpoint_halted
                           _usb_init
            _usb_out_endpoint_halted
          _usb_out_endpoint_has_data
                 _usb_send_in_buffer
 ---------------------------------------------------------------------------------
 (1) _usb_out_endpoint_has_data                            1     1      0      22
                                              0 BANK0      1     1      0
 ---------------------------------------------------------------------------------
 (1) _usb_out_endpoint_halted                              1     1      0      22
                                              0 BANK0      1     1      0
 ---------------------------------------------------------------------------------
 (1) _usb_init                                             5     5      0    1143
                                              8 BANK0      5     5      0
                             _memset
               _reset_ep0_data_stage
 ---------------------------------------------------------------------------------
 (2) _reset_ep0_data_stage                                 0     0      0       0
 ---------------------------------------------------------------------------------
 (2) _memset                                               8     2      6     630
                                              0 BANK0      8     2      6
 ---------------------------------------------------------------------------------
 (1) _usb_get_out_buffer                                   3     1      2     155
                                              0 BANK0      3     1      2
 ---------------------------------------------------------------------------------
 (1) _usb_get_configuration                                0     0      0       0
 ---------------------------------------------------------------------------------
 (1) _usb_arm_out_endpoint                                 2     2      0     199
                                              0 BANK0      2     2      0
 ---------------------------------------------------------------------------------
 (1) _timers_init                                          0     0      0       0
 ---------------------------------------------------------------------------------
 (1) _sprintf                                             23    17      6    1332
                                             12 BANK0     14     8      6
                            ___lwdiv
                            ___lwmod
                       _measure_data (ARG)
 ---------------------------------------------------------------------------------
 (2) ___lwmod                                              5     1      4     337
                                              7 BANK0      5     1      4
                            ___lwdiv (ARG)
 ---------------------------------------------------------------------------------
 (2) ___lwdiv                                              7     3      4     340
                                              0 BANK0      7     3      4
 ---------------------------------------------------------------------------------
 (1) _sensor_init                                          0     0      0       0
 ---------------------------------------------------------------------------------
 (1) _send_string_sync                                     5     3      2    2054
                                             14 BANK0      5     3      2
                             _strcpy
                             _strlen
                  _usb_get_in_buffer
               _usb_in_endpoint_busy
                 _usb_send_in_buffer
 ---------------------------------------------------------------------------------
 (1) _usb_send_in_buffer                                   8     6      2     733
                                              6 BANK0      8     6      2
                             _strlen (ARG)
             _usb_in_endpoint_halted
 ---------------------------------------------------------------------------------
 (2) _usb_in_endpoint_halted                               1     1      0      22
                                              0 BANK0      1     1      0
 ---------------------------------------------------------------------------------
 (1) _usb_in_endpoint_busy                                 3     3      0      22
                                              0 BANK0      3     3      0
 ---------------------------------------------------------------------------------
 (1) _usb_get_in_buffer                                    3     1      2      22
                                              0 BANK0      3     1      2
 ---------------------------------------------------------------------------------
 (2) _strlen                                               6     4      2     179
                                              0 BANK0      6     4      2
 ---------------------------------------------------------------------------------
 (1) _strcpy                                               6     2      4     431
                                              0 BANK0      6     2      4
 ---------------------------------------------------------------------------------
 (1) _memcpy                                              10     4      6     954
                                              3 BANK0     10     4      6
                  _usb_get_in_buffer (ARG)
 ---------------------------------------------------------------------------------
 (1) _measure_data                                         2     0      2       0
                                              0 BANK0      2     0      2
 ---------------------------------------------------------------------------------
 Estimated maximum stack depth 2
 ---------------------------------------------------------------------------------
 (Depth) Function   	        Calls       Base Space   Used Autos Params    Refs
 ---------------------------------------------------------------------------------
 (4) _isr                                                 14    14      0   20752
                                             76 COMRAM    14    14      0
                    _timer_interrupt
                        _usb_service
 ---------------------------------------------------------------------------------
 (5) _usb_service                                          6     6      0   20752
                                             70 COMRAM     6     6      0
_app_in_transaction_complete_callbac
       _app_out_transaction_callback
        _app_start_of_frame_callback
             _app_usb_reset_callback
                      _handle_ep0_in
                     _handle_ep0_out
                   _handle_ep0_setup
                      _reset_bd0_out
                          _stall_ep0
                        _stall_ep_in
                       _stall_ep_out
                         i2_usb_init
 ---------------------------------------------------------------------------------
 (6) i2_usb_init                                           5     5      0     765
                                              8 COMRAM     5     5      0
                           i2_memset
             i2_reset_ep0_data_stage
 ---------------------------------------------------------------------------------
 (7) i2_memset                                             8     2      6     252
                                              0 COMRAM     8     2      6
 ---------------------------------------------------------------------------------
 (6) _reset_bd0_out                                        0     0      0       0
 ---------------------------------------------------------------------------------
 (6) _handle_ep0_setup                                     3     3      0   16648
                                             67 COMRAM     3     3      0
                   Absolute function *
 _app_unknown_setup_request_callback
                    _clear_ep0_stall
    _handle_standard_control_request
                    _set_line_coding *
 _set_or_clear_comm_feature_callback *
                          _stall_ep0
             i2_reset_ep0_data_stage
 ---------------------------------------------------------------------------------
 (7) _handle_standard_control_request                     31    31      0    6335
                                             25 COMRAM    31    31      0
         _app_endpoint_halt_callback
     _app_get_device_status_callback
         _app_get_interface_callback
     _app_set_configuration_callback
         _app_set_interface_callback
_app_unknown_get_descriptor_callback
        _send_zero_length_packet_ep0
                          _stall_ep0
                        _stall_ep_in
                       _stall_ep_out
               _start_control_return
         _usb_application_get_string
 ---------------------------------------------------------------------------------
 (8) _usb_application_get_string                           3     1      2     353
                                              0 COMRAM     3     1      2
 ---------------------------------------------------------------------------------
 (6) _stall_ep_out                                         1     1      0      44
                                              0 COMRAM     1     1      0
 ---------------------------------------------------------------------------------
 (6) _stall_ep_in                                          3     3      0      66
                                              0 COMRAM     3     3      0
 ---------------------------------------------------------------------------------
 (8) _app_unknown_get_descriptor_callback                  4     0      4     178
                                              0 COMRAM     4     0      4
 ---------------------------------------------------------------------------------
 (8) _app_set_interface_callback                           2     1      1      89
                                              0 COMRAM     1     0      1
 ---------------------------------------------------------------------------------
 (8) _app_set_configuration_callback                       1     1      0       0
 ---------------------------------------------------------------------------------
 (8) _app_get_interface_callback                           1     1      0       0
 ---------------------------------------------------------------------------------
 (8) _app_get_device_status_callback                       2     0      2       0
                                              0 COMRAM     2     0      2
 ---------------------------------------------------------------------------------
 (8) _app_endpoint_halt_callback                           2     1      1      89
                                              0 COMRAM     1     0      1
 ---------------------------------------------------------------------------------
 (7) _clear_ep0_stall                                      0     0      0       0
 ---------------------------------------------------------------------------------
 (7) _app_unknown_setup_request_callback                   2     0      2    9365
                                             65 COMRAM     2     0      2
          _process_cdc_setup_request
 ---------------------------------------------------------------------------------
 (8) _process_cdc_setup_request                           32    30      2    9254
                                             33 COMRAM    32    30      2
      _app_get_comm_feature_callback
      _app_get_encapsulated_response
       _app_get_line_coding_callback
            _app_send_break_callback
      _app_send_encapsulated_command
_app_set_control_line_state_callback
                _usb_send_data_stage
   _usb_start_receive_ep0_data_stage
 ---------------------------------------------------------------------------------
 (9) _usb_start_receive_ep0_data_stage                     8     0      8    1156
                                              0 COMRAM     8     0      8
             i2_reset_ep0_data_stage
 ---------------------------------------------------------------------------------
 (9) _usb_send_data_stage                                  8     0      8    5473
                                             25 COMRAM     8     0      8
               _start_control_return
 ---------------------------------------------------------------------------------
 (8) _start_control_return                                15     9      6    3583
                                             10 COMRAM    15     9      6
               _usb_send_in_buffer_0
                           i2_memcpy
 ---------------------------------------------------------------------------------
 (9) _app_set_control_line_state_callback                  3     1      2     178
                                              0 COMRAM     2     0      2
 ---------------------------------------------------------------------------------
 (9) _app_send_encapsulated_command                        3     1      2      89
                                              0 COMRAM     2     0      2
 ---------------------------------------------------------------------------------
 (9) _app_send_break_callback                              3     1      2      89
                                              0 COMRAM     2     0      2
 ---------------------------------------------------------------------------------
 (9) _app_get_line_coding_callback                         3     1      2      89
                                              0 COMRAM     2     0      2
 ---------------------------------------------------------------------------------
 (9) _app_get_encapsulated_response                        9     1      8     356
                                              0 COMRAM     8     0      8
 ---------------------------------------------------------------------------------
 (9) _app_get_comm_feature_callback                        5     1      4     178
                                              0 COMRAM     4     0      4
 ---------------------------------------------------------------------------------
 (6) _handle_ep0_out                                       6     6      0    1391
                                             10 COMRAM     6     6      0
                   Absolute function *
        _send_zero_length_packet_ep0
                    _set_line_coding *
 _set_or_clear_comm_feature_callback *
                          _stall_ep0
                           i2_memcpy
             i2_reset_ep0_data_stage
 ---------------------------------------------------------------------------------
 (6) _stall_ep0                                            0     0      0       0
 ---------------------------------------------------------------------------------
 (8) _send_zero_length_packet_ep0                          0     0      0       0
 ---------------------------------------------------------------------------------
 (6) _handle_ep0_in                                        3     3      0    1680
                                             10 COMRAM     3     3      0
                   Absolute function *
                    _set_line_coding *
 _set_or_clear_comm_feature_callback *
               _usb_send_in_buffer_0
                           i2_memcpy
             i2_reset_ep0_data_stage
 ---------------------------------------------------------------------------------
 (7) i2_reset_ep0_data_stage                               0     0      0       0
 ---------------------------------------------------------------------------------
 (9) i2_memcpy                                            10     4      6     354
                                              0 COMRAM    10     4      6
 ---------------------------------------------------------------------------------
 (9) _usb_send_in_buffer_0                                 3     1      2     356
                                              1 COMRAM     3     1      2
           i2_usb_in_endpoint_halted
 ---------------------------------------------------------------------------------
 (10) i2_usb_in_endpoint_halted                            1     1      0      22
                                              0 COMRAM     1     1      0
 ---------------------------------------------------------------------------------
 (7) _set_or_clear_comm_feature_callback                   5     3      2     468
                                              2 COMRAM     5     3      2
    _app_clear_comm_feature_callback
      _app_set_comm_feature_callback
 ---------------------------------------------------------------------------------
 (8) _app_set_comm_feature_callback                        3     1      2     178
                                              0 COMRAM     2     0      2
 ---------------------------------------------------------------------------------
 (8) _app_clear_comm_feature_callback                      3     1      2     178
                                              0 COMRAM     2     0      2
 ---------------------------------------------------------------------------------
 (7) _set_line_coding                                      3     1      2     367
                                              2 COMRAM     3     1      2
       _app_set_line_coding_callback
 ---------------------------------------------------------------------------------
 (8) _app_set_line_coding_callback                         3     1      2      89
                                              0 COMRAM     2     0      2
 ---------------------------------------------------------------------------------
 (7) Absolute function(Fake)                               2     0      2       0
                                              0 COMRAM     2     0      2
 ---------------------------------------------------------------------------------
 (6) _app_usb_reset_callback                               0     0      0       0
 ---------------------------------------------------------------------------------
 (6) _app_start_of_frame_callback                          0     0      0       0
 ---------------------------------------------------------------------------------
 (6) _app_out_transaction_callback                         1     1      0       0
 ---------------------------------------------------------------------------------
 (6) _app_in_transaction_complete_callback                 1     1      0       0
 ---------------------------------------------------------------------------------
 (5) _timer_interrupt                                      0     0      0       0
 ---------------------------------------------------------------------------------
 Estimated maximum stack depth 10
 ---------------------------------------------------------------------------------

 Call Graph Graphs:

 _main (ROOT)
   _measure_data
   _memcpy
     _usb_get_in_buffer (ARG)
   _send_string_sync
     _strcpy
     _strlen
     _usb_get_in_buffer
     _usb_in_endpoint_busy
     _usb_send_in_buffer
       _strlen (ARG)
       _usb_in_endpoint_halted (ARG)
   _sensor_init
   _sprintf
     ___lwdiv
     ___lwmod
       ___lwdiv (ARG)
     _measure_data (ARG)
   _strcpy
   _timers_init
   _usb_arm_out_endpoint
   _usb_get_configuration
   _usb_get_in_buffer
   _usb_get_out_buffer
   _usb_in_endpoint_busy
   _usb_in_endpoint_halted
   _usb_init
     _memset
     _reset_ep0_data_stage
   _usb_out_endpoint_halted
   _usb_out_endpoint_has_data
   _usb_send_in_buffer
     _strlen (ARG)
     _usb_in_endpoint_halted (ARG)

 _isr (ROOT)
   _timer_interrupt
   _usb_service
     _app_in_transaction_complete_callback
     _app_out_transaction_callback
     _app_start_of_frame_callback
     _app_usb_reset_callback
     _handle_ep0_in
       Absolute function(Fake) *
       _set_line_coding *
         _app_set_line_coding_callback
       _set_or_clear_comm_feature_callback *
         _app_clear_comm_feature_callback
         _app_set_comm_feature_callback
       _usb_send_in_buffer_0 *
         i2_usb_in_endpoint_halted
       i2_memcpy *
       i2_reset_ep0_data_stage *
     _handle_ep0_out
       Absolute function(Fake) *
       _send_zero_length_packet_ep0 *
       _set_line_coding *
         _app_set_line_coding_callback
       _set_or_clear_comm_feature_callback *
         _app_clear_comm_feature_callback
         _app_set_comm_feature_callback
       _stall_ep0 *
       i2_memcpy *
       i2_reset_ep0_data_stage *
     _handle_ep0_setup
       Absolute function(Fake) *
       _app_unknown_setup_request_callback *
         _process_cdc_setup_request
           _app_get_comm_feature_callback
           _app_get_encapsulated_response
           _app_get_line_coding_callback
           _app_send_break_callback
           _app_send_encapsulated_command
           _app_set_control_line_state_callback
           _usb_send_data_stage
             _start_control_return
               _usb_send_in_buffer_0
                 i2_usb_in_endpoint_halted
               i2_memcpy
           _usb_start_receive_ep0_data_stage
             i2_reset_ep0_data_stage
       _clear_ep0_stall *
       _handle_standard_control_request *
         _app_endpoint_halt_callback
         _app_get_device_status_callback
         _app_get_interface_callback
         _app_set_configuration_callback
         _app_set_interface_callback
         _app_unknown_get_descriptor_callback
         _send_zero_length_packet_ep0
         _stall_ep0
         _stall_ep_in
         _stall_ep_out
         _start_control_return
           _usb_send_in_buffer_0
             i2_usb_in_endpoint_halted
           i2_memcpy
         _usb_application_get_string
       _set_line_coding *
         _app_set_line_coding_callback
       _set_or_clear_comm_feature_callback *
         _app_clear_comm_feature_callback
         _app_set_comm_feature_callback
       _stall_ep0 *
       i2_reset_ep0_data_stage *
     _reset_bd0_out
     _stall_ep0
     _stall_ep_in
     _stall_ep_out
     i2_usb_init
       i2_memset
       i2_reset_ep0_data_stage

 Address spaces:
Name               Size   Autos  Total    Cost      Usage
BIGRAMl            3FF      0       0      23        0.0%
BIGRAMhh           265      0       0      21        0.0%
EEDATA             100      0       0       0        0.0%
BITBANK7           100      0       0      19        0.0%
BANK7              100      0       0      20        0.0%
BITBANK6           100      0       0      17        0.0%
BANK6              100      0       0      18        0.0%
BITBANK3           100      0       0      10        0.0%
BANK3              100      0       0      11        0.0%
BITBANK2           100      0       0       8        0.0%
BANK2              100      0       0       9        0.0%
BITBANK1           100      0       0       6        0.0%
BANK1              100      0      25       7       14.5%
BIGRAMhl            E8      0       0      22        0.0%
BITBANK4            E8      0       0      12        0.0%
BANK4               E8      0       0      13        0.0%
BITBANK0            A0      0       0       4        0.0%
BANK0               A0     90      A0       5      100.0%
BITBANK5            65      0       0      15        0.0%
BANK5               65      0       0      16        0.0%
BITCOMRAM           5F      0       0       0        0.0%
COMRAM              5F     5A      5F       1      100.0%
BITSFR_1             0      0       0      40        0.0%
SFR_1                0      0       0      40        0.0%
BITSFR               0      0       0      40        0.0%
SFR                  0      0       0      40        0.0%
STACK                0      0       0       2        0.0%
NULL                 0      0       0       0        0.0%
ABS                  0      0     124      14        0.0%
DATA                 0      0     124       3        0.0%
CODE                 0      0       0       0        0.0%


Microchip Technology PIC18 Macro Assembler V1.34 build -361300703 
Symbol Table                                                                                   Wed Jul 29 15:18:21 2015

                                             _stall_ep_in 42C8  
                                 usb_arm_out_endpoint@pid 0060  
                                            _stall_ep_out 4754  
                                    _usb_in_endpoint_busy 4586  
                                  ??_start_control_return 0011  
                                             _usb_service 3A9E  
                                                     l485 2FAA  
                                                     _UIE 000F64  
                                                     _UIR 000F65  
                                  set_line_coding@context 0003  
                                    _set_or_clear_request 00F9  
                                                     _bds 000400  
                                                     _cpm 00F5  
                          __size_of_usb_get_configuration 0006  
                            ?_app_start_of_frame_callback 0001  
                                                     _isr 2008  
                           __end_of_usb_get_configuration 49FC  
                          ?_app_set_comm_feature_callback 0001  
                                                     prod 000FF3  
                                                     tosl 000FFD  
                                                     wreg 000FE8  
                         __end_of_app_send_break_callback 4A20  
                  __end_of_app_set_configuration_callback 4A3A  
                 __size_of_app_set_configuration_callback 0002  
                          _app_set_configuration_callback 4A38  
                   app_get_encapsulated_response@callback 0005  
                    __end_of_app_get_line_coding_callback 4A26  
                   __size_of_app_get_line_coding_callback 0006  
                            _app_get_line_coding_callback 4A20  
                                  send_string_sync@in_buf 0070  
                                                    l1217 42BE  
                                                    l1227 4414  
                                                    l4014 3050  
                                                    l3312 4706  
                                                    l4032 30C6  
                                                    l4050 3140  
                                                    l4114 336E  
                                                    l4026 30A2  
                                                    l3500 43D4  
                                                    l3308 46F2  
                                                    l4108 333E  
                                                    l4052 314C  
                                                    l4060 318A  
                                                    l4036 30D4  
                                                    l3502 43DE  
                                                    l4046 3122  
                                                    l4062 31A2  
                                                    l4072 3200  
                                                    l3450 3CF6  
                                                    l3506 4404  
                                                    l4066 31C2  
                                                    l4058 3182  
                                                    l3460 4736  
                                                    l3700 34BE  
                                                    l3620 3380  
                                                    l4068 31E8  
                                                    l3446 3CD6  
                                                    l3702 34C8  
                                                    l4078 322A  
                                                    l3464 45E0  
                                                    l3480 4272  
                                                    l3712 34E6  
                                                    l3458 4728  
                                                    l3466 45E8  
                                                    l3490 42AE  
                                                    l3482 427C  
                                                    l3722 3666  
                                                    l3706 34D6  
                                                    l3732 4430  
                                                    l3900 3994  
                                                    l3716 356A  
                                                    l3708 34DC  
                                                    l3660 33D8  
                                                    l3478 4264  
                                                    l3910 39D2  
                                                    l3902 399A  
                                                    l3718 35CA  
                                                    l3726 366C  
                                                    l3920 39FA  
                                                    l3840 3DF2  
                                                    l3680 343A  
                                                    l3664 33E2  
                                                    l3738 4468  
                                                    l3498 43C6  
                                                    l3922 3A00  
                                                    l3914 39D8  
                                                    l3906 39A8  
                                                    l3930 3A6E  
                                                    l3682 3454  
                                                    l3932 3A8E  
                                                    l3836 3DA2  
                                                    l3692 3482  
                                                    l3686 345E  
                                                    l3848 4546  
                                                    l3928 3A5E  
                                                    l3696 34B0  
                                                    l3890 3962  
                                                    l3884 3928  
                                                    l3878 390A  
                                                    l3966 2F0E  
                                                    l3888 3938  
                                                    l3984 2F74  
                                                    l3996 2FB8  
                                                    ?_isr 0001  
                                                    l3998 2FC6  
                       __size_ofi2_usb_in_endpoint_halted 0022  
                                                    STR_1 2322  
                                                    STR_2 2325  
                                                    STR_3 2328  
                                                    STR_4 22EF  
                                                    STR_5 22CF  
                                                    STR_6 2286  
                                                    STR_7 22AD  
                                                    STR_8 225F  
                                                    STR_9 230E  
                                                    u4000 2FAA  
                                                    u3330 3C98  
                                                    u3340 3C9A  
                                                    u3360 45D0  
                                    _ep0_data_stage_direc 00F6  
                                                    u3800 3D40  
                                                    u3570 4458  
                                                    u3810 3D42  
                               ?i2_usb_in_endpoint_halted 0001  
                                  _usb_in_endpoint_halted 48DE  
                                                    u3577 444E  
                                                    u3930 2F02  
                                                    u3780 48B2  
                                                    _UEP0 000F6A  
                                                    _UEIE 000F66  
                                                    _addr 00F2  
                                                    _main 2ED2  
                                                    fsr0h 000FEA  
                                                    fsr1h 000FE2  
                                                    fsr0l 000FE9  
                                                    fsr2h 000FDA  
                                                    indf1 000FE7  
                                                    fsr1l 000FE1  
                                                    indf2 000FDF  
                                                    fsr2l 000FD9  
         process_cdc_setup_request@data_multiplexed_state 003E  
                                                    pclat 000FFA  
                                             main@out_buf 00EC  
                                                    prodh 000FF4  
                                                    prodl 000FF3  
                                                    start 208C  
                           __size_of_usb_arm_out_endpoint 00FA  
                                           __CFG_FOSC$HSH 000000  
                                            ___param_bank 000010  
                                           _transfer_data 011E  
                                   ?_usb_in_endpoint_busy 0001  
                                                   ??_isr 004D  
                                              i2_usb_init 3674  
                                 __end_of_set_line_coding 496A  
                         ??_app_get_encapsulated_response 0009  
                 usb_start_receive_ep0_data_stage@context 0007  
                                                   ?_main 0001  
                    __end_of_app_set_line_coding_callback 4A42  
                   __size_of_app_set_line_coding_callback 0002  
                            _app_set_line_coding_callback 4A40  
                                                   _T1CON 000FCD  
                                         __end_of___lwdiv 42C8  
                               ??_usb_out_endpoint_halted 0060  
                                         __end_of___lwmod 441E  
                                                   i2l160 411A  
                                                   i2l208 2994  
                                                   i2l250 3F72  
                                                   i2l162 4178  
                                                   i2l154 40EC  
                                                   i2l148 469A  
                                                   i2l156 40F4  
                                                   i2l237 4242  
                                                   i2l158 4114  
                                                   i2l263 3E44  
                                                   i2l248 3F6C  
                                                   i2l265 3E4C  
                                                   i2l282 3B3E  
                              ?_usb_out_endpoint_has_data 0001  
                                                   i2l276 3AF4  
                                                   i2l278 3AF2  
                                                   i2l287 3C04  
                                                   i2l279 3C06  
                                                   i2l608 40D0  
                                                   i2l377 44E4  
                                                   i2l393 2A8A  
                                                   i2l397 2AF8  
                                                   i2l399 2B72  
                                                   i2l587 2052  
                                                   _UADDR 000F63  
                     app_send_encapsulated_command@length 0001  
                                                   _TMR1H 000FCF  
                                                   _TMR1L 000FCE  
                                                   _USBIE 007D1A  
                                                   _USBIF 007D22  
                                              i2memcpy@d1 0001  
                                              i2memcpy@s1 0003  
                           ??_app_start_of_frame_callback 0001  
                                            main@loopback 00E2  
                                              i2memset@p1 0001  
                                         __end_of_dpowers 20FF  
                                                   _str00 225B  
                                      _usb_send_in_buffer 3C1C  
                                                   main@i 00EA  
                                                   main@n 00EE  
                               __size_of_send_string_sync 0056  
                                                   pclath 000FFA  
                           ?_app_get_line_coding_callback 0001  
                                                   tablat 000FF5  
                                                   plusw2 000FDB  
                              usb_send_data_stage@context 0020  
                                                   status 000FD8  
                                         __end_of_sprintf 3A9E  
                     __size_of_app_endpoint_halt_callback 0002  
                       start_control_return@bytes_to_send 0019  
                                        __end_ofi2_memcpy 44D8  
                                        __end_ofi2_memset 47E6  
                                     ?_usb_send_in_buffer 0066  
                              usb_get_out_buffer@endpoint 0062  
                                   handle_ep0_out@pkt_len 000F  
                      process_cdc_setup_request@interface 0041  
                                         __initialization 4346  
                                            __end_of_main 337A  
                         usb_out_endpoint_halted@endpoint 0060  
                               usb_get_in_buffer@endpoint 0062  
                                           ?_measure_data 0060  
                                __size_of_timer_interrupt 0038  
                                        main@char_to_send 00E1  
                                                  ??_main 007A  
                                ??i2_reset_ep0_data_stage 0001  
                                   handle_ep0_setup@setup 0045  
                                     _usb_send_data_stage 47E6  
                                           __activetblptr 000002  
                                    ??_usb_send_in_buffer 0068  
                                send_string_sync@endpoint 0072  
                           ?_app_set_line_coding_callback 0001  
                                         _cdc_data_string 21ED  
                             ??_process_cdc_setup_request 0024  
                                            _addr_pending 00F3  
                                                  i2l3000 2C52  
                                                  i2l3002 2C68  
                                                  i2l3020 2CF2  
                                                  i2l3008 2C90  
                                                  i2l3200 26D0  
                                                  i2l3112 23C2  
                                                  i2l3042 2D7A  
                                                  i2l3050 2DB8  
                                                  i2l3018 2CDC  
                                                  i2l3026 2D1A  
                                                  i2l3210 2708  
                                                  i2l3202 26D6  
                                                  i2l3130 2458  
                                                  i2l3122 2430  
                                                  i2l3044 2D90  
                                                  i2l3220 275E  
                                                  i2l3212 2732  
                                                  i2l3132 2482  
                                                  i2l3140 24D2  
                                                  i2l3070 2E5C  
                                                  i2l3038 2D56  
                                                  i2l3118 23D6  
                                                  i2l3064 2E34  
                                                  i2l3240 2810  
                                                  i2l3216 2758  
                                                  i2l3410 3EAE  
                                                  i2l3082 2EA4  
                                                  i2l3250 28CA  
                                                  i2l3170 25D0  
                                                  i2l3162 2576  
                                                  i2l3138 24A8  
                                                  i2l3330 4202  
                                                  i2l4122 204C  
                                                  i2l3236 27EC  
                                                  i2l3148 2504  
                                                  i2l3254 2914  
                                                  i2l3246 2890  
                                                  i2l3262 2982  
                                                  i2l3182 2636  
                                                  i2l3190 2688  
                                                  i2l3158 2538  
                                                  i2l3510 367A  
                                          __CFG_WDTEN$OFF 000000  
                                                  i2l3424 3F00  
                                                  i2l3408 3EA2  
                                                  i2l3352 3F3E  
                                                  i2l3088 2ECC  
                                                  i2l3192 268E  
                                                  i2l3328 41FC  
                                                  i2l3290 4958  
                                                  i2l3418 3ECE  
                                                  i2l3370 3FB6  
                                                  i2l3354 3F44  
                                                  i2l3266 298E  
                                                  i2l3258 294E  
                                                  i2l3338 422A  
                                                  i2l3602 37AE  
                                                  i2l3284 451C  
                                                  i2l3380 3FF2  
                                                  i2l3188 2682  
                                                  i2l3268 2998  
                                                  i2l3612 38F0  
                                                  i2l2742 46A6  
                                                  i2l3294 47C2  
                                                  i2l3606 3828  
                                                  i2l3550 36C8  
                                                  i2l2752 44C6  
                                                  i2l2840 401E  
                                                  i2l3608 3876  
                                                  i2l3616 38F4  
                                                  i2l3800 3BC0  
                                                  i2l2746 4492  
                                                  i2l3378 3FEC  
                                                  i2l2930 2A5C  
                                                  i2l2914 29F4  
                                                  i2l2850 4040  
                                                  i2l3298 47D4  
                                                  i2l3570 3716  
                                                  i2l3554 36D0  
                                                  i2l3810 3C12  
                                _start_control_return$547 0013  
                                _start_control_return$548 0015  
                                                  i2l3388 3E26  
                                                  i2l2772 4182  
                                                  i2l2940 2ABC  
                                                  i2l2860 4064  
                                                  i2l3572 372E  
                                                  i2l3804 3BF6  
                                _start_control_return$549 0017  
                                                  i2l2934 2A94  
                                                  i2l2918 29F8  
                                                  i2l2870 4088  
                                                  i2l3590 378A  
                                                  i2l3582 3756  
                                                  i2l2880 40AC  
                                                  i2l3592 3794  
                                                  i2l3576 3736  
                                                  i2l3586 377C  
                                                  i2l3596 37A2  
                                                  i2l3780 3B38  
                                                  i2l3772 3B20  
                                                  i2l3756 3ACE  
                                                  i2l3748 3AAE  
                                                  i2l2958 2B36  
                                                  i2l3598 37A6  
                                                  i2l3782 3B44  
                                                  i2l2976 2BB0  
                                                  i2l3776 3B2C  
                                                  i2l2994 2C0C  
                                                  i2l2986 2BEC  
                                                  i2l3788 3B5A  
                                                  i2l3798 3BB2  
                            ??_app_set_interface_callback 0002  
                             __size_of_usb_get_out_buffer 0046  
                                __size_of_clear_ep0_stall 0010  
                                  _ep0_data_stage_context 00F0  
                            _ep0_data_stage_buf_remaining 005B  
                               _ep0_data_stage_out_buffer 0119  
                                    ?_usb_send_data_stage 001A  
                                        _handle_ep0_setup 41AC  
                         __end_of_usb_out_endpoint_halted 48DE  
                    __size_of_app_start_of_frame_callback 0002  
                                          __CFG_XINST$OFF 000000  
                        ??_app_get_device_status_callback 0003  
                         ?_app_get_device_status_callback 0001  
                                  ??_usb_in_endpoint_busy 0060  
                                          __CFG_STVREN$ON 000000  
                                          ??_measure_data 0062  
                     handle_standard_control_request@desc 0027  
                                               ??___lwdiv 0064  
                                                  _ep_buf 0100  
                                             ?i2_usb_init 0001  
                                               ??___lwmod 006B  
                                        ?_set_line_coding 0003  
                                                  _memcpy 441E  
                                                  _memset 46E8  
                                                  clear_0 434C  
                                                  clear_1 4358  
                                            usb_service@i 004A  
                     __size_of_app_get_interface_callback 0006  
                                                  _strcpy 471E  
                                                  _strlen 45D6  
                                   __end_of_reset_bd0_out 49A8  
                    app_out_transaction_callback@endpoint 0001  
                                            ?_sensor_init 0001  
                   __end_of_app_get_encapsulated_response 4A2C  
                  __size_of_app_get_encapsulated_response 0006  
                           _app_get_encapsulated_response 4A26  
                     __size_of_app_set_interface_callback 0006  
                         ??_app_send_encapsulated_command 0003  
                   app_get_line_coding_callback@interface 0001  
                   app_set_line_coding_callback@interface 0001  
                                            __mediumconst 2090  
                         app_send_break_callback@duration 0001  
                                                  tblptrh 000FF7  
                                                  tblptrl 000FF6  
                                                  tblptru 000FF8  
                                        __end_of_usb_init 3674  
set_or_clear_comm_feature_callback@data_multiplexed_state 0007  
     app_get_comm_feature_callback@data_multiplexed_state 0003  
   app_clear_comm_feature_callback@data_multiplexed_state 0002  
     app_set_comm_feature_callback@data_multiplexed_state 0002  
                                               ??_sprintf 0072  
                                 ?_app_usb_reset_callback 0001  
                                            ?_timers_init 0001  
                                    __CFG_LS48MHZ$SYS48X8 000000  
                                              __accesstop 0060  
                                 __end_of__initialization 43A8  
                                   ??_usb_send_data_stage 0022  
                          __end_of_this_device_descriptor 225B  
                                     send_string_sync@str 006E  
                                           ___rparam_used 000001  
                            __end_of_usb_send_in_buffer_0 46B0  
                               _process_cdc_setup_request 299E  
                                            ?_stall_ep_in 0001  
                                          __pcstackCOMRAM 0001  
                      __end_of_app_endpoint_halt_callback 4A3C  
                              _app_endpoint_halt_callback 4A3A  
                                            __pidataBANK0 4A32  
                                            __pidataBANK1 496A  
                                           __end_of_str00 225F  
                                 __end_of_cdc_data_string 2213  
                        __end_ofi2_usb_in_endpoint_halted 494C  
                                            ?_usb_service 0001  
            app_set_control_line_state_callback@interface 0001  
                                     handle_ep0_setup@res 0044  
            app_in_transaction_complete_callback@endpoint 0001  
                         __size_ofi2_reset_ep0_data_stage 002A  
                __end_of_usb_start_receive_ep0_data_stage 492A  
               __size_of_usb_start_receive_ep0_data_stage 0026  
                      ??_usb_start_receive_ep0_data_stage 0009  
                       ?_usb_start_receive_ep0_data_stage 0001  
                        _usb_start_receive_ep0_data_stage 4904  
                                           stall_ep_in@ep 0003  
                                               ?i2_memcpy 0001  
                                               ?i2_memset 0001  
                                             i2usb_init@i 000D  
                                       ??_timer_interrupt 0001  
                          __end_of_app_usb_reset_callback 4A44  
                                 ?_usb_in_endpoint_halted 0001  
                                   __end_of_handle_ep0_in 3F08  
                                         _g_configuration 005F  
                          ??_app_set_line_coding_callback 0003  
                                        _send_string_sync 4530  
                                              __pbssBANK0 00F0  
                                              __pbssBANK1 0117  
                                     __size_ofi2_usb_init 0288  
                           __size_of_reset_ep0_data_stage 002A  
                         ??_app_set_comm_feature_callback 0003  
                                ?_app_send_break_callback 0001  
                        ??_app_set_configuration_callback 0001  
                         ?_app_set_configuration_callback 0001  
                                       __CFG_PLLSEL$PLL3X 000000  
                                        timer_interrupt@i 011D  
                                       ??_clear_ep0_stall 0001  
                                       _usb_get_in_buffer 483E  
                                                 ?_memcpy 0063  
                                                 ?_memset 0060  
                                 __size_of_handle_ep0_out 00F2  
                                 _ep0_data_stage_callback 005D  
                                      ?_usb_get_in_buffer 0060  
                                         _fake_serial_num 20FF  
                                                 ?_strcpy 0060  
                                                 ?_strlen 0060  
                                       _handle_ep0_in$626 000B  
                            __end_of_usb_arm_out_endpoint 3E12  
                           __size_of_start_control_return 00D6  
                                              _ep_buffers 000500  
                             ??_usb_out_endpoint_has_data 0060  
                          __end_of_usb_in_endpoint_halted 4904  
                                              ??i2_memcpy 0007  
                                              ??i2_memset 0007  
                      __end_of_app_get_interface_callback 4A0E  
                              _app_get_interface_callback 4A08  
                                     ??_usb_get_in_buffer 0062  
                                      __size_of_stall_ep0 0010  
                                   _usb_get_configuration 49F6  
                          ?_app_get_encapsulated_response 0001  
                                                 _UIEbits 000F64  
                      __end_of_app_set_interface_callback 4A08  
                              _app_set_interface_callback 4A02  
                                    __end_of_measure_data 49EE  
                                                 _UIRbits 000F65  
                        process_cdc_setup_request@context 003B  
                                        __CFG_CFGPLLEN$ON 000000  
                        process_cdc_setup_request@res_860 0033  
                        process_cdc_setup_request@res_863 0036  
                        process_cdc_setup_request@res_855 0031  
                        process_cdc_setup_request@res_858 0032  
                                  i2_reset_ep0_data_stage 4868  
                            ?_send_zero_length_packet_ep0 0001  
                                                 __Hparam 0000  
                                                 __Lparam 0000  
                               __end_of_usb_get_in_buffer 4868  
                                      _transfer_interface 00FA  
                      app_endpoint_halt_callback@endpoint 0001  
                                                 _ep0_buf 00FB  
           app_unknown_get_descriptor_callback@descriptor 0003  
                                               ?_usb_init 0001  
                                                 ___lwdiv 4246  
                                                 ___lwmod 43B2  
                                                 __pcinit 4346  
                                         __size_of_memcpy 0062  
                                         __size_of_memset 0036  
                                                 __ramtop 0800  
                    handle_standard_control_request@flags 002F  
                                                 __ptext0 2ED2  
                                                 __ptext1 4892  
                                                 __ptext2 48B8  
                                                 __ptext3 337A  
                                                 __ptext4 4814  
                                                 __ptext5 46E8  
                                                 __ptext6 4624  
                                                 __ptext7 49F6  
                                                 __ptext8 3D18  
                                                 __ptext9 478A  
                    handle_standard_control_request@setup 0037  
                                __end_of_handle_ep0_setup 4246  
                    handle_standard_control_request@stall 0024  
                                         __size_of_strcpy 0036  
                                         __size_of_strlen 004E  
                                               _T1CONbits 000FCD  
                              set_line_coding@transfer_ok 0005  
                                                 _dpowers 20F5  
                     start_control_return@bytes_asked_for 000F  
                                            __size_of_isr 0084  
                                           usb_service@ep 0048  
                                    _usb_send_in_buffer_0 466A  
                                    __size_of_sensor_init 0008  
                                i2_usb_in_endpoint_halted 492A  
                                    usb_send_in_buffer@bd 006C  
                                                 main@buf 00E6  
                                                 _sprintf 38FC  
                                    end_of_initialization 43A8  
                                   __end_of_vendor_string 21ED  
                            process_cdc_setup_request@len 003F  
                            process_cdc_setup_request@dtr 0034  
                            process_cdc_setup_request@res 0030  
                            process_cdc_setup_request@rts 0035  
                                                 memcpy@d 0069  
                                                 memcpy@n 0067  
                                                 memcpy@s 006B  
                                                 memset@c 0062  
                                                 memset@n 0064  
                                                 memset@p 0066  
                                           __Lmediumconst 2090  
                                    __size_of_timers_init 002E  
                 __end_of_app_clear_comm_feature_callback 4A40  
                __size_of_app_clear_comm_feature_callback 0002  
              __end_of_set_or_clear_comm_feature_callback 4530  
             __size_of_set_or_clear_comm_feature_callback 0058  
                    ??_set_or_clear_comm_feature_callback 0005  
                     ?_set_or_clear_comm_feature_callback 0003  
                       ??_app_clear_comm_feature_callback 0003  
                        ?_app_clear_comm_feature_callback 0001  
                         _app_clear_comm_feature_callback 4A3E  
                      _set_or_clear_comm_feature_callback 44D8  
                               _usb_out_endpoint_has_data 4892  
                                       __end_ofmain@F7738 20F5  
                           ??_send_zero_length_packet_ep0 0001  
                                       __end_of_stall_ep0 49D8  
                                 __end_of_fake_serial_num 2177  
                     app_get_encapsulated_response@length 0001  
                        app_send_break_callback@interface 0001  
                                                 postdec1 000FE5  
                                                 postdec2 000FDD  
                                                 postinc0 000FEE  
                                                 postinc1 000FE6  
                                                 postinc2 000FDE  
                     app_get_encapsulated_response@report 0003  
                                            ??i2_usb_init 0009  
                                              ??_usb_init 0068  
                                ?_usb_out_endpoint_halted 0001  
                                    __size_of_stall_ep_in 007E  
                                 usb_send_in_buffer_0@len 0002  
                                 usb_send_in_buffer_0@pid 0004  
                                                 strlen@s 0060  
           set_or_clear_comm_feature_callback@transfer_ok 0005  
                            ??_app_endpoint_halt_callback 0002  
                      __size_of_process_cdc_setup_request 0534  
                                               _PORTBbits 000F81  
             app_set_configuration_callback@configuration 0001  
            __end_of_app_in_transaction_complete_callback 4A4A  
           __size_of_app_in_transaction_complete_callback 0002  
                  ??_app_in_transaction_complete_callback 0001  
                   ?_app_in_transaction_complete_callback 0001  
                    _app_in_transaction_complete_callback 4A48  
                     __end_of_app_start_of_frame_callback 4A46  
                             _app_start_of_frame_callback 4A44  
                              handle_ep0_in@bytes_to_send 000D  
                             __size_of_usb_send_in_buffer 00FC  
                                    __size_of_usb_service 017E  
                            ??_usb_application_get_string 0003  
                                   ?_usb_send_in_buffer_0 0002  
                  __end_of_app_get_device_status_callback 49E4  
                 __size_of_app_get_device_status_callback 000C  
                          _app_get_device_status_callback 49D8  
                                  ?_usb_get_configuration 0001  
                                               _TRISBbits 000F93  
                                              main@i_1197 00E3  
                              __end_of_usb_get_out_buffer 466A  
                           _process_cdc_setup_request$851 0028  
                           _process_cdc_setup_request$856 002A  
                           _process_cdc_setup_request$857 002C  
                           _process_cdc_setup_request$859 002E  
                  app_unknown_get_descriptor_callback@pkt 0001  
                                               _USTATbits 000F61  
                    __end_of_app_out_transaction_callback 4A48  
                   __size_of_app_out_transaction_callback 0002  
                            _app_out_transaction_callback 4A46  
                                      __end_ofi2_usb_init 38FC  
                                    _usb_arm_out_endpoint 3D18  
                    app_get_encapsulated_response@context 0007  
                              __size_of_usb_get_in_buffer 002A  
                             ?_app_endpoint_halt_callback 0001  
                                           ?_stall_ep_out 0001  
                  usb_start_receive_ep0_data_stage@buffer 0001  
                     __size_of_usb_application_get_string 00DC  
                                         _timer_interrupt 46B0  
              __end_of_app_unknown_setup_request_callback 49C8  
             __size_of_app_unknown_setup_request_callback 0010  
                    ??_app_unknown_setup_request_callback 0044  
                     ?_app_unknown_setup_request_callback 0042  
                      _app_unknown_setup_request_callback 49B8  
                                __end_of_send_string_sync 4586  
                           __size_of_usb_in_endpoint_busy 0050  
                                          _handle_ep0_out 3F08  
                                               i2memcpy@d 0007  
                                               i2memcpy@n 0005  
                                               i2memcpy@s 0009  
                             handle_ep0_out@bytes_to_copy 0010  
                                               i2memset@c 0003  
                                               i2memset@n 0005  
                                               i2memset@p 0007  
                          process_cdc_setup_request@setup 0022  
                                          __end_of_memcpy 4480  
                                          __end_of_memset 471E  
                    __size_of_send_zero_length_packet_ep0 0016  
                       __end_of_process_cdc_setup_request 2ED2  
                                          __end_of_strcpy 4754  
                                          __end_of_strlen 4624  
                                     start_initialization 4346  
                                   __size_of_measure_data 000A  
                                __size_of_set_line_coding 001E  
                   process_cdc_setup_request@idle_setting 003D  
                                             __end_of_isr 208C  
                             __end_of_usb_send_data_stage 4814  
                                       __size_ofi2_memcpy 0058  
                                       __size_ofi2_memset 002E  
                 usb_application_get_string@string_number 0003  
                            ??_app_get_interface_callback 0001  
                                         _clear_ep0_stall 49A8  
             __end_of_app_set_control_line_state_callback 4A14  
            __size_of_app_set_control_line_state_callback 0006  
                   ??_app_set_control_line_state_callback 0003  
                    ?_app_set_control_line_state_callback 0001  
                     _app_set_control_line_state_callback 4A0E  
                                         _returning_short 00F7  
                           ?_app_out_transaction_callback 0001  
                                   ?_usb_arm_out_endpoint 0001  
                                          stall_ep_out@ep 0001  
                                  __size_of_reset_bd0_out 0010  
                                            i2usb_init@ep 000B  
                                          ??_stall_ep_out 0001  
                                  __end_of_handle_ep0_out 3FFA  
                                             __pdataBANK0 00FB  
                                             __pdataBANK1 0100  
                 app_unknown_setup_request_callback@setup 0042  
                                                ??_memcpy 0069  
                                            _measure_data 49E4  
                                                ??_memset 0066  
                            __end_of_reset_ep0_data_stage 483E  
                   app_set_interface_callback@alt_setting 0001  
                        __size_of_app_send_break_callback 0006  
                                                ??_strcpy 0064  
                                                ??_strlen 0062  
                                  ??_usb_send_in_buffer_0 0004  
                                             __pbssCOMRAM 005B  
                                           __pcstackBANK0 0060  
                             ?_app_get_interface_callback 0001  
                                         __CFG_nPWRTEN$ON 000000  
                         ??_app_get_comm_feature_callback 0005  
                                 ?i2_reset_ep0_data_stage 0001  
                              usb_send_in_buffer@endpoint 006B  
                             ?_app_set_interface_callback 0001  
                                             sprintf@flag 0075  
                            __end_of_start_control_return 41AC  
                                             sprintf@prec 0076  
                 __end_of_handle_standard_control_request 299E  
                __size_of_handle_standard_control_request 0672  
                       ??_handle_standard_control_request 001A  
                        ?_handle_standard_control_request 0001  
                         _handle_standard_control_request 232C  
                                 __end_of_timer_interrupt 46E8  
                                               _main$1191 00DF  
                                        ___lwdiv@dividend 0060  
                  handle_standard_control_request@len_580 002B  
                                               __pintcode 2008  
                          ??_app_get_line_coding_callback 0003  
                                           __pmediumconst 2090  
                        i2usb_in_endpoint_halted@endpoint 0001  
                          usb_in_endpoint_halted@endpoint 0060  
                                         ?_handle_ep0_out 0001  
                                  __size_of_handle_ep0_in 00F6  
                       usb_out_endpoint_has_data@endpoint 0060  
                                                ?___lwdiv 0060  
                                                ?___lwmod 0067  
                           usb_application_get_string@ptr 0001  
                  handle_standard_control_request@res_592 001E  
                      __size_of_usb_out_endpoint_has_data 0026  
                  handle_standard_control_request@ret_590 001F  
                  handle_standard_control_request@ret_593 0031  
                              ??i2_usb_in_endpoint_halted 0001  
                  app_get_comm_feature_callback@interface 0001  
                app_clear_comm_feature_callback@interface 0001  
                  app_set_comm_feature_callback@interface 0001  
                                       __size_of_usb_init 02FA  
                      __end_of_usb_application_get_string 40D6  
                              _usb_application_get_string 3FFA  
                                       ?_handle_ep0_setup 0001  
                                           _reset_bd0_out 4998  
                                 __end_of_clear_ep0_stall 49B8  
                                      ??_handle_ep0_setup 0044  
                          __end_ofi2_reset_ep0_data_stage 4892  
                                        ___lwdiv@quotient 0064  
                                                ?_sprintf 006C  
                                       ??_set_line_coding 0005  
                                  ??_usb_arm_out_endpoint 0060  
                                                _PIE1bits 000F9D  
                                                i2u300_40 44FE  
                                                i2u212_40 4680  
                                                i2u220_40 4130  
                            _usb_application_config_descs 0115  
                                                i2u213_40 4682  
                                                i2u215_40 44BA  
                                                i2u215_47 44B0  
                                                i2u320_48 3FCE  
                                                i2u217_40 40E2  
                                                i2u313_48 3F20  
                                                i2u330_48 3EE2  
                                                i2u323_40 3E3A  
                                                i2u219_40 412E  
                                                i2u252_40 2D70  
                                                i2u307_48 41DE  
                                                i2u245_40 2C48  
                usb_start_receive_ep0_data_stage@callback 0005  
                  app_get_encapsulated_response@interface 0001  
                                                i2u255_40 2DF8  
                                                i2u256_40 2DFA  
                                                i2u248_40 2CD2  
                                                i2u280_40 2652  
                                                i2u257_40 2E18  
                                                _PIR1bits 000F9E  
                                                i2u258_40 2E1A  
                                                i2u362_40 3AF2  
                                                i2u293_40 2966  
                                                i2u294_40 2968  
                                                i2u279_40 2650  
         handle_standard_control_request@descriptor_index 0033  
                                                i2u297_40 44EE  
                                                i2u298_40 44F0  
                                                i2u299_40 44FC  
                                                _UCFGbits 000F62  
                          ??_app_out_transaction_callback 0001  
                                      _handle_ep0_out$622 000D  
                                               main@F7738 2091  
                       process_cdc_setup_request@callback 0039  
                                _ep0_data_stage_in_buffer 0117  
                                                _UCONbits 000F60  
                                            _sendDataToPC 00F8  
                                               _stall_ep0 49C8  
                                ??_app_usb_reset_callback 0001  
                       __end_of_usb_out_endpoint_has_data 48B8  
                                 start_control_return@len 000D  
                                 ??_usb_get_configuration 0060  
                                 start_control_return@ptr 000B  
                                           ??_sensor_init 0060  
                                          ?_reset_bd0_out 0001  
                            usb_arm_out_endpoint@endpoint 0061  
                               usb_send_data_stage@buffer 001A  
                                                i2_memcpy 4480  
                                                i2_memset 47B8  
                                    __end_of_stall_ep_out 478A  
                                  usb_send_data_stage@len 001C  
                        __size_of_usb_out_endpoint_halted 0026  
                     usb_start_receive_ep0_data_stage@len 0003  
                                           _handle_ep0_in 3E12  
                                               copy_data0 437C  
                                               copy_data1 439C  
                                           ??_timers_init 0060  
                       process_cdc_setup_request@response 0037  
                   __end_of_app_get_comm_feature_callback 4A32  
                  __size_of_app_get_comm_feature_callback 0006  
                           _app_get_comm_feature_callback 4A2C  
                   __end_of_app_send_encapsulated_command 4A1A  
                  __size_of_app_send_encapsulated_command 0006  
                           _app_send_encapsulated_command 4A14  
                                    _reset_ep0_data_stage 4814  
                                              usb_init@ep 006A  
                                        ?_timer_interrupt 0001  
                                                __Hrparam 0000  
                     _handle_standard_control_request$591 001C  
                                           ??_stall_ep_in 0001  
                                                __Lrparam 0000  
                                      _usb_get_out_buffer 4624  
                            usb_in_endpoint_busy@endpoint 0062  
                      app_get_line_coding_callback@coding 0001  
                      app_set_line_coding_callback@coding 0001  
                             usb_send_data_stage@callback 001E  
                      handle_standard_control_request@len 0029  
                      handle_standard_control_request@req 002D  
                      handle_standard_control_request@res 0023  
                      handle_standard_control_request@ret 0021  
                                         _configuration_1 2177  
                                ??_usb_in_endpoint_halted 0060  
                           main@Franklin_Gothic_Medium5x7 007B  
                                        __size_of___lwdiv 0082  
                                       ?_send_string_sync 006E  
                                        __size_of___lwmod 006C  
                                 _app_send_break_callback 4A1A  
                              __end_of_usb_send_in_buffer 3D18  
                                              ?_stall_ep0 0001  
                                     ?_usb_get_out_buffer 0060  
                                           ??_usb_service 0047  
                            __end_of_cdc_interface_string 222F  
                                              _ANSELBbits 000F5C  
                                      ??_send_string_sync 0070  
                                    _start_control_return 40D6  
                                              sprintf@val 0077  
                                        ?_clear_ep0_stall 0001  
                                         ___lwdiv@divisor 0062  
                   handle_standard_control_request@ep_dir 0030  
                                         ___lwdiv@counter 0066  
                                          ?_handle_ep0_in 0001  
                   handle_standard_control_request@ep_num 002E  
                                                __ptext10 38FC  
                                                __ptext11 43B2  
                                                __ptext20 471E  
                                                __ptext12 4246  
                                                __ptext21 441E  
                                                __ptext13 49EE  
                                                __ptext30 3FFA  
                                                __ptext22 49E4  
                                                __ptext14 4530  
                                                __ptext31 4754  
                                                __ptext15 3C1C  
                                                __ptext40 49B8  
                                                __ptext32 42C8  
                                                __ptext24 3A9E  
                                                __ptext16 48DE  
                                                __ptext41 299E  
                                                __ptext33 49FC  
                                                __ptext25 3674  
                                                __ptext17 4586  
                                                __ptext50 4A2C  
                                                __ptext42 4904  
                                                __ptext34 4A02  
                                                __ptext26 47B8  
                                                __ptext18 483E  
                                                __ptext51 3F08  
                                                __ptext43 47E6  
                                                __ptext35 4A38  
                                                __ptext27 4998  
                                                __ptext19 45D6  
                                                __ptext60 44D8  
                                                __ptext52 49C8  
                                                __ptext44 40D6  
                                                __ptext36 4A08  
                                                __ptext28 41AC  
                                                __ptext61 4A3C  
                                                __ptext53 4982  
                                                __ptext45 4A0E  
                                                __ptext37 49D8  
                                                __ptext29 232C  
                                                __ptext62 4A3E  
                                                __ptext54 3E12  
                                                __ptext46 4A14  
                                                __ptext38 4A3A  
                                                __ptext63 4A40  
                                                __ptext55 4868  
                                                __ptext47 4A1A  
                                                __ptext39 49A8  
                                                __ptext64 4A42  
                                                __ptext56 4480  
                                                __ptext48 4A20  
                                                __ptext65 4A44  
                                                __ptext57 466A  
                                                __ptext49 4A26  
                                                __ptext66 4A46  
                                                __ptext58 492A  
                                                __ptext67 4A48  
                                                __ptext59 494C  
                                                __ptext68 46B0  
                                                __ptext69 0000  
                                     __end_of_sensor_init 49F6  
                            __end_of_usb_in_endpoint_busy 45D6  
                                                _ledState 011B  
                                        __size_of_sprintf 01A2  
                                              strcpy@from 0062  
                                    ??_usb_get_out_buffer 0062  
                     __end_of_send_zero_length_packet_ep0 4998  
                             _send_zero_length_packet_ep0 4982  
                                           __size_of_main 04A8  
                                   ?_reset_ep0_data_stage 0001  
                                          usb_service@pid 004C  
                                     __end_of_timers_init 47B8  
                                        _control_need_zlp 00F4  
                  app_set_control_line_state_callback@dtr 0001  
                  app_set_control_line_state_callback@dts 0002  
             __end_of_app_unknown_get_descriptor_callback 4A02  
            __size_of_app_unknown_get_descriptor_callback 0006  
                   ??_app_unknown_get_descriptor_callback 0005  
                    ?_app_unknown_get_descriptor_callback 0001  
                     _app_unknown_get_descriptor_callback 49FC  
                                   usb_send_in_buffer@len 0066  
                                   usb_send_in_buffer@pid 006A  
                  app_send_encapsulated_command@interface 0001  
                                                _usb_init 337A  
                                                main@send 00E5  
                   __end_of_app_set_comm_feature_callback 4A3E  
                  __size_of_app_set_comm_feature_callback 0002  
                           _app_set_comm_feature_callback 4A3C  
                                         ??_reset_bd0_out 0001  
                                     __end_of_stall_ep_in 4346  
                         __size_of_app_usb_reset_callback 0002  
                                   ?_start_control_return 000B  
                                              _INTCONbits 000FF2  
                                               usb_init@i 006C  
                              ?_process_cdc_setup_request 0022  
                                                memcpy@d1 0063  
                                                memcpy@s1 0065  
                                     __end_of_usb_service 3C1C  
                                                memset@p1 0060  
               handle_standard_control_request@descriptor 0032  
                        app_endpoint_halt_callback@halted 0001  
                                                intlevel2 0000  
                                               sprintf@ap 0073  
                                               sprintf@sp 006C  
                                           _vendor_string 21BD  
                                        ___lwmod@dividend 0067  
               handle_standard_control_request@ep_num_595 0036  
                 handle_standard_control_request@desc_581 0025  
                 handle_standard_control_request@desc_578 0034  
                            __size_of_usb_send_data_stage 002E  
                                        ??_handle_ep0_out 000B  
                                 __end_of_configuration_1 21BD  
                                         main@out_buf_len 00E8  
                          ?_app_get_comm_feature_callback 0001  
                          ?_app_send_encapsulated_command 0001  
                               ??_app_send_break_callback 0003  
                                  _this_device_descriptor 2249  
                                    __CFG_CPUDIV$NOCLKDIV 000000  
                                          _product_string 222F  
                         __size_of_usb_in_endpoint_halted 0026  
                                   usb_get_out_buffer@buf 0060  
                                             ??_stall_ep0 0001  
                                                sprintf@c 0079  
                                                sprintf@f 006E  
                                   __size_of_stall_ep_out 0036  
                                             _sensor_init 49EE  
                             ?_usb_application_get_string 0001  
                                         _set_line_coding 494C  
                                         ___lwmod@divisor 0069  
                                                strcpy@cp 0064  
                                         ??_handle_ep0_in 000B  
                                                strlen@cp 0064  
                                                strcpy@to 0060  
                                         ___lwmod@counter 006B  
                           __size_of_usb_send_in_buffer_0 0046  
                                 _usb_out_endpoint_halted 48B8  
               set_or_clear_comm_feature_callback@context 0003  
          set_or_clear_comm_feature_callback@idle_setting 0006  
               app_get_comm_feature_callback@idle_setting 0001  
             app_clear_comm_feature_callback@idle_setting 0001  
               app_set_comm_feature_callback@idle_setting 0001  
                                             _timers_init 478A  
                                  ??_reset_ep0_data_stage 0060  
                                  _app_usb_reset_callback 4A42  
                               __size_of_handle_ep0_setup 009A  
                                    _cdc_interface_string 2213  
                                  __end_of_product_string 2249  
                     app_get_interface_callback@interface 0001  
                     app_set_interface_callback@interface 0001  
